ARM GAS  C:\Users\CCMA\AppData\Local\Temp\ccP3MDSH.s 			page 1


   1              		.syntax unified
   2              		.arch armv8-m.base
   3              		.fpu softvfp
   4              		.eabi_attribute 20, 1
   5              		.eabi_attribute 21, 1
   6              		.eabi_attribute 23, 3
   7              		.eabi_attribute 24, 1
   8              		.eabi_attribute 25, 1
   9              		.eabi_attribute 26, 1
  10              		.eabi_attribute 30, 6
  11              		.eabi_attribute 34, 0
  12              		.eabi_attribute 18, 4
  13              		.thumb
  14              		.syntax unified
  15              		.file	"retarget.c"
  16              		.text
  17              	.Ltext0:
  18              		.cfi_sections	.debug_frame
  19              		.comm	__stdout,104,4
  20              		.comm	__stdin,104,4
  21              		.section	.rodata
  22              		.align	2
  23              	.LC0:
  24 0000 72302020 		.ascii	"r0  = 0x%x\012\000"
  24      3D203078 
  24      25780A00 
  25              		.align	2
  26              	.LC2:
  27 000c 72312020 		.ascii	"r1  = 0x%x\012\000"
  27      3D203078 
  27      25780A00 
  28              		.align	2
  29              	.LC4:
  30 0018 72322020 		.ascii	"r2  = 0x%x\012\000"
  30      3D203078 
  30      25780A00 
  31              		.align	2
  32              	.LC6:
  33 0024 72332020 		.ascii	"r3  = 0x%x\012\000"
  33      3D203078 
  33      25780A00 
  34              		.align	2
  35              	.LC8:
  36 0030 72313220 		.ascii	"r12 = 0x%x\012\000"
  36      3D203078 
  36      25780A00 
  37              		.align	2
  38              	.LC10:
  39 003c 6C722020 		.ascii	"lr  = 0x%x\012\000"
  39      3D203078 
  39      25780A00 
  40              		.align	2
  41              	.LC12:
  42 0048 70632020 		.ascii	"pc  = 0x%x\012\000"
  42      3D203078 
  42      25780A00 
  43              		.align	2
ARM GAS  C:\Users\CCMA\AppData\Local\Temp\ccP3MDSH.s 			page 2


  44              	.LC14:
  45 0054 70737220 		.ascii	"psr = 0x%x\012\000"
  45      3D203078 
  45      25780A00 
  46              		.text
  47              		.align	2
  48              		.code	16
  49              		.thumb_func
  50              		.type	stackDump, %function
  51              	stackDump:
  52              	.LFB61:
  53              		.file 1 "src/retarget.c"
   1:src/retarget.c **** /**************************************************************************//**
   2:src/retarget.c ****  * @file     retarget.c
   3:src/retarget.c ****  * @version  V3.00
   4:src/retarget.c ****  * $Revision: 1 $
   5:src/retarget.c ****  * $Date: 16/07/07 7:50p $
   6:src/retarget.c ****  * @brief    Debug Port and Semihost Setting Source File
   7:src/retarget.c ****  *
   8:src/retarget.c ****  * @note
   9:src/retarget.c ****  * Copyright (C) 2011 Nuvoton Technology Corp. All rights reserved.
  10:src/retarget.c ****  *
  11:src/retarget.c ****  ******************************************************************************/
  12:src/retarget.c **** 
  13:src/retarget.c **** 
  14:src/retarget.c **** #include <stdio.h>
  15:src/retarget.c **** #include "TC8234.h"
  16:src/retarget.c **** 
  17:src/retarget.c **** #if defined ( __CC_ARM   )
  18:src/retarget.c **** #if (__ARMCC_VERSION < 400000)
  19:src/retarget.c **** #else
  20:src/retarget.c **** /* Insist on keeping widthprec, to avoid X propagation by benign code in C-lib */
  21:src/retarget.c **** #pragma import _printf_widthprec
  22:src/retarget.c **** #endif
  23:src/retarget.c **** #endif
  24:src/retarget.c **** 
  25:src/retarget.c **** /*-------------------------------------------------------------------------------------------------
  26:src/retarget.c **** /* Global variables                                                                                
  27:src/retarget.c **** /*-------------------------------------------------------------------------------------------------
  28:src/retarget.c **** #if !(defined(__ICCARM__) && (__VER__ >= 6010000))
  29:src/retarget.c **** # if (__ARMCC_VERSION < 6040000)
  30:src/retarget.c **** struct __FILE
  31:src/retarget.c **** {
  32:src/retarget.c ****     int handle; /* Add whatever you need here */
  33:src/retarget.c **** };
  34:src/retarget.c **** # endif
  35:src/retarget.c **** #endif
  36:src/retarget.c **** FILE __stdout;
  37:src/retarget.c **** FILE __stdin;
  38:src/retarget.c **** 
  39:src/retarget.c **** enum { r0, r1, r2, r3, r12, lr, pc, psr};
  40:src/retarget.c **** 
  41:src/retarget.c **** /**
  42:src/retarget.c ****  * @brief       Helper function to dump register while hard fault occurred
  43:src/retarget.c ****  * @param[in]   stack pointer points to the dumped registers in SRAM
  44:src/retarget.c ****  * @return      None
  45:src/retarget.c ****  * @details     This function is implement to print r0, r1, r2, r3, r12, lr, pc, psr
ARM GAS  C:\Users\CCMA\AppData\Local\Temp\ccP3MDSH.s 			page 3


  46:src/retarget.c ****  */
  47:src/retarget.c **** static void stackDump(uint32_t stack[])
  48:src/retarget.c **** {   
  54              		.loc 1 48 0
  55              		.cfi_startproc
  56              		@ args = 0, pretend = 0, frame = 8
  57              		@ frame_needed = 1, uses_anonymous_args = 0
  58 0000 80B5     		push	{r7, lr}
  59              	.LCFI0:
  60              		.cfi_def_cfa_offset 8
  61              		.cfi_offset 7, -8
  62              		.cfi_offset 14, -4
  63 0002 82B0     		sub	sp, sp, #8
  64              	.LCFI1:
  65              		.cfi_def_cfa_offset 16
  66 0004 00AF     		add	r7, sp, #0
  67              	.LCFI2:
  68              		.cfi_def_cfa_register 7
  69 0006 7860     		str	r0, [r7, #4]
  49:src/retarget.c ****     printf("r0  = 0x%x\n", stack[r0]);
  70              		.loc 1 49 0
  71 0008 7B68     		ldr	r3, [r7, #4]
  72 000a 1A68     		ldr	r2, [r3]
  73 000c 204B     		ldr	r3, .L2
  74 000e 1100     		movs	r1, r2
  75 0010 1800     		movs	r0, r3
  76 0012 FFF7FEFF 		bl	printf
  50:src/retarget.c ****     printf("r1  = 0x%x\n", stack[r1]);
  77              		.loc 1 50 0
  78 0016 7B68     		ldr	r3, [r7, #4]
  79 0018 0433     		adds	r3, r3, #4
  80 001a 1A68     		ldr	r2, [r3]
  81 001c 1D4B     		ldr	r3, .L2+4
  82 001e 1100     		movs	r1, r2
  83 0020 1800     		movs	r0, r3
  84 0022 FFF7FEFF 		bl	printf
  51:src/retarget.c ****     printf("r2  = 0x%x\n", stack[r2]);
  85              		.loc 1 51 0
  86 0026 7B68     		ldr	r3, [r7, #4]
  87 0028 0833     		adds	r3, r3, #8
  88 002a 1A68     		ldr	r2, [r3]
  89 002c 1A4B     		ldr	r3, .L2+8
  90 002e 1100     		movs	r1, r2
  91 0030 1800     		movs	r0, r3
  92 0032 FFF7FEFF 		bl	printf
  52:src/retarget.c ****     printf("r3  = 0x%x\n", stack[r3]);
  93              		.loc 1 52 0
  94 0036 7B68     		ldr	r3, [r7, #4]
  95 0038 0C33     		adds	r3, r3, #12
  96 003a 1A68     		ldr	r2, [r3]
  97 003c 174B     		ldr	r3, .L2+12
  98 003e 1100     		movs	r1, r2
  99 0040 1800     		movs	r0, r3
 100 0042 FFF7FEFF 		bl	printf
  53:src/retarget.c ****     printf("r12 = 0x%x\n", stack[r12]);
 101              		.loc 1 53 0
 102 0046 7B68     		ldr	r3, [r7, #4]
ARM GAS  C:\Users\CCMA\AppData\Local\Temp\ccP3MDSH.s 			page 4


 103 0048 1033     		adds	r3, r3, #16
 104 004a 1A68     		ldr	r2, [r3]
 105 004c 144B     		ldr	r3, .L2+16
 106 004e 1100     		movs	r1, r2
 107 0050 1800     		movs	r0, r3
 108 0052 FFF7FEFF 		bl	printf
  54:src/retarget.c ****     printf("lr  = 0x%x\n", stack[lr]);
 109              		.loc 1 54 0
 110 0056 7B68     		ldr	r3, [r7, #4]
 111 0058 1433     		adds	r3, r3, #20
 112 005a 1A68     		ldr	r2, [r3]
 113 005c 114B     		ldr	r3, .L2+20
 114 005e 1100     		movs	r1, r2
 115 0060 1800     		movs	r0, r3
 116 0062 FFF7FEFF 		bl	printf
  55:src/retarget.c ****     printf("pc  = 0x%x\n", stack[pc]);
 117              		.loc 1 55 0
 118 0066 7B68     		ldr	r3, [r7, #4]
 119 0068 1833     		adds	r3, r3, #24
 120 006a 1A68     		ldr	r2, [r3]
 121 006c 0E4B     		ldr	r3, .L2+24
 122 006e 1100     		movs	r1, r2
 123 0070 1800     		movs	r0, r3
 124 0072 FFF7FEFF 		bl	printf
  56:src/retarget.c ****     printf("psr = 0x%x\n", stack[psr]);
 125              		.loc 1 56 0
 126 0076 7B68     		ldr	r3, [r7, #4]
 127 0078 1C33     		adds	r3, r3, #28
 128 007a 1A68     		ldr	r2, [r3]
 129 007c 0B4B     		ldr	r3, .L2+28
 130 007e 1100     		movs	r1, r2
 131 0080 1800     		movs	r0, r3
 132 0082 FFF7FEFF 		bl	printf
  57:src/retarget.c **** }
 133              		.loc 1 57 0
 134 0086 C046     		nop
 135 0088 BD46     		mov	sp, r7
 136 008a 02B0     		add	sp, sp, #8
 137              		@ sp needed
 138 008c 80BD     		pop	{r7, pc}
 139              	.L3:
 140 008e C046     		.align	2
 141              	.L2:
 142 0090 00000000 		.word	.LC0
 143 0094 0C000000 		.word	.LC2
 144 0098 18000000 		.word	.LC4
 145 009c 24000000 		.word	.LC6
 146 00a0 30000000 		.word	.LC8
 147 00a4 3C000000 		.word	.LC10
 148 00a8 48000000 		.word	.LC12
 149 00ac 54000000 		.word	.LC14
 150              		.cfi_endproc
 151              	.LFE61:
 152              		.size	stackDump, .-stackDump
 153              		.section	.rodata
 154              		.align	2
 155              	.LC16:
ARM GAS  C:\Users\CCMA\AppData\Local\Temp\ccP3MDSH.s 			page 5


 156 0060 496E2048 		.ascii	"In Hard Fault Handler\000"
 156      61726420 
 156      4661756C 
 156      74204861 
 156      6E646C65 
 157              		.text
 158              		.align	2
 159              		.global	Hard_Fault_Handler
 160              		.code	16
 161              		.thumb_func
 162              		.type	Hard_Fault_Handler, %function
 163              	Hard_Fault_Handler:
 164              	.LFB62:
  58:src/retarget.c **** 
  59:src/retarget.c **** /**
  60:src/retarget.c ****  * @brief       Hard fault handler
  61:src/retarget.c ****  * @param[in]   stack pointer points to the dumped registers in SRAM
  62:src/retarget.c ****  * @return      None
  63:src/retarget.c ****  * @details     Replace while(1) at the end of this function with chip reset if WDT is not enabled 
  64:src/retarget.c ****  */
  65:src/retarget.c **** void Hard_Fault_Handler(uint32_t stack[])
  66:src/retarget.c **** {
 165              		.loc 1 66 0
 166              		.cfi_startproc
 167              		@ args = 0, pretend = 0, frame = 8
 168              		@ frame_needed = 1, uses_anonymous_args = 0
 169 00b0 80B5     		push	{r7, lr}
 170              	.LCFI3:
 171              		.cfi_def_cfa_offset 8
 172              		.cfi_offset 7, -8
 173              		.cfi_offset 14, -4
 174 00b2 82B0     		sub	sp, sp, #8
 175              	.LCFI4:
 176              		.cfi_def_cfa_offset 16
 177 00b4 00AF     		add	r7, sp, #0
 178              	.LCFI5:
 179              		.cfi_def_cfa_register 7
 180 00b6 7860     		str	r0, [r7, #4]
  67:src/retarget.c ****     printf("In Hard Fault Handler\n");
 181              		.loc 1 67 0
 182 00b8 044B     		ldr	r3, .L6
 183 00ba 1800     		movs	r0, r3
 184 00bc FFF7FEFF 		bl	puts
  68:src/retarget.c **** 
  69:src/retarget.c ****     stackDump(stack);
 185              		.loc 1 69 0
 186 00c0 7B68     		ldr	r3, [r7, #4]
 187 00c2 1800     		movs	r0, r3
 188 00c4 FFF79CFF 		bl	stackDump
 189              	.L5:
  70:src/retarget.c **** 
  71:src/retarget.c ****     // Replace while(1) with chip reset if WDT is not enabled for end product
  72:src/retarget.c ****     while(1);
 190              		.loc 1 72 0 discriminator 1
 191 00c8 FEE7     		b	.L5
 192              	.L7:
 193 00ca C046     		.align	2
ARM GAS  C:\Users\CCMA\AppData\Local\Temp\ccP3MDSH.s 			page 6


 194              	.L6:
 195 00cc 60000000 		.word	.LC16
 196              		.cfi_endproc
 197              	.LFE62:
 198              		.size	Hard_Fault_Handler, .-Hard_Fault_Handler
 199              		.align	2
 200              		.global	SendChar_ToUART
 201              		.code	16
 202              		.thumb_func
 203              		.type	SendChar_ToUART, %function
 204              	SendChar_ToUART:
 205              	.LFB63:
  73:src/retarget.c ****     //SYS->IPRSTC1 = SYS_IPRSTC1_CHIP_RST_Msk;
  74:src/retarget.c **** }
  75:src/retarget.c **** 
  76:src/retarget.c **** /*-------------------------------------------------------------------------------------------------
  77:src/retarget.c **** /* Routine to write a char                                                                         
  78:src/retarget.c **** /*-------------------------------------------------------------------------------------------------
  79:src/retarget.c **** 
  80:src/retarget.c **** #if defined(DEBUG_ENABLE_SEMIHOST)
  81:src/retarget.c **** /* The static buffer is used to speed up the semihost */
  82:src/retarget.c **** static char g_buf[16];
  83:src/retarget.c **** static char g_buf_len = 0;
  84:src/retarget.c **** 
  85:src/retarget.c **** # if defined(__ICCARM__)
  86:src/retarget.c **** 
  87:src/retarget.c **** 
  88:src/retarget.c **** void SH_End(void)
  89:src/retarget.c **** {
  90:src/retarget.c ****     asm("MOVS   R0,#1 \n"        //; Set return value to 1
  91:src/retarget.c ****         "BX     lr    \n"            //; Return
  92:src/retarget.c ****        );
  93:src/retarget.c **** }
  94:src/retarget.c **** 
  95:src/retarget.c **** void SH_ICE(void)
  96:src/retarget.c **** {
  97:src/retarget.c ****   asm("CMP   R2,#0   \n"
  98:src/retarget.c ****       "BEQ   SH_End  \n"
  99:src/retarget.c ****       "STR   R0,[R2] \n"       //; Save the return value to *pn32Out_R0
 100:src/retarget.c ****      );
 101:src/retarget.c **** }
 102:src/retarget.c **** 
 103:src/retarget.c **** /**
 104:src/retarget.c ****  *
 105:src/retarget.c ****  * @brief      The function to process semihosted command
 106:src/retarget.c ****  * @param[in]  n32In_R0  : semihost register 0
 107:src/retarget.c ****  * @param[in]  n32In_R1  : semihost register 1
 108:src/retarget.c ****  * @param[out] pn32Out_R0: semihost register 0
 109:src/retarget.c ****  * @retval     0: No ICE debug
 110:src/retarget.c ****  * @retval     1: ICE debug
 111:src/retarget.c ****  *
 112:src/retarget.c ****  */
 113:src/retarget.c **** int32_t SH_DoCommand(int32_t n32In_R0, int32_t n32In_R1, int32_t *pn32Out_R0)
 114:src/retarget.c **** {
 115:src/retarget.c ****     asm("BKPT   0xAB   \n"       //; This instruction will cause ICE trap or system HardFault
 116:src/retarget.c ****         "B      SH_ICE \n"
 117:src/retarget.c ****         "SH_HardFault: \n"       //; Captured by HardFault
ARM GAS  C:\Users\CCMA\AppData\Local\Temp\ccP3MDSH.s 			page 7


 118:src/retarget.c ****         "MOVS   R0,#0  \n"       //; Set return value to 0
 119:src/retarget.c ****         "BX     lr     \n"       //; Return
 120:src/retarget.c ****         );
 121:src/retarget.c **** 
 122:src/retarget.c ****     return 1;                    //; Return 1 when it is trap by ICE
 123:src/retarget.c **** }
 124:src/retarget.c **** 
 125:src/retarget.c **** /**
 126:src/retarget.c ****  * @brief       Get LR value and branch to Hard_Fault_Handler function
 127:src/retarget.c ****  * @param       None
 128:src/retarget.c ****  * @return      None
 129:src/retarget.c ****  * @details     This function is use to get LR value and branch to Hard_Fault_Handler function.
 130:src/retarget.c ****  */
 131:src/retarget.c **** void Get_LR_and_Branch(void)
 132:src/retarget.c **** {
 133:src/retarget.c ****     asm("MOV     R1, LR               \n" //; LR current value
 134:src/retarget.c ****         "B       Hard_Fault_Handler   \n"
 135:src/retarget.c ****        );
 136:src/retarget.c **** }
 137:src/retarget.c **** 
 138:src/retarget.c **** /**
 139:src/retarget.c ****  * @brief       Get MSP value and branch to Get_LR_and_Branch function
 140:src/retarget.c ****  * @param       None
 141:src/retarget.c ****  * @return      None
 142:src/retarget.c ****  * @details     This function is use to get stack pointer value and branch to Get_LR_and_Branch fun
 143:src/retarget.c ****  */
 144:src/retarget.c **** void Stack_Use_MSP(void)
 145:src/retarget.c **** {
 146:src/retarget.c ****     asm("MRS     R0, MSP           \n" //; read MSP
 147:src/retarget.c ****         "B       Get_LR_and_Branch \n"
 148:src/retarget.c ****        );
 149:src/retarget.c **** }
 150:src/retarget.c **** 
 151:src/retarget.c **** /**
 152:src/retarget.c ****  * @brief       Get stack pointer value and branch to Get_LR_and_Branch function
 153:src/retarget.c ****  * @param       None
 154:src/retarget.c ****  * @return      None
 155:src/retarget.c ****  * @details     This function is use to get stack pointer value and branch to Get_LR_and_Branch fun
 156:src/retarget.c ****  */
 157:src/retarget.c **** void HardFault_Handler_Ret(void)
 158:src/retarget.c **** {
 159:src/retarget.c ****     asm("MOVS    r0, #4                        \n"
 160:src/retarget.c ****         "MOV     r1, LR                        \n"
 161:src/retarget.c ****         "TST     r0, r1                        \n" //; check LR bit 2
 162:src/retarget.c ****         "BEQ     Stack_Use_MSP                 \n" //; stack use MSP
 163:src/retarget.c ****         "MRS     R0, PSP                       \n" //; stack use PSP, read PSP
 164:src/retarget.c ****         "B       Get_LR_and_Branch             \n"
 165:src/retarget.c ****        );
 166:src/retarget.c **** }
 167:src/retarget.c **** 
 168:src/retarget.c **** /**
 169:src/retarget.c ****  * @brief    This function is implemented to support semihost
 170:src/retarget.c ****  * @param    None
 171:src/retarget.c ****  * @returns  None
 172:src/retarget.c ****  * @details  This function is implement to support semihost message print.
 173:src/retarget.c ****  *
 174:src/retarget.c ****  */
ARM GAS  C:\Users\CCMA\AppData\Local\Temp\ccP3MDSH.s 			page 8


 175:src/retarget.c **** void SP_Read_Ready(void)
 176:src/retarget.c **** {
 177:src/retarget.c ****     asm("LDR     R1, [R0, #24] \n"        //; Get previous PC
 178:src/retarget.c ****         "LDRH    R3, [R1]      \n"        //; Get instruction
 179:src/retarget.c ****         "LDR     R2, [pc, #8]  \n"        //; The special BKPT instruction
 180:src/retarget.c ****         "CMP     R3, R2        \n"        //; Test if the instruction at previous PC is BKPT
 181:src/retarget.c ****         "BNE     HardFault_Handler_Ret \n" //; Not BKPT
 182:src/retarget.c ****         "ADDS    R1, #4        \n"        //; Skip BKPT and next line
 183:src/retarget.c ****         "STR     R1, [R0, #24] \n"        //; Save previous PC
 184:src/retarget.c ****         "BX      lr            \n"        //; Return
 185:src/retarget.c ****         "DCD     0xBEAB        \n"        //; BKPT instruction code
 186:src/retarget.c ****         "B       HardFault_Handler_Ret \n"
 187:src/retarget.c ****        );
 188:src/retarget.c **** }
 189:src/retarget.c **** 
 190:src/retarget.c **** /**
 191:src/retarget.c ****  * @brief       Get stack pointer value and branch to Get_LR_and_Branch function
 192:src/retarget.c ****  * @param       None
 193:src/retarget.c ****  * @return      None
 194:src/retarget.c ****  * @details     This function is use to get stack pointer value and branch to Get_LR_and_Branch fun
 195:src/retarget.c ****  */
 196:src/retarget.c **** void SP_is_PSP(void)
 197:src/retarget.c **** {
 198:src/retarget.c ****     asm(
 199:src/retarget.c ****         "MRS     R0, PSP       \n"      //; stack use PSP, read PSP
 200:src/retarget.c ****         "B       Get_LR_and_Branch    \n"
 201:src/retarget.c ****     
 202:src/retarget.c ****        );
 203:src/retarget.c **** }
 204:src/retarget.c **** 
 205:src/retarget.c **** /**
 206:src/retarget.c ****  * @brief    This HardFault handler is implemented to support semihost
 207:src/retarget.c ****  *
 208:src/retarget.c ****  * @param    None
 209:src/retarget.c ****  *
 210:src/retarget.c ****  * @returns  None
 211:src/retarget.c ****  *
 212:src/retarget.c ****  * @details  This function is implement to support semihost message print.
 213:src/retarget.c ****  *
 214:src/retarget.c ****  */
 215:src/retarget.c **** void HardFault_Handler (void)
 216:src/retarget.c **** {
 217:src/retarget.c ****     asm("MOV     R0, lr        \n"
 218:src/retarget.c ****         "LSLS    R0, #29       \n"        //; Check bit 2
 219:src/retarget.c ****         "BMI     SP_is_PSP     \n"        //; previous stack is PSP
 220:src/retarget.c ****         "MRS     R0, MSP       \n"        //; previous stack is MSP, read MSP
 221:src/retarget.c ****         "B       SP_Read_Ready \n"
 222:src/retarget.c ****        );
 223:src/retarget.c **** 
 224:src/retarget.c ****     while(1);
 225:src/retarget.c **** }
 226:src/retarget.c **** 
 227:src/retarget.c **** 
 228:src/retarget.c **** # else // defined(__ICCARM__)
 229:src/retarget.c **** 
 230:src/retarget.c **** 
 231:src/retarget.c **** /**
ARM GAS  C:\Users\CCMA\AppData\Local\Temp\ccP3MDSH.s 			page 9


 232:src/retarget.c ****  * @brief    This HardFault handler is implemented to support semihost
 233:src/retarget.c ****  * @param    None
 234:src/retarget.c ****  * @returns  None
 235:src/retarget.c ****  * @details  This function is implement to support semihost message print.
 236:src/retarget.c ****  *
 237:src/retarget.c ****  */
 238:src/retarget.c **** __asm int32_t HardFault_Handler(void)
 239:src/retarget.c **** {
 240:src/retarget.c ****     MOV     R0, LR
 241:src/retarget.c ****     LSLS    R0, #29               //; Check bit 2
 242:src/retarget.c ****     BMI     SP_is_PSP             //; previous stack is PSP
 243:src/retarget.c ****     MRS     R0, MSP               //; previous stack is MSP, read MSP
 244:src/retarget.c ****     B       SP_Read_Ready
 245:src/retarget.c **** SP_is_PSP
 246:src/retarget.c ****     MRS     R0, PSP               //; Read PSP
 247:src/retarget.c **** 
 248:src/retarget.c **** SP_Read_Ready
 249:src/retarget.c ****     LDR     R1, [R0, #24]         //; Get previous PC
 250:src/retarget.c ****     LDRH    R3, [R1]              //; Get instruction
 251:src/retarget.c ****     LDR     R2, =0xBEAB           //; The special BKPT instruction
 252:src/retarget.c ****     CMP     R3, R2                //; Test if the instruction at previous PC is BKPT
 253:src/retarget.c ****     BNE     HardFault_Handler_Ret //; Not BKPT
 254:src/retarget.c **** 
 255:src/retarget.c ****     ADDS    R1, #4                //; Skip BKPT and next line
 256:src/retarget.c ****     STR     R1, [R0, #24]         //; Save previous PC
 257:src/retarget.c **** 
 258:src/retarget.c ****     BX      LR                    //; Return
 259:src/retarget.c **** HardFault_Handler_Ret
 260:src/retarget.c **** 
 261:src/retarget.c ****     /* TODO: Implement your own hard fault handler here. */
 262:src/retarget.c ****     MOVS    r0, #4
 263:src/retarget.c ****     MOV     r1, LR
 264:src/retarget.c ****     TST     r0, r1                          //; check LR bit 2  
 265:src/retarget.c ****     BEQ     Stack_Use_MSP                   //; stack use MSP
 266:src/retarget.c ****     MRS     R0, PSP ;stack use PSP          //; stack use PSP, read PSP
 267:src/retarget.c ****     B       Get_LR_and_Branch
 268:src/retarget.c **** Stack_Use_MSP
 269:src/retarget.c ****     MRS     R0, MSP ; stack use MSP         //; read MSP
 270:src/retarget.c **** Get_LR_and_Branch
 271:src/retarget.c ****     MOV     R1, LR ; LR current value       //; LR current value       
 272:src/retarget.c ****     LDR     R2,=__cpp(Hard_Fault_Handler)   //; branch to Hard_Fault_Handler 
 273:src/retarget.c ****     BX      R2
 274:src/retarget.c **** 
 275:src/retarget.c ****     B       .
 276:src/retarget.c **** 
 277:src/retarget.c ****                  ALIGN
 278:src/retarget.c **** }
 279:src/retarget.c **** 
 280:src/retarget.c **** /**
 281:src/retarget.c ****  *
 282:src/retarget.c ****  * @brief      The function to process semihosted command
 283:src/retarget.c ****  * @param[in]  n32In_R0  : semihost register 0
 284:src/retarget.c ****  * @param[in]  n32In_R1  : semihost register 1
 285:src/retarget.c ****  * @param[out] pn32Out_R0: semihost register 0
 286:src/retarget.c ****  * @retval     0: No ICE debug
 287:src/retarget.c ****  * @retval     1: ICE debug
 288:src/retarget.c ****  *
ARM GAS  C:\Users\CCMA\AppData\Local\Temp\ccP3MDSH.s 			page 10


 289:src/retarget.c ****  */
 290:src/retarget.c **** __asm int32_t SH_DoCommand(int32_t n32In_R0, int32_t n32In_R1, int32_t *pn32Out_R0)
 291:src/retarget.c **** {
 292:src/retarget.c ****     BKPT   0xAB          //; Wait ICE or HardFault
 293:src/retarget.c ****     //; ICE will step over BKPT directly
 294:src/retarget.c ****     //; HardFault will step BKPT and the next line
 295:src/retarget.c ****     B      SH_ICE
 296:src/retarget.c **** 
 297:src/retarget.c **** SH_HardFault             //; Captured by HardFault
 298:src/retarget.c ****     MOVS   R0, #0        //; Set return value to 0
 299:src/retarget.c ****     BX     lr            //; Return
 300:src/retarget.c **** 
 301:src/retarget.c **** SH_ICE                   //; Captured by ICE
 302:src/retarget.c ****     //; Save return value
 303:src/retarget.c ****     CMP    R2, #0
 304:src/retarget.c ****     BEQ    SH_End
 305:src/retarget.c ****     STR    R0, [R2]      //; Save the return value to *pn32Out_R0
 306:src/retarget.c **** 
 307:src/retarget.c **** SH_End
 308:src/retarget.c ****     MOVS   R0, #1        //; Set return value to 1
 309:src/retarget.c ****     BX     lr            //; Return
 310:src/retarget.c **** }
 311:src/retarget.c **** 
 312:src/retarget.c **** # endif 
 313:src/retarget.c ****  
 314:src/retarget.c **** 
 315:src/retarget.c **** #else // defined(DEBUG_ENABLE_SEMIHOST)
 316:src/retarget.c **** 
 317:src/retarget.c **** # if defined(__ICCARM__)
 318:src/retarget.c **** 
 319:src/retarget.c **** void Get_LR_and_Branch(void)
 320:src/retarget.c **** {
 321:src/retarget.c ****     asm("MOV     R1, LR                  \n" //; LR current value
 322:src/retarget.c ****         "B       Hard_Fault_Handler      \n"
 323:src/retarget.c ****        );
 324:src/retarget.c **** }
 325:src/retarget.c **** 
 326:src/retarget.c **** void Stack_Use_MSP(void)
 327:src/retarget.c **** {
 328:src/retarget.c ****     asm("MRS     R0, MSP           \n" //; read MSP
 329:src/retarget.c ****         "B       Get_LR_and_Branch \n"
 330:src/retarget.c ****        );
 331:src/retarget.c **** }
 332:src/retarget.c **** 
 333:src/retarget.c **** /**
 334:src/retarget.c ****  * @brief    This HardFault handler is implemented to show r0, r1, r2, r3, r12, lr, pc, psr
 335:src/retarget.c ****  *
 336:src/retarget.c ****  * @param    None
 337:src/retarget.c ****  *
 338:src/retarget.c ****  * @returns  None
 339:src/retarget.c ****  *
 340:src/retarget.c ****  * @details  This function is implement to print r0, r1, r2, r3, r12, lr, pc, psr.
 341:src/retarget.c ****  *
 342:src/retarget.c ****  */
 343:src/retarget.c **** void HardFault_Handler(void)
 344:src/retarget.c **** {
 345:src/retarget.c ****     asm("MOVS    r0, #4                        \n"
ARM GAS  C:\Users\CCMA\AppData\Local\Temp\ccP3MDSH.s 			page 11


 346:src/retarget.c ****         "MOV     r1, LR                        \n"
 347:src/retarget.c ****         "TST     r0, r1                        \n" //; check LR bit 2
 348:src/retarget.c ****         "BEQ     Stack_Use_MSP                 \n" //; stack use MSP
 349:src/retarget.c ****         "MRS     R0, PSP                       \n" //; stack use PSP, read PSP
 350:src/retarget.c ****         "B       Get_LR_and_Branch             \n"
 351:src/retarget.c ****        );
 352:src/retarget.c **** 
 353:src/retarget.c ****     while(1);
 354:src/retarget.c **** }
 355:src/retarget.c **** 
 356:src/retarget.c **** # else // defined(__ICCARM__)
 357:src/retarget.c **** 
 358:src/retarget.c **** # if 0 //(__ARMCC_VERSION < 6040000)
 359:src/retarget.c **** 
 360:src/retarget.c **** /**
 361:src/retarget.c ****  * @brief    This HardFault handler is implemented to show r0, r1, r2, r3, r12, lr, pc, psr
 362:src/retarget.c ****  *
 363:src/retarget.c ****  * @param    None
 364:src/retarget.c ****  *
 365:src/retarget.c ****  * @return   None
 366:src/retarget.c ****  *
 367:src/retarget.c ****  * @details  The function extracts the location of stack frame and passes it to Hard_Fault_Handler 
 368:src/retarget.c ****  *
 369:src/retarget.c ****  */
 370:src/retarget.c **** __asm int32_t HardFault_Handler(void)
 371:src/retarget.c **** {
 372:src/retarget.c ****     MOVS    r0, #4  
 373:src/retarget.c ****     MOV     r1, LR
 374:src/retarget.c ****     TST     r0, r1          //; check LR bit 2                 
 375:src/retarget.c ****     BEQ     Stack_Use_MSP   //; stack use MSP
 376:src/retarget.c ****     MRS     R0, PSP         //; stack use PSP, read PSP
 377:src/retarget.c ****     B       Get_LR_and_Branch
 378:src/retarget.c **** Stack_Use_MSP
 379:src/retarget.c ****     MRS     R0, MSP         //; read MSP
 380:src/retarget.c **** Get_LR_and_Branch
 381:src/retarget.c ****     MOV     R1, LR          //; LR current value
 382:src/retarget.c ****     LDR     R2,=__cpp(Hard_Fault_Handler) //; branch to Hard_Fault_Handler 
 383:src/retarget.c ****     BX      R2
 384:src/retarget.c **** }
 385:src/retarget.c **** # endif 
 386:src/retarget.c **** # endif // defined(__ICCARM__)
 387:src/retarget.c **** 
 388:src/retarget.c **** #endif // defined(DEBUG_ENABLE_SEMIHOST)
 389:src/retarget.c **** 
 390:src/retarget.c **** 
 391:src/retarget.c **** /**
 392:src/retarget.c ****  * @brief    Routine to send a char
 393:src/retarget.c ****  *
 394:src/retarget.c ****  * @param[in] ch  A character data writes to debug port
 395:src/retarget.c ****  *
 396:src/retarget.c ****  * @returns  Send value from UART debug port
 397:src/retarget.c ****  *
 398:src/retarget.c ****  * @details  Send a target char to UART debug port .
 399:src/retarget.c ****  */
 400:src/retarget.c **** #ifndef NONBLOCK_PRINTF
 401:src/retarget.c **** void SendChar_ToUART(int ch)
 402:src/retarget.c **** {
ARM GAS  C:\Users\CCMA\AppData\Local\Temp\ccP3MDSH.s 			page 12


 206              		.loc 1 402 0
 207              		.cfi_startproc
 208              		@ args = 0, pretend = 0, frame = 8
 209              		@ frame_needed = 1, uses_anonymous_args = 0
 210 00d0 80B5     		push	{r7, lr}
 211              	.LCFI6:
 212              		.cfi_def_cfa_offset 8
 213              		.cfi_offset 7, -8
 214              		.cfi_offset 14, -4
 215 00d2 82B0     		sub	sp, sp, #8
 216              	.LCFI7:
 217              		.cfi_def_cfa_offset 16
 218 00d4 00AF     		add	r7, sp, #0
 219              	.LCFI8:
 220              		.cfi_def_cfa_register 7
 221 00d6 7860     		str	r0, [r7, #4]
 403:src/retarget.c **** 
 404:src/retarget.c ****     while(DEBUG_PORT->FIFOSTS & UART_FIFOSTS_TXFULL_Msk);
 222              		.loc 1 404 0
 223 00d8 C046     		nop
 224              	.L9:
 225              		.loc 1 404 0 is_stmt 0 discriminator 1
 226 00da 0E4B     		ldr	r3, .L13
 227 00dc 9A69     		ldr	r2, [r3, #24]
 228 00de 8023     		movs	r3, #128
 229 00e0 1B04     		lsls	r3, r3, #16
 230 00e2 1340     		ands	r3, r2
 231 00e4 002B     		cmp	r3, #0
 232 00e6 F8D1     		bne	.L9
 405:src/retarget.c ****     DEBUG_PORT->DAT = ch;
 233              		.loc 1 405 0 is_stmt 1
 234 00e8 0A4B     		ldr	r3, .L13
 235 00ea 7A68     		ldr	r2, [r7, #4]
 236 00ec 1A60     		str	r2, [r3]
 406:src/retarget.c ****     if(ch == '\n')
 237              		.loc 1 406 0
 238 00ee 7B68     		ldr	r3, [r7, #4]
 239 00f0 0A2B     		cmp	r3, #10
 240 00f2 0AD1     		bne	.L12
 407:src/retarget.c ****     {
 408:src/retarget.c ****         while(DEBUG_PORT->FIFOSTS & UART_FIFOSTS_TXFULL_Msk);
 241              		.loc 1 408 0
 242 00f4 C046     		nop
 243              	.L11:
 244              		.loc 1 408 0 is_stmt 0 discriminator 1
 245 00f6 074B     		ldr	r3, .L13
 246 00f8 9A69     		ldr	r2, [r3, #24]
 247 00fa 8023     		movs	r3, #128
 248 00fc 1B04     		lsls	r3, r3, #16
 249 00fe 1340     		ands	r3, r2
 250 0100 002B     		cmp	r3, #0
 251 0102 F8D1     		bne	.L11
 409:src/retarget.c ****         DEBUG_PORT->DAT = '\r';
 252              		.loc 1 409 0 is_stmt 1
 253 0104 034B     		ldr	r3, .L13
 254 0106 0D22     		movs	r2, #13
 255 0108 1A60     		str	r2, [r3]
ARM GAS  C:\Users\CCMA\AppData\Local\Temp\ccP3MDSH.s 			page 13


 256              	.L12:
 410:src/retarget.c ****     }
 411:src/retarget.c **** }
 257              		.loc 1 411 0
 258 010a C046     		nop
 259 010c BD46     		mov	sp, r7
 260 010e 02B0     		add	sp, sp, #8
 261              		@ sp needed
 262 0110 80BD     		pop	{r7, pc}
 263              	.L14:
 264 0112 C046     		.align	2
 265              	.L13:
 266 0114 00000750 		.word	1342636032
 267              		.cfi_endproc
 268              	.LFE63:
 269              		.size	SendChar_ToUART, .-SendChar_ToUART
 270              		.align	2
 271              		.global	_write
 272              		.code	16
 273              		.thumb_func
 274              		.type	_write, %function
 275              	_write:
 276              	.LFB64:
 412:src/retarget.c **** 
 413:src/retarget.c **** #else
 414:src/retarget.c **** /* Non-block implement of send char */
 415:src/retarget.c **** # define BUF_SIZE    512
 416:src/retarget.c **** void SendChar_ToUART(int ch)
 417:src/retarget.c **** {
 418:src/retarget.c ****     static uint8_t u8Buf[BUF_SIZE] = {0};
 419:src/retarget.c ****     static int32_t i32Head = 0;
 420:src/retarget.c ****     static int32_t i32Tail = 0;
 421:src/retarget.c ****     int32_t i32Tmp;
 422:src/retarget.c ****     
 423:src/retarget.c ****     /* Only flush the data in buffer to UART when ch == 0 */
 424:src/retarget.c ****     if(ch)
 425:src/retarget.c ****     {
 426:src/retarget.c ****         // Push char
 427:src/retarget.c ****         i32Tmp = i32Head+1;
 428:src/retarget.c ****         if(i32Tmp > BUF_SIZE) i32Tmp = 0;
 429:src/retarget.c ****         if(i32Tmp != i32Tail)
 430:src/retarget.c ****         {
 431:src/retarget.c ****             u8Buf[i32Head] = ch;
 432:src/retarget.c ****             i32Head = i32Tmp;
 433:src/retarget.c ****         }
 434:src/retarget.c ****         
 435:src/retarget.c ****         if(ch == '\n')
 436:src/retarget.c ****         {
 437:src/retarget.c ****             i32Tmp = i32Head+1;
 438:src/retarget.c ****             if(i32Tmp > BUF_SIZE) i32Tmp = 0;
 439:src/retarget.c ****             if(i32Tmp != i32Tail)
 440:src/retarget.c ****             {
 441:src/retarget.c ****                 u8Buf[i32Head] = '\r';
 442:src/retarget.c ****                 i32Head = i32Tmp;
 443:src/retarget.c ****             }
 444:src/retarget.c ****         }
 445:src/retarget.c ****     }
ARM GAS  C:\Users\CCMA\AppData\Local\Temp\ccP3MDSH.s 			page 14


 446:src/retarget.c ****     else
 447:src/retarget.c ****     {
 448:src/retarget.c ****         if(i32Tail == i32Head)
 449:src/retarget.c ****             return;
 450:src/retarget.c ****     }
 451:src/retarget.c ****     
 452:src/retarget.c ****     // pop char
 453:src/retarget.c ****     do
 454:src/retarget.c ****     {
 455:src/retarget.c ****         i32Tmp = i32Tail + 1;
 456:src/retarget.c ****         if(i32Tmp > BUF_SIZE) i32Tmp = 0;
 457:src/retarget.c ****         
 458:src/retarget.c ****         if((DEBUG_PORT->FSR & UART_FSR_TX_FULL_Msk) == 0)
 459:src/retarget.c ****         {
 460:src/retarget.c ****             DEBUG_PORT->DATA = u8Buf[i32Tail];
 461:src/retarget.c ****             i32Tail = i32Tmp;
 462:src/retarget.c ****         }
 463:src/retarget.c ****         else
 464:src/retarget.c ****             break; // FIFO full
 465:src/retarget.c ****     }while(i32Tail != i32Head);
 466:src/retarget.c **** }
 467:src/retarget.c **** #endif
 468:src/retarget.c **** 
 469:src/retarget.c **** #if 1   //terry
 470:src/retarget.c **** int _write(int file, char *ptr, int len)
 471:src/retarget.c **** {
 277              		.loc 1 471 0
 278              		.cfi_startproc
 279              		@ args = 0, pretend = 0, frame = 24
 280              		@ frame_needed = 1, uses_anonymous_args = 0
 281 0118 80B5     		push	{r7, lr}
 282              	.LCFI9:
 283              		.cfi_def_cfa_offset 8
 284              		.cfi_offset 7, -8
 285              		.cfi_offset 14, -4
 286 011a 86B0     		sub	sp, sp, #24
 287              	.LCFI10:
 288              		.cfi_def_cfa_offset 32
 289 011c 00AF     		add	r7, sp, #0
 290              	.LCFI11:
 291              		.cfi_def_cfa_register 7
 292 011e F860     		str	r0, [r7, #12]
 293 0120 B960     		str	r1, [r7, #8]
 294 0122 7A60     		str	r2, [r7, #4]
 472:src/retarget.c ****     int i;
 473:src/retarget.c ****     file = file;
 474:src/retarget.c ****     for (i = 0; i < len; i++)
 295              		.loc 1 474 0
 296 0124 0023     		movs	r3, #0
 297 0126 7B61     		str	r3, [r7, #20]
 298 0128 09E0     		b	.L16
 299              	.L17:
 475:src/retarget.c ****     {
 476:src/retarget.c ****         SendChar_ToUART(*ptr++);
 300              		.loc 1 476 0 discriminator 3
 301 012a BB68     		ldr	r3, [r7, #8]
 302 012c 5A1C     		adds	r2, r3, #1
ARM GAS  C:\Users\CCMA\AppData\Local\Temp\ccP3MDSH.s 			page 15


 303 012e BA60     		str	r2, [r7, #8]
 304 0130 1B78     		ldrb	r3, [r3]
 305 0132 1800     		movs	r0, r3
 306 0134 FFF7FEFF 		bl	SendChar_ToUART
 474:src/retarget.c ****     {
 307              		.loc 1 474 0 discriminator 3
 308 0138 7B69     		ldr	r3, [r7, #20]
 309 013a 0133     		adds	r3, r3, #1
 310 013c 7B61     		str	r3, [r7, #20]
 311              	.L16:
 474:src/retarget.c ****     {
 312              		.loc 1 474 0 is_stmt 0 discriminator 1
 313 013e 7A69     		ldr	r2, [r7, #20]
 314 0140 7B68     		ldr	r3, [r7, #4]
 315 0142 9A42     		cmp	r2, r3
 316 0144 F1DB     		blt	.L17
 477:src/retarget.c ****     }
 478:src/retarget.c ****     return len;
 317              		.loc 1 478 0 is_stmt 1
 318 0146 7B68     		ldr	r3, [r7, #4]
 479:src/retarget.c **** }
 319              		.loc 1 479 0
 320 0148 1800     		movs	r0, r3
 321 014a BD46     		mov	sp, r7
 322 014c 06B0     		add	sp, sp, #24
 323              		@ sp needed
 324 014e 80BD     		pop	{r7, pc}
 325              		.cfi_endproc
 326              	.LFE64:
 327              		.size	_write, .-_write
 328              		.align	2
 329              		.global	_read
 330              		.code	16
 331              		.thumb_func
 332              		.type	_read, %function
 333              	_read:
 334              	.LFB65:
 480:src/retarget.c **** 
 481:src/retarget.c **** int _read(int file, char *ptr, int len) 
 482:src/retarget.c **** {
 335              		.loc 1 482 0
 336              		.cfi_startproc
 337              		@ args = 0, pretend = 0, frame = 24
 338              		@ frame_needed = 1, uses_anonymous_args = 0
 339 0150 80B5     		push	{r7, lr}
 340              	.LCFI12:
 341              		.cfi_def_cfa_offset 8
 342              		.cfi_offset 7, -8
 343              		.cfi_offset 14, -4
 344 0152 86B0     		sub	sp, sp, #24
 345              	.LCFI13:
 346              		.cfi_def_cfa_offset 32
 347 0154 00AF     		add	r7, sp, #0
 348              	.LCFI14:
 349              		.cfi_def_cfa_register 7
 350 0156 F860     		str	r0, [r7, #12]
 351 0158 B960     		str	r1, [r7, #8]
ARM GAS  C:\Users\CCMA\AppData\Local\Temp\ccP3MDSH.s 			page 16


 352 015a 7A60     		str	r2, [r7, #4]
 483:src/retarget.c ****     int i;
 484:src/retarget.c **** 
 485:src/retarget.c ****     if(len == 0)
 353              		.loc 1 485 0
 354 015c 7B68     		ldr	r3, [r7, #4]
 355 015e 0BB9     		cbnz	r3, .L28
 486:src/retarget.c ****         return 0;
 356              		.loc 1 486 0
 357 0160 0023     		movs	r3, #0
 358 0162 28E0     		b	.L21
 359              	.L28:
 487:src/retarget.c **** 
 488:src/retarget.c ****     while((DEBUG_PORT->FIFOSTS & UART_FIFOSTS_RXEMPTY_Msk) != 0);
 360              		.loc 1 488 0
 361 0164 C046     		nop
 362              	.L22:
 363              		.loc 1 488 0 is_stmt 0 discriminator 1
 364 0166 164B     		ldr	r3, .L29
 365 0168 9B69     		ldr	r3, [r3, #24]
 366 016a 44F20002 		movw	r2, #16384
 367 016e 1340     		ands	r3, r2
 368 0170 002B     		cmp	r3, #0
 369 0172 F8D1     		bne	.L22
 489:src/retarget.c ****     *ptr++ = (DEBUG_PORT->DAT);
 370              		.loc 1 489 0 is_stmt 1
 371 0174 BB68     		ldr	r3, [r7, #8]
 372 0176 5A1C     		adds	r2, r3, #1
 373 0178 BA60     		str	r2, [r7, #8]
 374 017a 114A     		ldr	r2, .L29
 375 017c 1268     		ldr	r2, [r2]
 376 017e D2B2     		uxtb	r2, r2
 377 0180 1A70     		strb	r2, [r3]
 490:src/retarget.c **** 
 491:src/retarget.c ****     for(i = 1; i < len; i++) 
 378              		.loc 1 491 0
 379 0182 0123     		movs	r3, #1
 380 0184 7B61     		str	r3, [r7, #20]
 381 0186 0FE0     		b	.L23
 382              	.L26:
 492:src/retarget.c ****     {
 493:src/retarget.c ****         if((DEBUG_PORT->FIFOSTS & UART_FIFOSTS_RXEMPTY_Msk) != 0) {
 383              		.loc 1 493 0
 384 0188 0D4B     		ldr	r3, .L29
 385 018a 9B69     		ldr	r3, [r3, #24]
 386 018c 44F20002 		movw	r2, #16384
 387 0190 1340     		ands	r3, r2
 388 0192 73B9     		cbnz	r3, .L27
 494:src/retarget.c ****             break;
 495:src/retarget.c ****         }
 496:src/retarget.c ****         *ptr++ = (DEBUG_PORT->DAT);
 389              		.loc 1 496 0 discriminator 2
 390 0194 BB68     		ldr	r3, [r7, #8]
 391 0196 5A1C     		adds	r2, r3, #1
 392 0198 BA60     		str	r2, [r7, #8]
 393 019a 094A     		ldr	r2, .L29
 394 019c 1268     		ldr	r2, [r2]
ARM GAS  C:\Users\CCMA\AppData\Local\Temp\ccP3MDSH.s 			page 17


 395 019e D2B2     		uxtb	r2, r2
 396 01a0 1A70     		strb	r2, [r3]
 491:src/retarget.c ****     {
 397              		.loc 1 491 0 discriminator 2
 398 01a2 7B69     		ldr	r3, [r7, #20]
 399 01a4 0133     		adds	r3, r3, #1
 400 01a6 7B61     		str	r3, [r7, #20]
 401              	.L23:
 491:src/retarget.c ****     {
 402              		.loc 1 491 0 is_stmt 0 discriminator 1
 403 01a8 7A69     		ldr	r2, [r7, #20]
 404 01aa 7B68     		ldr	r3, [r7, #4]
 405 01ac 9A42     		cmp	r2, r3
 406 01ae EBDB     		blt	.L26
 407 01b0 00E0     		b	.L25
 408              	.L27:
 494:src/retarget.c ****             break;
 409              		.loc 1 494 0 is_stmt 1
 410 01b2 C046     		nop
 411              	.L25:
 497:src/retarget.c ****     }
 498:src/retarget.c ****     return i;
 412              		.loc 1 498 0
 413 01b4 7B69     		ldr	r3, [r7, #20]
 414              	.L21:
 499:src/retarget.c **** 
 500:src/retarget.c ****  /*    while(1)
 501:src/retarget.c ****     {
 502:src/retarget.c ****         if((DEBUG_PORT->FIFOSTS & UART_FIFOSTS_RXEMPTY_Msk) == 0)
 503:src/retarget.c ****         {
 504:src/retarget.c ****             return (DEBUG_PORT->DAT);
 505:src/retarget.c ****         }
 506:src/retarget.c ****     }     */
 507:src/retarget.c **** }
 415              		.loc 1 507 0
 416 01b6 1800     		movs	r0, r3
 417 01b8 BD46     		mov	sp, r7
 418 01ba 06B0     		add	sp, sp, #24
 419              		@ sp needed
 420 01bc 80BD     		pop	{r7, pc}
 421              	.L30:
 422 01be C046     		.align	2
 423              	.L29:
 424 01c0 00000750 		.word	1342636032
 425              		.cfi_endproc
 426              	.LFE65:
 427              		.size	_read, .-_read
 428              		.align	2
 429              		.global	SendChar
 430              		.code	16
 431              		.thumb_func
 432              		.type	SendChar, %function
 433              	SendChar:
 434              	.LFB66:
 508:src/retarget.c **** #endif
 509:src/retarget.c **** 
 510:src/retarget.c **** /**
ARM GAS  C:\Users\CCMA\AppData\Local\Temp\ccP3MDSH.s 			page 18


 511:src/retarget.c ****  * @brief    Routine to send a char
 512:src/retarget.c ****  *
 513:src/retarget.c ****  * @param[in] ch A character data writes to debug port
 514:src/retarget.c ****  *
 515:src/retarget.c ****  * @returns  Send value from UART debug port or semihost
 516:src/retarget.c ****  *
 517:src/retarget.c ****  * @details  Send a target char to UART debug port or semihost.
 518:src/retarget.c ****  */
 519:src/retarget.c **** void SendChar(int ch)
 520:src/retarget.c **** {
 435              		.loc 1 520 0
 436              		.cfi_startproc
 437              		@ args = 0, pretend = 0, frame = 8
 438              		@ frame_needed = 1, uses_anonymous_args = 0
 439 01c4 80B5     		push	{r7, lr}
 440              	.LCFI15:
 441              		.cfi_def_cfa_offset 8
 442              		.cfi_offset 7, -8
 443              		.cfi_offset 14, -4
 444 01c6 82B0     		sub	sp, sp, #8
 445              	.LCFI16:
 446              		.cfi_def_cfa_offset 16
 447 01c8 00AF     		add	r7, sp, #0
 448              	.LCFI17:
 449              		.cfi_def_cfa_register 7
 450 01ca 7860     		str	r0, [r7, #4]
 521:src/retarget.c **** #if defined(DEBUG_ENABLE_SEMIHOST)
 522:src/retarget.c ****     g_buf[g_buf_len++] = ch;
 523:src/retarget.c ****     g_buf[g_buf_len] = '\0';
 524:src/retarget.c ****     if(g_buf_len + 1 >= sizeof(g_buf) || ch == '\n' || ch == '\0')
 525:src/retarget.c ****     {
 526:src/retarget.c ****         /* Send the char */
 527:src/retarget.c ****         if(SH_DoCommand(0x04, (int)g_buf, NULL) != 0)
 528:src/retarget.c ****         {
 529:src/retarget.c ****             g_buf_len = 0;
 530:src/retarget.c ****             return;
 531:src/retarget.c ****         }
 532:src/retarget.c ****         else
 533:src/retarget.c ****         {
 534:src/retarget.c ****             int i;
 535:src/retarget.c **** 
 536:src/retarget.c ****             for(i = 0; i < g_buf_len; i++)
 537:src/retarget.c ****                 SendChar_ToUART(g_buf[i]);
 538:src/retarget.c ****             g_buf_len = 0;
 539:src/retarget.c ****         }
 540:src/retarget.c ****     }
 541:src/retarget.c **** #else
 542:src/retarget.c ****     SendChar_ToUART(ch);
 451              		.loc 1 542 0
 452 01cc 7B68     		ldr	r3, [r7, #4]
 453 01ce 1800     		movs	r0, r3
 454 01d0 FFF7FEFF 		bl	SendChar_ToUART
 543:src/retarget.c **** #endif
 544:src/retarget.c **** }
 455              		.loc 1 544 0
 456 01d4 C046     		nop
 457 01d6 BD46     		mov	sp, r7
ARM GAS  C:\Users\CCMA\AppData\Local\Temp\ccP3MDSH.s 			page 19


 458 01d8 02B0     		add	sp, sp, #8
 459              		@ sp needed
 460 01da 80BD     		pop	{r7, pc}
 461              		.cfi_endproc
 462              	.LFE66:
 463              		.size	SendChar, .-SendChar
 464              		.align	2
 465              		.global	GetChar
 466              		.code	16
 467              		.thumb_func
 468              		.type	GetChar, %function
 469              	GetChar:
 470              	.LFB67:
 545:src/retarget.c **** 
 546:src/retarget.c **** /**
 547:src/retarget.c ****  * @brief    Routine to get a char
 548:src/retarget.c ****  *
 549:src/retarget.c ****  * @param    None
 550:src/retarget.c ****  *
 551:src/retarget.c ****  * @returns  Get value from UART debug port or semihost
 552:src/retarget.c ****  *
 553:src/retarget.c ****  * @details  Wait UART debug port or semihost to input a char.
 554:src/retarget.c ****  */
 555:src/retarget.c **** char GetChar(void)
 556:src/retarget.c **** {
 471              		.loc 1 556 0
 472              		.cfi_startproc
 473              		@ args = 0, pretend = 0, frame = 0
 474              		@ frame_needed = 1, uses_anonymous_args = 0
 475 01dc 80B5     		push	{r7, lr}
 476              	.LCFI18:
 477              		.cfi_def_cfa_offset 8
 478              		.cfi_offset 7, -8
 479              		.cfi_offset 14, -4
 480 01de 00AF     		add	r7, sp, #0
 481              	.LCFI19:
 482              		.cfi_def_cfa_register 7
 483              	.L35:
 557:src/retarget.c **** #ifdef DEBUG_ENABLE_SEMIHOST
 558:src/retarget.c **** # if defined (__CC_ARM)
 559:src/retarget.c ****     int nRet;
 560:src/retarget.c ****     while(SH_DoCommand(0x101, 0, &nRet) != 0)
 561:src/retarget.c ****     {
 562:src/retarget.c ****         if(nRet != 0)
 563:src/retarget.c ****         {
 564:src/retarget.c ****             SH_DoCommand(0x07, 0, &nRet);
 565:src/retarget.c ****             return (char)nRet;
 566:src/retarget.c ****         }
 567:src/retarget.c ****     }
 568:src/retarget.c **** # else
 569:src/retarget.c ****     int nRet;
 570:src/retarget.c ****     while(SH_DoCommand(0x7, 0, &nRet) != 0)
 571:src/retarget.c ****     {
 572:src/retarget.c ****         if(nRet != 0)
 573:src/retarget.c ****             return (char)nRet;
 574:src/retarget.c ****     }
 575:src/retarget.c **** # endif
ARM GAS  C:\Users\CCMA\AppData\Local\Temp\ccP3MDSH.s 			page 20


 576:src/retarget.c ****     return (0);
 577:src/retarget.c **** #else
 578:src/retarget.c **** 
 579:src/retarget.c ****     while(1)
 580:src/retarget.c ****     {
 581:src/retarget.c ****         if((DEBUG_PORT->FIFOSTS & UART_FIFOSTS_RXEMPTY_Msk) == 0)
 484              		.loc 1 581 0
 485 01e0 064B     		ldr	r3, .L37
 486 01e2 9B69     		ldr	r3, [r3, #24]
 487 01e4 44F20002 		movw	r2, #16384
 488 01e8 1340     		ands	r3, r2
 489 01ea 002B     		cmp	r3, #0
 490 01ec F8D1     		bne	.L35
 582:src/retarget.c ****         {
 583:src/retarget.c ****             return (DEBUG_PORT->DAT);
 491              		.loc 1 583 0
 492 01ee 034B     		ldr	r3, .L37
 493 01f0 1B68     		ldr	r3, [r3]
 494 01f2 DBB2     		uxtb	r3, r3
 584:src/retarget.c ****         }
 585:src/retarget.c ****     }
 586:src/retarget.c **** 
 587:src/retarget.c **** #endif
 588:src/retarget.c **** }
 495              		.loc 1 588 0
 496 01f4 1800     		movs	r0, r3
 497 01f6 BD46     		mov	sp, r7
 498              		@ sp needed
 499 01f8 80BD     		pop	{r7, pc}
 500              	.L38:
 501 01fa C046     		.align	2
 502              	.L37:
 503 01fc 00000750 		.word	1342636032
 504              		.cfi_endproc
 505              	.LFE67:
 506              		.size	GetChar, .-GetChar
 507              		.align	2
 508              		.global	kbhit
 509              		.code	16
 510              		.thumb_func
 511              		.type	kbhit, %function
 512              	kbhit:
 513              	.LFB68:
 589:src/retarget.c **** 
 590:src/retarget.c **** /**
 591:src/retarget.c ****  * @brief    Check any char input from UART
 592:src/retarget.c ****  *
 593:src/retarget.c ****  * @param    None
 594:src/retarget.c ****  *
 595:src/retarget.c ****  * @retval   1: No any char input
 596:src/retarget.c ****  * @retval   0: Have some char input
 597:src/retarget.c ****  *
 598:src/retarget.c ****  * @details  Check UART RSR RX EMPTY or not to determine if any char input from UART
 599:src/retarget.c ****  */
 600:src/retarget.c **** 
 601:src/retarget.c **** int kbhit(void)
 602:src/retarget.c **** {
ARM GAS  C:\Users\CCMA\AppData\Local\Temp\ccP3MDSH.s 			page 21


 514              		.loc 1 602 0
 515              		.cfi_startproc
 516              		@ args = 0, pretend = 0, frame = 0
 517              		@ frame_needed = 1, uses_anonymous_args = 0
 518 0200 80B5     		push	{r7, lr}
 519              	.LCFI20:
 520              		.cfi_def_cfa_offset 8
 521              		.cfi_offset 7, -8
 522              		.cfi_offset 14, -4
 523 0202 00AF     		add	r7, sp, #0
 524              	.LCFI21:
 525              		.cfi_def_cfa_register 7
 603:src/retarget.c ****     return !((DEBUG_PORT->FIFOSTS & UART_FIFOSTS_RXEMPTY_Msk) == 0);
 526              		.loc 1 603 0
 527 0204 054B     		ldr	r3, .L41
 528 0206 9B69     		ldr	r3, [r3, #24]
 529 0208 44F20002 		movw	r2, #16384
 530 020c 1340     		ands	r3, r2
 531 020e 5A1E     		subs	r2, r3, #1
 532 0210 9341     		sbcs	r3, r3, r2
 533 0212 DBB2     		uxtb	r3, r3
 604:src/retarget.c **** }
 534              		.loc 1 604 0
 535 0214 1800     		movs	r0, r3
 536 0216 BD46     		mov	sp, r7
 537              		@ sp needed
 538 0218 80BD     		pop	{r7, pc}
 539              	.L42:
 540 021a C046     		.align	2
 541              	.L41:
 542 021c 00000750 		.word	1342636032
 543              		.cfi_endproc
 544              	.LFE68:
 545              		.size	kbhit, .-kbhit
 546              		.align	2
 547              		.global	IsDebugFifoEmpty
 548              		.code	16
 549              		.thumb_func
 550              		.type	IsDebugFifoEmpty, %function
 551              	IsDebugFifoEmpty:
 552              	.LFB69:
 605:src/retarget.c **** /**
 606:src/retarget.c ****  * @brief    Check if debug message finished
 607:src/retarget.c ****  *
 608:src/retarget.c ****  * @param    None
 609:src/retarget.c ****  *
 610:src/retarget.c ****  * @retval   1: Message is finished
 611:src/retarget.c ****  * @retval   0: Message is transmitting.
 612:src/retarget.c ****  *
 613:src/retarget.c ****  * @details  Check if message finished (FIFO empty of debug port)
 614:src/retarget.c ****  */
 615:src/retarget.c **** 
 616:src/retarget.c **** int IsDebugFifoEmpty(void)
 617:src/retarget.c **** {
 553              		.loc 1 617 0
 554              		.cfi_startproc
 555              		@ args = 0, pretend = 0, frame = 0
ARM GAS  C:\Users\CCMA\AppData\Local\Temp\ccP3MDSH.s 			page 22


 556              		@ frame_needed = 1, uses_anonymous_args = 0
 557 0220 80B5     		push	{r7, lr}
 558              	.LCFI22:
 559              		.cfi_def_cfa_offset 8
 560              		.cfi_offset 7, -8
 561              		.cfi_offset 14, -4
 562 0222 00AF     		add	r7, sp, #0
 563              	.LCFI23:
 564              		.cfi_def_cfa_register 7
 618:src/retarget.c ****     return ((DEBUG_PORT->FIFOSTS & UART_FIFOSTS_TXEMPTYF_Msk) != 0);
 565              		.loc 1 618 0
 566 0224 054B     		ldr	r3, .L45
 567 0226 9A69     		ldr	r2, [r3, #24]
 568 0228 8023     		movs	r3, #128
 569 022a 5B05     		lsls	r3, r3, #21
 570 022c 1340     		ands	r3, r2
 571 022e 5A1E     		subs	r2, r3, #1
 572 0230 9341     		sbcs	r3, r3, r2
 573 0232 DBB2     		uxtb	r3, r3
 619:src/retarget.c **** }
 574              		.loc 1 619 0
 575 0234 1800     		movs	r0, r3
 576 0236 BD46     		mov	sp, r7
 577              		@ sp needed
 578 0238 80BD     		pop	{r7, pc}
 579              	.L46:
 580 023a C046     		.align	2
 581              	.L45:
 582 023c 00000750 		.word	1342636032
 583              		.cfi_endproc
 584              	.LFE69:
 585              		.size	IsDebugFifoEmpty, .-IsDebugFifoEmpty
 586              		.align	2
 587              		.global	_ttywrch
 588              		.code	16
 589              		.thumb_func
 590              		.type	_ttywrch, %function
 591              	_ttywrch:
 592              	.LFB70:
 620:src/retarget.c **** 
 621:src/retarget.c **** /**
 622:src/retarget.c ****  * @brief    C library retargetting
 623:src/retarget.c ****  *
 624:src/retarget.c ****  * @param[in]  ch  Write a character data
 625:src/retarget.c ****  *
 626:src/retarget.c ****  * @returns  None
 627:src/retarget.c ****  *
 628:src/retarget.c ****  * @details  Check if message finished (FIFO empty of debug port)
 629:src/retarget.c ****  */
 630:src/retarget.c **** 
 631:src/retarget.c **** void _ttywrch(int ch)
 632:src/retarget.c **** {
 593              		.loc 1 632 0
 594              		.cfi_startproc
 595              		@ args = 0, pretend = 0, frame = 8
 596              		@ frame_needed = 1, uses_anonymous_args = 0
 597 0240 80B5     		push	{r7, lr}
ARM GAS  C:\Users\CCMA\AppData\Local\Temp\ccP3MDSH.s 			page 23


 598              	.LCFI24:
 599              		.cfi_def_cfa_offset 8
 600              		.cfi_offset 7, -8
 601              		.cfi_offset 14, -4
 602 0242 82B0     		sub	sp, sp, #8
 603              	.LCFI25:
 604              		.cfi_def_cfa_offset 16
 605 0244 00AF     		add	r7, sp, #0
 606              	.LCFI26:
 607              		.cfi_def_cfa_register 7
 608 0246 7860     		str	r0, [r7, #4]
 633:src/retarget.c ****     SendChar(ch);
 609              		.loc 1 633 0
 610 0248 7B68     		ldr	r3, [r7, #4]
 611 024a 1800     		movs	r0, r3
 612 024c FFF7FEFF 		bl	SendChar
 634:src/retarget.c ****     return;
 613              		.loc 1 634 0
 614 0250 C046     		nop
 635:src/retarget.c **** }
 615              		.loc 1 635 0
 616 0252 BD46     		mov	sp, r7
 617 0254 02B0     		add	sp, sp, #8
 618              		@ sp needed
 619 0256 80BD     		pop	{r7, pc}
 620              		.cfi_endproc
 621              	.LFE70:
 622              		.size	_ttywrch, .-_ttywrch
 623              		.align	2
 624              		.global	fputc
 625              		.code	16
 626              		.thumb_func
 627              		.type	fputc, %function
 628              	fputc:
 629              	.LFB71:
 636:src/retarget.c **** 
 637:src/retarget.c **** 
 638:src/retarget.c **** /**
 639:src/retarget.c ****  * @brief      Write character to stream
 640:src/retarget.c ****  *
 641:src/retarget.c ****  * @param[in]  ch       Character to be written. The character is passed as its int promotion.
 642:src/retarget.c ****  * @param[in]  stream   Pointer to a FILE object that identifies the stream where the character is 
 643:src/retarget.c ****  *
 644:src/retarget.c ****  * @returns    If there are no errors, the same character that has been written is returned.
 645:src/retarget.c ****  *             If an error occurs, EOF is returned and the error indicator is set (see ferror).
 646:src/retarget.c ****  *
 647:src/retarget.c ****  * @details    Writes a character to the stream and advances the position indicator.\n
 648:src/retarget.c ****  *             The character is written at the current position of the stream as indicated \n
 649:src/retarget.c ****  *             by the internal position indicator, which is then advanced one character.
 650:src/retarget.c ****  *
 651:src/retarget.c ****  * @note       The above descriptions are copied from http://www.cplusplus.com/reference/clibrary/c
 652:src/retarget.c ****  *
 653:src/retarget.c ****  *
 654:src/retarget.c ****  */
 655:src/retarget.c **** 
 656:src/retarget.c **** int fputc(int ch, FILE *stream)
 657:src/retarget.c **** {
ARM GAS  C:\Users\CCMA\AppData\Local\Temp\ccP3MDSH.s 			page 24


 630              		.loc 1 657 0
 631              		.cfi_startproc
 632              		@ args = 0, pretend = 0, frame = 8
 633              		@ frame_needed = 1, uses_anonymous_args = 0
 634 0258 80B5     		push	{r7, lr}
 635              	.LCFI27:
 636              		.cfi_def_cfa_offset 8
 637              		.cfi_offset 7, -8
 638              		.cfi_offset 14, -4
 639 025a 82B0     		sub	sp, sp, #8
 640              	.LCFI28:
 641              		.cfi_def_cfa_offset 16
 642 025c 00AF     		add	r7, sp, #0
 643              	.LCFI29:
 644              		.cfi_def_cfa_register 7
 645 025e 7860     		str	r0, [r7, #4]
 646 0260 3960     		str	r1, [r7]
 658:src/retarget.c ****     SendChar(ch);
 647              		.loc 1 658 0
 648 0262 7B68     		ldr	r3, [r7, #4]
 649 0264 1800     		movs	r0, r3
 650 0266 FFF7FEFF 		bl	SendChar
 659:src/retarget.c ****     return ch;
 651              		.loc 1 659 0
 652 026a 7B68     		ldr	r3, [r7, #4]
 660:src/retarget.c **** }
 653              		.loc 1 660 0
 654 026c 1800     		movs	r0, r3
 655 026e BD46     		mov	sp, r7
 656 0270 02B0     		add	sp, sp, #8
 657              		@ sp needed
 658 0272 80BD     		pop	{r7, pc}
 659              		.cfi_endproc
 660              	.LFE71:
 661              		.size	fputc, .-fputc
 662              		.align	2
 663              		.global	fgetc
 664              		.code	16
 665              		.thumb_func
 666              		.type	fgetc, %function
 667              	fgetc:
 668              	.LFB72:
 661:src/retarget.c **** 
 662:src/retarget.c **** 
 663:src/retarget.c **** /**
 664:src/retarget.c ****  * @brief      Get character from UART debug port or semihosting input
 665:src/retarget.c ****  *
 666:src/retarget.c ****  * @param[in]  stream   Pointer to a FILE object that identifies the stream on which the operation 
 667:src/retarget.c ****  *
 668:src/retarget.c ****  * @returns    The character read from UART debug port or semihosting
 669:src/retarget.c ****  *
 670:src/retarget.c ****  * @details    For get message from debug port or semihosting.
 671:src/retarget.c ****  *
 672:src/retarget.c ****  */
 673:src/retarget.c **** 
 674:src/retarget.c **** int fgetc(FILE *stream)
 675:src/retarget.c **** {
ARM GAS  C:\Users\CCMA\AppData\Local\Temp\ccP3MDSH.s 			page 25


 669              		.loc 1 675 0
 670              		.cfi_startproc
 671              		@ args = 0, pretend = 0, frame = 8
 672              		@ frame_needed = 1, uses_anonymous_args = 0
 673 0274 80B5     		push	{r7, lr}
 674              	.LCFI30:
 675              		.cfi_def_cfa_offset 8
 676              		.cfi_offset 7, -8
 677              		.cfi_offset 14, -4
 678 0276 82B0     		sub	sp, sp, #8
 679              	.LCFI31:
 680              		.cfi_def_cfa_offset 16
 681 0278 00AF     		add	r7, sp, #0
 682              	.LCFI32:
 683              		.cfi_def_cfa_register 7
 684 027a 7860     		str	r0, [r7, #4]
 676:src/retarget.c ****     return (GetChar());
 685              		.loc 1 676 0
 686 027c FFF7FEFF 		bl	GetChar
 687 0280 0300     		movs	r3, r0
 677:src/retarget.c **** }
 688              		.loc 1 677 0
 689 0282 1800     		movs	r0, r3
 690 0284 BD46     		mov	sp, r7
 691 0286 02B0     		add	sp, sp, #8
 692              		@ sp needed
 693 0288 80BD     		pop	{r7, pc}
 694              		.cfi_endproc
 695              	.LFE72:
 696              		.size	fgetc, .-fgetc
 697              	.Letext0:
 698              		.file 2 "c:\\program files\\gnu tools arm embedded\\5.4 2016q3\\arm-none-eabi\\include\\machine\\_
 699              		.file 3 "c:\\program files\\gnu tools arm embedded\\5.4 2016q3\\arm-none-eabi\\include\\sys\\lock.
 700              		.file 4 "c:\\program files\\gnu tools arm embedded\\5.4 2016q3\\arm-none-eabi\\include\\sys\\_type
 701              		.file 5 "c:\\program files\\gnu tools arm embedded\\5.4 2016q3\\lib\\gcc\\arm-none-eabi\\5.4.1\\in
 702              		.file 6 "c:\\program files\\gnu tools arm embedded\\5.4 2016q3\\arm-none-eabi\\include\\sys\\reent
 703              		.file 7 "c:\\program files\\gnu tools arm embedded\\5.4 2016q3\\arm-none-eabi\\include\\sys\\_stdi
 704              		.file 8 "c:\\program files\\gnu tools arm embedded\\5.4 2016q3\\arm-none-eabi\\include\\stdio.h"
 705              		.file 9 "src/TC8234.h"
 706              		.file 10 "src/system_TC8234.h"