ARM GAS  C:\Users\CCMA\AppData\Local\Temp\ccJ9Pjse.s 			page 1


   1              		.syntax unified
   2              		.arch armv8-m.base
   3              		.fpu softvfp
   4              		.eabi_attribute 20, 1
   5              		.eabi_attribute 21, 1
   6              		.eabi_attribute 23, 3
   7              		.eabi_attribute 24, 1
   8              		.eabi_attribute 25, 1
   9              		.eabi_attribute 26, 1
  10              		.eabi_attribute 30, 6
  11              		.eabi_attribute 34, 0
  12              		.eabi_attribute 18, 4
  13              		.thumb
  14              		.syntax unified
  15              		.file	"system_TC8234.c"
  16              		.text
  17              	.Ltext0:
  18              		.cfi_sections	.debug_frame
  19              		.align	2
  20              		.code	16
  21              		.thumb_func
  22              		.type	TZ_SAU_Setup, %function
  23              	TZ_SAU_Setup:
  24              	.LFB61:
  25              		.file 1 "src/partition_TC8234.h"
   1:src/partition_TC8234.h **** /**************************************************************************//**
   2:src/partition_TC8234.h ****  * @file     partition_TC8234.c
   3:src/partition_TC8234.h ****  * @version  V2.00
   4:src/partition_TC8234.h ****  * $Revision: 3 $
   5:src/partition_TC8234.h ****  * $Date: 16/08/15 6:25p $
   6:src/partition_TC8234.h ****  * @brief    SAU configuration for secure/nonsecure region settings.
   7:src/partition_TC8234.h ****  *
   8:src/partition_TC8234.h ****  * @note
   9:src/partition_TC8234.h ****  * Copyright (C) 2016 Nuvoton Technology Corp. All rights reserved.
  10:src/partition_TC8234.h ****  *
  11:src/partition_TC8234.h ****  ******************************************************************************/
  12:src/partition_TC8234.h **** 
  13:src/partition_TC8234.h **** #ifndef PARTITION_TC8234
  14:src/partition_TC8234.h **** #define PARTITION_TC8234
  15:src/partition_TC8234.h **** 
  16:src/partition_TC8234.h **** /*
  17:src/partition_TC8234.h **** //-------- <<< Use Configuration Wizard in Context Menu >>> -----------------
  18:src/partition_TC8234.h **** */
  19:src/partition_TC8234.h **** 
  20:src/partition_TC8234.h **** /*
  21:src/partition_TC8234.h **** // <e>Secure Attribute Unit (SAU) Control
  22:src/partition_TC8234.h **** */
  23:src/partition_TC8234.h **** #define SAU_INIT_CTRL 1
  24:src/partition_TC8234.h **** 
  25:src/partition_TC8234.h **** /*
  26:src/partition_TC8234.h **** //   <q> Enable SAU
  27:src/partition_TC8234.h **** //   <i> To enable Secure Attribute Unit (SAU).
  28:src/partition_TC8234.h **** */
  29:src/partition_TC8234.h **** #define SAU_INIT_CTRL_ENABLE 1
  30:src/partition_TC8234.h **** 
  31:src/partition_TC8234.h **** /*
  32:src/partition_TC8234.h **** //   <o> All Memory Attribute When SAU is disabled
ARM GAS  C:\Users\CCMA\AppData\Local\Temp\ccJ9Pjse.s 			page 2


  33:src/partition_TC8234.h **** //     <0=> All Memory is Secure
  34:src/partition_TC8234.h **** //     <1=> All Memory is Non-Secure
  35:src/partition_TC8234.h **** //   <i> To set the ALLNS bit in SAU CTRL.
  36:src/partition_TC8234.h **** //   <i> When all Memory is Non-Secure (ALLNS is 1), IDAU can override memory map configuration.
  37:src/partition_TC8234.h **** */
  38:src/partition_TC8234.h **** #define SAU_INIT_CTRL_ALLNS  0
  39:src/partition_TC8234.h **** 
  40:src/partition_TC8234.h **** /*
  41:src/partition_TC8234.h **** // </e>
  42:src/partition_TC8234.h **** */
  43:src/partition_TC8234.h **** 
  44:src/partition_TC8234.h **** /*
  45:src/partition_TC8234.h **** // <h>Enable and Set Secure/Non-Secure region
  46:src/partition_TC8234.h **** */
  47:src/partition_TC8234.h **** #define SAU_REGIONS_MAX   8                 /* Max. number of SAU regions */
  48:src/partition_TC8234.h **** 
  49:src/partition_TC8234.h **** /*
  50:src/partition_TC8234.h **** //   <e>SAU Region 0
  51:src/partition_TC8234.h **** //   <i> Setup SAU Region 0
  52:src/partition_TC8234.h **** */
  53:src/partition_TC8234.h **** #define SAU_INIT_REGION0    1
  54:src/partition_TC8234.h **** /*
  55:src/partition_TC8234.h **** //     <o>Start Address <0-0xFFFFFFE0>
  56:src/partition_TC8234.h **** */
  57:src/partition_TC8234.h **** #define SAU_INIT_START0     0x00000000      /* start address of SAU region 0 */
  58:src/partition_TC8234.h **** /*
  59:src/partition_TC8234.h **** //     <o>End Address <0x1F-0xFFFFFFFF>
  60:src/partition_TC8234.h **** */
  61:src/partition_TC8234.h **** #define SAU_INIT_END0       0x00040000      /* end address of SAU region 0 */
  62:src/partition_TC8234.h **** /*
  63:src/partition_TC8234.h **** //     <o>Region is
  64:src/partition_TC8234.h **** //         <0=>Non-Secure
  65:src/partition_TC8234.h **** //         <1=>Secure, Non-Secure Callable
  66:src/partition_TC8234.h **** */
  67:src/partition_TC8234.h **** #define SAU_INIT_NSC0       1
  68:src/partition_TC8234.h **** /*
  69:src/partition_TC8234.h **** //   </e>
  70:src/partition_TC8234.h **** */
  71:src/partition_TC8234.h **** 
  72:src/partition_TC8234.h **** /*
  73:src/partition_TC8234.h **** //   <e>SAU Region 1
  74:src/partition_TC8234.h **** //   <i> Setup SAU Region 1
  75:src/partition_TC8234.h **** */
  76:src/partition_TC8234.h **** #define SAU_INIT_REGION1    1
  77:src/partition_TC8234.h **** /*
  78:src/partition_TC8234.h **** //     <o>Start Address <0-0xFFFFFFE0>
  79:src/partition_TC8234.h **** */
  80:src/partition_TC8234.h **** #define SAU_INIT_START1     0x10040000
  81:src/partition_TC8234.h **** /*
  82:src/partition_TC8234.h **** //     <o>End Address <0x1F-0xFFFFFFFF>
  83:src/partition_TC8234.h **** */
  84:src/partition_TC8234.h **** #define SAU_INIT_END1       0x1007FFFF
  85:src/partition_TC8234.h **** /*
  86:src/partition_TC8234.h **** //     <o>Region is
  87:src/partition_TC8234.h **** //         <0=>Non-Secure
  88:src/partition_TC8234.h **** //         <1=>Secure, Non-Secure Callable
  89:src/partition_TC8234.h **** */
ARM GAS  C:\Users\CCMA\AppData\Local\Temp\ccJ9Pjse.s 			page 3


  90:src/partition_TC8234.h **** #define SAU_INIT_NSC1       0
  91:src/partition_TC8234.h **** /*
  92:src/partition_TC8234.h **** //   </e>
  93:src/partition_TC8234.h **** */
  94:src/partition_TC8234.h **** 
  95:src/partition_TC8234.h **** /*
  96:src/partition_TC8234.h **** //   <e>SAU Region 2
  97:src/partition_TC8234.h **** //   <i> Setup SAU Region 2
  98:src/partition_TC8234.h **** */
  99:src/partition_TC8234.h **** #define SAU_INIT_REGION2    1
 100:src/partition_TC8234.h **** /*
 101:src/partition_TC8234.h **** //     <o>Start Address <0-0xFFFFFFE0>
 102:src/partition_TC8234.h **** */
 103:src/partition_TC8234.h **** #define SAU_INIT_START2     0x2000FC00
 104:src/partition_TC8234.h **** /*
 105:src/partition_TC8234.h **** //     <o>End Address <0x1F-0xFFFFFFFF>
 106:src/partition_TC8234.h **** */
 107:src/partition_TC8234.h **** #define SAU_INIT_END2       0x2000FFFF
 108:src/partition_TC8234.h **** /*
 109:src/partition_TC8234.h **** //     <o>Region is
 110:src/partition_TC8234.h **** //         <0=>Non-Secure
 111:src/partition_TC8234.h **** //         <1=>Secure, Non-Secure Callable
 112:src/partition_TC8234.h **** */
 113:src/partition_TC8234.h **** #define SAU_INIT_NSC2       1
 114:src/partition_TC8234.h **** /*
 115:src/partition_TC8234.h **** //   </e>
 116:src/partition_TC8234.h **** */
 117:src/partition_TC8234.h **** 
 118:src/partition_TC8234.h **** /*
 119:src/partition_TC8234.h **** //   <e>SAU Region 3
 120:src/partition_TC8234.h **** //   <i> Setup SAU Region 3
 121:src/partition_TC8234.h **** */
 122:src/partition_TC8234.h **** #define SAU_INIT_REGION3    1
 123:src/partition_TC8234.h **** /*
 124:src/partition_TC8234.h **** //     <o>Start Address <0-0xFFFFFFE0>
 125:src/partition_TC8234.h **** */
 126:src/partition_TC8234.h **** #define SAU_INIT_START3     0x30010000
 127:src/partition_TC8234.h **** /*
 128:src/partition_TC8234.h **** //     <o>End Address <0x1F-0xFFFFFFFF>
 129:src/partition_TC8234.h **** */
 130:src/partition_TC8234.h **** #define SAU_INIT_END3       0x3001FFFF
 131:src/partition_TC8234.h **** /*
 132:src/partition_TC8234.h **** //     <o>Region is
 133:src/partition_TC8234.h **** //         <0=>Non-Secure
 134:src/partition_TC8234.h **** //         <1=>Secure, Non-Secure Callable
 135:src/partition_TC8234.h **** */
 136:src/partition_TC8234.h **** #define SAU_INIT_NSC3       0
 137:src/partition_TC8234.h **** /*
 138:src/partition_TC8234.h **** //   </e>
 139:src/partition_TC8234.h **** */
 140:src/partition_TC8234.h **** 
 141:src/partition_TC8234.h **** /*
 142:src/partition_TC8234.h **** //   <e>SAU Region 4
 143:src/partition_TC8234.h **** //   <i> Setup SAU Region 4
 144:src/partition_TC8234.h **** */
 145:src/partition_TC8234.h **** #define SAU_INIT_REGION4    1
 146:src/partition_TC8234.h **** /*
ARM GAS  C:\Users\CCMA\AppData\Local\Temp\ccJ9Pjse.s 			page 4


 147:src/partition_TC8234.h **** //     <o>Start Address <0-0xFFFFFFE0>
 148:src/partition_TC8234.h **** */
 149:src/partition_TC8234.h **** #define SAU_INIT_START4     0x50000000      /* start address of SAU region 4 */
 150:src/partition_TC8234.h **** 
 151:src/partition_TC8234.h **** /*
 152:src/partition_TC8234.h **** //     <o>End Address <0x1F-0xFFFFFFFF>
 153:src/partition_TC8234.h **** */
 154:src/partition_TC8234.h **** #define SAU_INIT_END4       0x5FFFFFFF      /* end address of SAU region 4 */
 155:src/partition_TC8234.h **** 
 156:src/partition_TC8234.h **** /*
 157:src/partition_TC8234.h **** //     <o>Region is
 158:src/partition_TC8234.h **** //         <0=>Non-Secure
 159:src/partition_TC8234.h **** //         <1=>Secure, Non-Secure Callable
 160:src/partition_TC8234.h **** */
 161:src/partition_TC8234.h **** #define SAU_INIT_NSC4       0
 162:src/partition_TC8234.h **** /*
 163:src/partition_TC8234.h **** //   </e>
 164:src/partition_TC8234.h **** */
 165:src/partition_TC8234.h **** 
 166:src/partition_TC8234.h **** /*
 167:src/partition_TC8234.h **** //   <e>SAU Region 5
 168:src/partition_TC8234.h **** //   <i> Setup SAU Region 5
 169:src/partition_TC8234.h **** */
 170:src/partition_TC8234.h **** #define SAU_INIT_REGION5    1
 171:src/partition_TC8234.h **** 
 172:src/partition_TC8234.h **** /*
 173:src/partition_TC8234.h **** //     <o>Start Address <0-0xFFFFFFE0>
 174:src/partition_TC8234.h **** */
 175:src/partition_TC8234.h **** #define SAU_INIT_START5     0x00807C00
 176:src/partition_TC8234.h **** 
 177:src/partition_TC8234.h **** /*
 178:src/partition_TC8234.h **** //     <o>End Address <0x1F-0xFFFFFFFF>
 179:src/partition_TC8234.h **** */
 180:src/partition_TC8234.h **** #define SAU_INIT_END5       0x00807FFF
 181:src/partition_TC8234.h **** 
 182:src/partition_TC8234.h **** /*
 183:src/partition_TC8234.h **** //     <o>Region is
 184:src/partition_TC8234.h **** //         <0=>Non-Secure
 185:src/partition_TC8234.h **** //         <1=>Secure, Non-Secure Callable
 186:src/partition_TC8234.h **** */
 187:src/partition_TC8234.h **** #define SAU_INIT_NSC5       1
 188:src/partition_TC8234.h **** /*
 189:src/partition_TC8234.h **** //   </e>
 190:src/partition_TC8234.h **** */
 191:src/partition_TC8234.h **** 
 192:src/partition_TC8234.h **** /*
 193:src/partition_TC8234.h **** //   <e>SAU Region 6
 194:src/partition_TC8234.h **** //   <i> Setup SAU Region 6
 195:src/partition_TC8234.h **** */
 196:src/partition_TC8234.h **** #define SAU_INIT_REGION6    0
 197:src/partition_TC8234.h **** 
 198:src/partition_TC8234.h **** /*
 199:src/partition_TC8234.h **** //     <o>Start Address <0-0xFFFFFFE0>
 200:src/partition_TC8234.h **** */
 201:src/partition_TC8234.h **** #define SAU_INIT_START6     0x00000000
 202:src/partition_TC8234.h **** 
 203:src/partition_TC8234.h **** /*
ARM GAS  C:\Users\CCMA\AppData\Local\Temp\ccJ9Pjse.s 			page 5


 204:src/partition_TC8234.h **** //     <o>End Address <0x1F-0xFFFFFFFF>
 205:src/partition_TC8234.h **** */
 206:src/partition_TC8234.h **** #define SAU_INIT_END6       0x00000000
 207:src/partition_TC8234.h **** 
 208:src/partition_TC8234.h **** /*
 209:src/partition_TC8234.h **** //     <o>Region is
 210:src/partition_TC8234.h **** //         <0=>Non-Secure
 211:src/partition_TC8234.h **** //         <1=>Secure, Non-Secure Callable
 212:src/partition_TC8234.h **** */
 213:src/partition_TC8234.h **** #define SAU_INIT_NSC6       0
 214:src/partition_TC8234.h **** /*
 215:src/partition_TC8234.h **** //   </e>
 216:src/partition_TC8234.h **** */
 217:src/partition_TC8234.h **** 
 218:src/partition_TC8234.h **** /*
 219:src/partition_TC8234.h **** //   <e>SAU Region 7
 220:src/partition_TC8234.h **** //   <i> Setup SAU Region 7
 221:src/partition_TC8234.h **** */
 222:src/partition_TC8234.h **** #define SAU_INIT_REGION7    0
 223:src/partition_TC8234.h **** 
 224:src/partition_TC8234.h **** /*
 225:src/partition_TC8234.h **** //     <o>Start Address <0-0xFFFFFFE0>
 226:src/partition_TC8234.h **** */
 227:src/partition_TC8234.h **** #define SAU_INIT_START7     0x00000000
 228:src/partition_TC8234.h **** 
 229:src/partition_TC8234.h **** /*
 230:src/partition_TC8234.h **** //     <o>End Address <0x1F-0xFFFFFFFF>
 231:src/partition_TC8234.h **** */
 232:src/partition_TC8234.h **** #define SAU_INIT_END7       0x00000000
 233:src/partition_TC8234.h **** 
 234:src/partition_TC8234.h **** /*
 235:src/partition_TC8234.h **** //     <o>Region is
 236:src/partition_TC8234.h **** //         <0=>Non-Secure
 237:src/partition_TC8234.h **** //         <1=>Secure, Non-Secure Callable
 238:src/partition_TC8234.h **** */
 239:src/partition_TC8234.h **** #define SAU_INIT_NSC7       0
 240:src/partition_TC8234.h **** /*
 241:src/partition_TC8234.h **** //   </e>
 242:src/partition_TC8234.h **** */
 243:src/partition_TC8234.h **** 
 244:src/partition_TC8234.h **** /*
 245:src/partition_TC8234.h **** // </h>
 246:src/partition_TC8234.h **** */
 247:src/partition_TC8234.h **** 
 248:src/partition_TC8234.h **** /*
 249:src/partition_TC8234.h **** // <e>Setup behaviour of Sleep and Exception Handling
 250:src/partition_TC8234.h **** */
 251:src/partition_TC8234.h **** #define SCB_CSR_AIRCR_INIT  1
 252:src/partition_TC8234.h **** 
 253:src/partition_TC8234.h **** /*
 254:src/partition_TC8234.h **** //   <o> Deep Sleep can be enabled by
 255:src/partition_TC8234.h **** //     <0=>Secure and Non-Secure state
 256:src/partition_TC8234.h **** //     <1=>Secure state only
 257:src/partition_TC8234.h **** //   <i> Value for SCB->CSR register bit DEEPSLEEPS
 258:src/partition_TC8234.h **** */
 259:src/partition_TC8234.h **** #define SCB_CSR_DEEPSLEEPS_VAL  0
 260:src/partition_TC8234.h **** 
ARM GAS  C:\Users\CCMA\AppData\Local\Temp\ccJ9Pjse.s 			page 6


 261:src/partition_TC8234.h **** /*
 262:src/partition_TC8234.h **** //   <o>System reset request accessible from
 263:src/partition_TC8234.h **** //     <0=> Secure and Non-Secure state
 264:src/partition_TC8234.h **** //     <1=> Secure state only
 265:src/partition_TC8234.h **** //   <i> Value for SCB->AIRCR register bit SYSRESETREQS
 266:src/partition_TC8234.h **** */
 267:src/partition_TC8234.h **** #define SCB_AIRCR_SYSRESETREQS_VAL  0
 268:src/partition_TC8234.h **** 
 269:src/partition_TC8234.h **** /*
 270:src/partition_TC8234.h **** //   <o>Priority of Non-Secure exceptions is
 271:src/partition_TC8234.h **** //     <0=> Not altered
 272:src/partition_TC8234.h **** //     <1=> Lowered to 0x80-0xFF
 273:src/partition_TC8234.h **** //   <i> Value for SCB->AIRCR register bit PRIS
 274:src/partition_TC8234.h **** */
 275:src/partition_TC8234.h **** #define SCB_AIRCR_PRIS_VAL      0
 276:src/partition_TC8234.h **** 
 277:src/partition_TC8234.h **** /*
 278:src/partition_TC8234.h **** //   <o>BusFault, HardFault, and NMI target
 279:src/partition_TC8234.h **** //     <0=> Secure state
 280:src/partition_TC8234.h **** //     <1=> Non-Secure state
 281:src/partition_TC8234.h **** //   <i> Value for SCB->AIRCR register bit BFHFNMINS
 282:src/partition_TC8234.h **** */
 283:src/partition_TC8234.h **** #define SCB_AIRCR_BFHFNMINS_VAL 1
 284:src/partition_TC8234.h **** 
 285:src/partition_TC8234.h **** /*
 286:src/partition_TC8234.h **** // </e>
 287:src/partition_TC8234.h **** */
 288:src/partition_TC8234.h **** 
 289:src/partition_TC8234.h **** 
 290:src/partition_TC8234.h **** /*
 291:src/partition_TC8234.h **** // <h>Assign Interrupt to Secure or Non-secure Vector
 292:src/partition_TC8234.h **** */
 293:src/partition_TC8234.h **** 
 294:src/partition_TC8234.h **** /*
 295:src/partition_TC8234.h ****     Initialize ITNS 0 (Interrupts 0..31)
 296:src/partition_TC8234.h **** */
 297:src/partition_TC8234.h **** #define NVIC_INIT_ITNS0    1
 298:src/partition_TC8234.h **** /*
 299:src/partition_TC8234.h **** // Interrupts 0..31
 300:src/partition_TC8234.h **** //   <o.0>  BOD Interrupt         <0=> Secure <1=> Non-Secure
 301:src/partition_TC8234.h **** //   <o.1>  IRC Interrupt         <0=> Secure <1=> Non-Secure
 302:src/partition_TC8234.h **** //   <o.2>  PWRWU Interrupt       <0=> Secure <1=> Non-Secure
 303:src/partition_TC8234.h **** //   <o.3>  SRAM Interrupt        <0=> Secure <1=> Non-Secure
 304:src/partition_TC8234.h **** //   <o.4>  CLKFAIL Interrupt     <0=> Secure <1=> Non-Secure
 305:src/partition_TC8234.h **** //
 306:src/partition_TC8234.h **** //   <o.6>  RTC Interrupt         <0=> Secure <1=> Non-Secure
 307:src/partition_TC8234.h **** //   <o.7>  TAMPER Interrupt      <0=> Secure <1=> Non-Secure
 308:src/partition_TC8234.h **** //   <o.8>  WDT Interrupt         <0=> Secure <1=> Non-Secure
 309:src/partition_TC8234.h **** //   <o.9>  WWDT Interrupt        <0=> Secure <1=> Non-Secure
 310:src/partition_TC8234.h **** //   <o.10> EINT0 Interrupt       <0=> Secure <1=> Non-Secure
 311:src/partition_TC8234.h **** //   <o.11> EINT1 Interrupt       <0=> Secure <1=> Non-Secure
 312:src/partition_TC8234.h **** //   <o.12> EINT2 Interrupt       <0=> Secure <1=> Non-Secure
 313:src/partition_TC8234.h **** //   <o.13> EINT3 Interrupt       <0=> Secure <1=> Non-Secure
 314:src/partition_TC8234.h **** //   <o.14> EINT4 Interrupt       <0=> Secure <1=> Non-Secure
 315:src/partition_TC8234.h **** //   <o.15> EINT5 Interrupt       <0=> Secure <1=> Non-Secure
 316:src/partition_TC8234.h **** //   <o.16> GPA Interrupt         <0=> Secure <1=> Non-Secure
 317:src/partition_TC8234.h **** //   <o.17> GPB Interrupt         <0=> Secure <1=> Non-Secure
ARM GAS  C:\Users\CCMA\AppData\Local\Temp\ccJ9Pjse.s 			page 7


 318:src/partition_TC8234.h **** //   <o.18> GPC Interrupt         <0=> Secure <1=> Non-Secure
 319:src/partition_TC8234.h **** //   <o.19> GPD Interrupt         <0=> Secure <1=> Non-Secure
 320:src/partition_TC8234.h **** //   <o.20> GPE Interrupt         <0=> Secure <1=> Non-Secure
 321:src/partition_TC8234.h **** //   <o.21> GPF Interrupt         <0=> Secure <1=> Non-Secure
 322:src/partition_TC8234.h **** //   <o.22> SPI0 Interrupt        <0=> Secure <1=> Non-Secure
 323:src/partition_TC8234.h **** //   <o.23> SPI1 Interrupt        <0=> Secure <1=> Non-Secure
 324:src/partition_TC8234.h **** //   <o.24> BRAKE0 Interrupt      <0=> Secure <1=> Non-Secure
 325:src/partition_TC8234.h **** //   <o.25> PWM0_P0 Interrupt     <0=> Secure <1=> Non-Secure
 326:src/partition_TC8234.h **** //   <o.26> PWM0_P1 Interrupt     <0=> Secure <1=> Non-Secure
 327:src/partition_TC8234.h **** //   <o.27> PWM0_P2 Interrupt     <0=> Secure <1=> Non-Secure
 328:src/partition_TC8234.h **** //   <o.28> BRAKE1 Interrupt      <0=> Secure <1=> Non-Secure
 329:src/partition_TC8234.h **** //   <o.29> PWM1_P0 Interrupt     <0=> Secure <1=> Non-Secure
 330:src/partition_TC8234.h **** //   <o.30> PWM1_P1 Interrupt     <0=> Secure <1=> Non-Secure
 331:src/partition_TC8234.h **** //   <o.31> PWM1_P2 Interrupt     <0=> Secure <1=> Non-Secure
 332:src/partition_TC8234.h **** */
 333:src/partition_TC8234.h **** #define NVIC_INIT_ITNS0_VAL      0x00000000
 334:src/partition_TC8234.h **** 
 335:src/partition_TC8234.h **** 
 336:src/partition_TC8234.h **** /*
 337:src/partition_TC8234.h ****     Initialize ITNS 1 (Interrupts 32..63)
 338:src/partition_TC8234.h **** */
 339:src/partition_TC8234.h **** 
 340:src/partition_TC8234.h **** #define NVIC_INIT_ITNS1    1
 341:src/partition_TC8234.h **** 
 342:src/partition_TC8234.h **** /*
 343:src/partition_TC8234.h **** // Interrupts 32..63
 344:src/partition_TC8234.h **** //   <o.0>  TMR0 Interrupt   <0=> Secure <1=> Non-Secure
 345:src/partition_TC8234.h **** //   <o.1>  TMR1 Interrupt   <0=> Secure <1=> Non-Secure
 346:src/partition_TC8234.h **** //   <o.2>  TMR2 Interrupt   <0=> Secure <1=> Non-Secure
 347:src/partition_TC8234.h **** //   <o.3>  TMR3 Interrupt   <0=> Secure <1=> Non-Secure
 348:src/partition_TC8234.h **** //   <o.4>  UART0 Interrupt  <0=> Secure <1=> Non-Secure
 349:src/partition_TC8234.h **** //   <o.5>  UART1 Interrupt  <0=> Secure <1=> Non-Secure
 350:src/partition_TC8234.h **** //   <o.6>  I2C0 Interrupt   <0=> Secure <1=> Non-Secure
 351:src/partition_TC8234.h **** //   <o.7>  I2C1 Interrupt   <0=> Secure <1=> Non-Secure
 352:src/partition_TC8234.h **** //   <o.8>  PDMA Interrupt   <0=> Secure <1=> Non-Secure
 353:src/partition_TC8234.h **** //   <o.9> DAC Interrupt    <0=> Secure <1=> Non-Secure
 354:src/partition_TC8234.h **** //   <o.10> EADC0 Interrupt  <0=> Secure <1=> Non-Secure
 355:src/partition_TC8234.h **** //   <o.11> EADC1 Interrupt  <0=> Secure <1=> Non-Secure
 356:src/partition_TC8234.h **** //   <o.12> ACMP01 Interrupt <0=> Secure <1=> Non-Secure
 357:src/partition_TC8234.h **** //
 358:src/partition_TC8234.h **** //   <o.14> EADC2 Interrupt  <0=> Secure <1=> Non-Secure
 359:src/partition_TC8234.h **** //   <o.15> EADC3 Interrupt  <0=> Secure <1=> Non-Secure
 360:src/partition_TC8234.h **** //   <o.16> UART2 Interrupt  <0=> Secure <1=> Non-Secure
 361:src/partition_TC8234.h **** //   <o.17> UART3 Interrupt  <0=> Secure <1=> Non-Secure
 362:src/partition_TC8234.h **** //
 363:src/partition_TC8234.h **** //   <o.19> SPI2 Interrupt   <0=> Secure <1=> Non-Secure
 364:src/partition_TC8234.h **** //   <o.20> SPI3 Interrupt   <0=> Secure <1=> Non-Secure
 365:src/partition_TC8234.h **** //   <o.21> USBD Interrupt   <0=> Secure <1=> Non-Secure
 366:src/partition_TC8234.h **** //   <o.22> USBH Interrupt   <0=> Secure <1=> Non-Secure
 367:src/partition_TC8234.h **** //   <o.23> OTG Interrupt    <0=> Secure <1=> Non-Secure
 368:src/partition_TC8234.h **** //   <o.24> CAN0 Interrupt   <0=> Secure <1=> Non-Secure
 369:src/partition_TC8234.h **** //   <o.25> CAN1 Interrupt   <0=> Secure <1=> Non-Secure
 370:src/partition_TC8234.h **** //   <o.26> SC0 Interrupt    <0=> Secure <1=> Non-Secure
 371:src/partition_TC8234.h **** //   <o.27> SC1 Interrupt    <0=> Secure <1=> Non-Secure
 372:src/partition_TC8234.h **** //   <o.28> SC2 Interrupt    <0=> Secure <1=> Non-Secure
 373:src/partition_TC8234.h **** //   <o.29> SC3 Interrupt    <0=> Secure <1=> Non-Secure
 374:src/partition_TC8234.h **** //   <o.30> SPI4 Interrupt   <0=> Secure <1=> Non-Secure
ARM GAS  C:\Users\CCMA\AppData\Local\Temp\ccJ9Pjse.s 			page 8


 375:src/partition_TC8234.h **** //   <o.31> SD0 Interrupt    <0=> Secure <1=> Non-Secure
 376:src/partition_TC8234.h **** */
 377:src/partition_TC8234.h **** #define NVIC_INIT_ITNS1_VAL      0x00000000
 378:src/partition_TC8234.h **** 
 379:src/partition_TC8234.h **** 
 380:src/partition_TC8234.h **** /*
 381:src/partition_TC8234.h ****     Initialize ITNS 2 (Interrupts 64..95)
 382:src/partition_TC8234.h **** */
 383:src/partition_TC8234.h **** 
 384:src/partition_TC8234.h **** #define NVIC_INIT_ITNS2    1
 385:src/partition_TC8234.h **** /*
 386:src/partition_TC8234.h **** //
 387:src/partition_TC8234.h **** //   <o.1>  USBD Interrupt   <0=> Secure <1=> Non-Secure
 388:src/partition_TC8234.h **** //
 389:src/partition_TC8234.h **** //
 390:src/partition_TC8234.h **** //   <o.4>  I2S0 Interrupt   <0=> Secure <1=> Non-Secure
 391:src/partition_TC8234.h **** //
 392:src/partition_TC8234.h **** //   <o.6>  OPA0 Interrupt   <0=> Secure <1=> Non-Secure
 393:src/partition_TC8234.h **** //   <o.7>  CRPT Interrupt   <0=> Secure <1=> Non-Secure
 394:src/partition_TC8234.h **** //   <o.8> GPG Interrupt    <0=> Secure <1=> Non-Secure
 395:src/partition_TC8234.h **** //   <o.9> EINT6 Interrupt  <0=> Secure <1=> Non-Secure
 396:src/partition_TC8234.h **** //   <o.10> UART4 Interrupt  <0=> Secure <1=> Non-Secure
 397:src/partition_TC8234.h **** //   <o.11> UART5 Interrupt  <0=> Secure <1=> Non-Secure
 398:src/partition_TC8234.h **** //   <o.12> USCI0 Interrupt  <0=> Secure <1=> Non-Secure
 399:src/partition_TC8234.h **** //   <o.13> USCI1 Interrupt  <0=> Secure <1=> Non-Secure
 400:src/partition_TC8234.h **** //   <o.14> BPWM0 Interrupt  <0=> Secure <1=> Non-Secure
 401:src/partition_TC8234.h **** //   <o.15> BPWM1 Interrupt  <0=> Secure <1=> Non-Secure
 402:src/partition_TC8234.h **** //
 403:src/partition_TC8234.h **** //
 404:src/partition_TC8234.h **** //   <o.18> I2C2 Interrupt   <0=> Secure <1=> Non-Secure
 405:src/partition_TC8234.h **** //
 406:src/partition_TC8234.h **** //   <o.20> QEI0 Interrupt   <0=> Secure <1=> Non-Secure
 407:src/partition_TC8234.h **** //   <o.21> QEI1 Interrupt   <0=> Secure <1=> Non-Secure
 408:src/partition_TC8234.h **** //   <o.22> ECAP0 Interrupt  <0=> Secure <1=> Non-Secure
 409:src/partition_TC8234.h **** //   <o.23> ECAP1 Interrupt  <0=> Secure <1=> Non-Secure
 410:src/partition_TC8234.h **** //   <o.24> GPH Interrupt    <0=> Secure <1=> Non-Secure
 411:src/partition_TC8234.h **** //   <o.25> EINT7 Interrupt  <0=> Secure <1=> Non-Secure
 412:src/partition_TC8234.h **** //   <o.26> SD1 Interrupt    <0=> Secure <1=> Non-Secure
 413:src/partition_TC8234.h **** //
 414:src/partition_TC8234.h **** //
 415:src/partition_TC8234.h **** //
 416:src/partition_TC8234.h **** //   <o.30> SWDC Interrupt   <0=> Secure <1=> Non-Secure
 417:src/partition_TC8234.h **** //   <o.31> ETMC Interrupt   <0=> Secure <1=> Non-Secure
 418:src/partition_TC8234.h **** */
 419:src/partition_TC8234.h **** #define NVIC_INIT_ITNS2_VAL      0x00000000
 420:src/partition_TC8234.h **** 
 421:src/partition_TC8234.h **** 
 422:src/partition_TC8234.h **** 
 423:src/partition_TC8234.h **** /*
 424:src/partition_TC8234.h **** // </h>
 425:src/partition_TC8234.h **** */
 426:src/partition_TC8234.h **** 
 427:src/partition_TC8234.h **** 
 428:src/partition_TC8234.h **** 
 429:src/partition_TC8234.h **** /*
 430:src/partition_TC8234.h ****     max 128 SAU regions.
 431:src/partition_TC8234.h ****     SAU regions are defined in partition.h
ARM GAS  C:\Users\CCMA\AppData\Local\Temp\ccJ9Pjse.s 			page 9


 432:src/partition_TC8234.h ****  */
 433:src/partition_TC8234.h **** 
 434:src/partition_TC8234.h **** #define SAU_INIT_REGION(n) \
 435:src/partition_TC8234.h ****     SAU->RNR  =  (n                                     & SAU_RNR_REGION_Msk); \
 436:src/partition_TC8234.h ****     SAU->RBAR =  (SAU_INIT_START##n                     & SAU_RBAR_BADDR_Msk); \
 437:src/partition_TC8234.h ****     SAU->RLAR =  (SAU_INIT_END##n                       & SAU_RLAR_LADDR_Msk) | \
 438:src/partition_TC8234.h ****                 ((SAU_INIT_NSC##n << SAU_RLAR_NSC_Pos)  & SAU_RLAR_NSC_Msk)   | 1U
 439:src/partition_TC8234.h **** 
 440:src/partition_TC8234.h **** /**
 441:src/partition_TC8234.h ****   \brief   Setup a SAU Region
 442:src/partition_TC8234.h ****   \details Writes the region information contained in SAU_Region to the
 443:src/partition_TC8234.h ****            registers SAU_RNR, SAU_RBAR, and SAU_RLAR
 444:src/partition_TC8234.h ****  */
 445:src/partition_TC8234.h **** __STATIC_INLINE void TZ_SAU_Setup(void)
 446:src/partition_TC8234.h **** {
  26              		.loc 1 446 0
  27              		.cfi_startproc
  28              		@ args = 0, pretend = 0, frame = 0
  29              		@ frame_needed = 1, uses_anonymous_args = 0
  30 0000 80B5     		push	{r7, lr}
  31              	.LCFI0:
  32              		.cfi_def_cfa_offset 8
  33              		.cfi_offset 7, -8
  34              		.cfi_offset 14, -4
  35 0002 00AF     		add	r7, sp, #0
  36              	.LCFI1:
  37              		.cfi_def_cfa_register 7
 447:src/partition_TC8234.h **** 
 448:src/partition_TC8234.h **** #if defined (__SAU_PRESENT) && (__SAU_PRESENT == 1U)
 449:src/partition_TC8234.h **** 
 450:src/partition_TC8234.h **** #if defined (SAU_INIT_REGION0) && (SAU_INIT_REGION0 == 1U)
 451:src/partition_TC8234.h ****     SAU_INIT_REGION(0);
  38              		.loc 1 451 0
  39 0004 2D4B     		ldr	r3, .L2
  40 0006 0022     		movs	r2, #0
  41 0008 9A60     		str	r2, [r3, #8]
  42 000a 2C4B     		ldr	r3, .L2
  43 000c 0022     		movs	r2, #0
  44 000e DA60     		str	r2, [r3, #12]
  45 0010 2A4B     		ldr	r3, .L2
  46 0012 2B4A     		ldr	r2, .L2+4
  47 0014 1A61     		str	r2, [r3, #16]
 452:src/partition_TC8234.h **** #endif
 453:src/partition_TC8234.h **** 
 454:src/partition_TC8234.h **** #if defined (SAU_INIT_REGION1) && (SAU_INIT_REGION1 == 1U)
 455:src/partition_TC8234.h ****     SAU_INIT_REGION(1);
  48              		.loc 1 455 0
  49 0016 294B     		ldr	r3, .L2
  50 0018 0122     		movs	r2, #1
  51 001a 9A60     		str	r2, [r3, #8]
  52 001c 274B     		ldr	r3, .L2
  53 001e 294A     		ldr	r2, .L2+8
  54 0020 DA60     		str	r2, [r3, #12]
  55 0022 264B     		ldr	r3, .L2
  56 0024 284A     		ldr	r2, .L2+12
  57 0026 1A61     		str	r2, [r3, #16]
 456:src/partition_TC8234.h **** #endif
ARM GAS  C:\Users\CCMA\AppData\Local\Temp\ccJ9Pjse.s 			page 10


 457:src/partition_TC8234.h **** 
 458:src/partition_TC8234.h **** #if defined (SAU_INIT_REGION2) && (SAU_INIT_REGION2 == 1U)
 459:src/partition_TC8234.h ****     SAU_INIT_REGION(2);
  58              		.loc 1 459 0
  59 0028 244B     		ldr	r3, .L2
  60 002a 0222     		movs	r2, #2
  61 002c 9A60     		str	r2, [r3, #8]
  62 002e 234B     		ldr	r3, .L2
  63 0030 264A     		ldr	r2, .L2+16
  64 0032 DA60     		str	r2, [r3, #12]
  65 0034 214B     		ldr	r3, .L2
  66 0036 264A     		ldr	r2, .L2+20
  67 0038 1A61     		str	r2, [r3, #16]
 460:src/partition_TC8234.h **** #endif
 461:src/partition_TC8234.h **** 
 462:src/partition_TC8234.h **** #if defined (SAU_INIT_REGION3) && (SAU_INIT_REGION3 == 1U)
 463:src/partition_TC8234.h ****     SAU_INIT_REGION(3);
  68              		.loc 1 463 0
  69 003a 204B     		ldr	r3, .L2
  70 003c 0322     		movs	r2, #3
  71 003e 9A60     		str	r2, [r3, #8]
  72 0040 1E4B     		ldr	r3, .L2
  73 0042 244A     		ldr	r2, .L2+24
  74 0044 DA60     		str	r2, [r3, #12]
  75 0046 1D4B     		ldr	r3, .L2
  76 0048 234A     		ldr	r2, .L2+28
  77 004a 1A61     		str	r2, [r3, #16]
 464:src/partition_TC8234.h **** #endif
 465:src/partition_TC8234.h **** 
 466:src/partition_TC8234.h **** #if defined (SAU_INIT_REGION4) && (SAU_INIT_REGION4 == 1U)
 467:src/partition_TC8234.h ****     SAU_INIT_REGION(4);
  78              		.loc 1 467 0
  79 004c 1B4B     		ldr	r3, .L2
  80 004e 0422     		movs	r2, #4
  81 0050 9A60     		str	r2, [r3, #8]
  82 0052 1A4B     		ldr	r3, .L2
  83 0054 A022     		movs	r2, #160
  84 0056 D205     		lsls	r2, r2, #23
  85 0058 DA60     		str	r2, [r3, #12]
  86 005a 184B     		ldr	r3, .L2
  87 005c 1F4A     		ldr	r2, .L2+32
  88 005e 1A61     		str	r2, [r3, #16]
 468:src/partition_TC8234.h **** #endif
 469:src/partition_TC8234.h **** 
 470:src/partition_TC8234.h **** #if defined (SAU_INIT_REGION5) && (SAU_INIT_REGION5 == 1U)
 471:src/partition_TC8234.h ****     SAU_INIT_REGION(5);
  89              		.loc 1 471 0
  90 0060 164B     		ldr	r3, .L2
  91 0062 0522     		movs	r2, #5
  92 0064 9A60     		str	r2, [r3, #8]
  93 0066 154B     		ldr	r3, .L2
  94 0068 1D4A     		ldr	r2, .L2+36
  95 006a DA60     		str	r2, [r3, #12]
  96 006c 134B     		ldr	r3, .L2
  97 006e 1D4A     		ldr	r2, .L2+40
  98 0070 1A61     		str	r2, [r3, #16]
 472:src/partition_TC8234.h **** #endif
ARM GAS  C:\Users\CCMA\AppData\Local\Temp\ccJ9Pjse.s 			page 11


 473:src/partition_TC8234.h **** 
 474:src/partition_TC8234.h **** #if defined (SAU_INIT_REGION6) && (SAU_INIT_REGION6 == 1U)
 475:src/partition_TC8234.h ****     SAU_INIT_REGION(6);
 476:src/partition_TC8234.h **** #endif
 477:src/partition_TC8234.h **** 
 478:src/partition_TC8234.h **** #if defined (SAU_INIT_REGION7) && (SAU_INIT_REGION7 == 1U)
 479:src/partition_TC8234.h ****     SAU_INIT_REGION(7);
 480:src/partition_TC8234.h **** #endif
 481:src/partition_TC8234.h **** 
 482:src/partition_TC8234.h ****     /* repeat this for all possible SAU regions */
 483:src/partition_TC8234.h **** 
 484:src/partition_TC8234.h **** 
 485:src/partition_TC8234.h **** #if defined (SAU_INIT_CTRL) && (SAU_INIT_CTRL == 1U)
 486:src/partition_TC8234.h ****     SAU->CTRL = ((SAU_INIT_CTRL_ENABLE << SAU_CTRL_ENABLE_Pos) & SAU_CTRL_ENABLE_Msk) |
  99              		.loc 1 486 0
 100 0072 124B     		ldr	r3, .L2
 101 0074 0122     		movs	r2, #1
 102 0076 1A60     		str	r2, [r3]
 487:src/partition_TC8234.h ****                 ((SAU_INIT_CTRL_ALLNS  << SAU_CTRL_ALLNS_Pos)  & SAU_CTRL_ALLNS_Msk)   ;
 488:src/partition_TC8234.h **** #endif
 489:src/partition_TC8234.h **** 
 490:src/partition_TC8234.h **** #endif /* defined (__SAU_PRESENT) && (__SAU_PRESENT == 1U) */
 491:src/partition_TC8234.h **** 
 492:src/partition_TC8234.h **** #if defined (SCB_CSR_AIRCR_INIT) && (SCB_CSR_AIRCR_INIT == 1U)
 493:src/partition_TC8234.h ****     SCB->SCR   = (SCB->SCR   & ~(SCB_SCR_SLEEPDEEPS_Msk)) |
 103              		.loc 1 493 0
 104 0078 1B4B     		ldr	r3, .L2+44
 105 007a 1B4A     		ldr	r2, .L2+44
 106 007c 1269     		ldr	r2, [r2, #16]
 107 007e 0821     		movs	r1, #8
 108 0080 8A43     		bics	r2, r1
 109 0082 1A61     		str	r2, [r3, #16]
 494:src/partition_TC8234.h ****                  ((SCB_CSR_DEEPSLEEPS_VAL     << SCB_SCR_SLEEPDEEPS_Pos)     & SCB_SCR_SLEEPDEEPS_M
 495:src/partition_TC8234.h **** 
 496:src/partition_TC8234.h ****     SCB->AIRCR = (SCB->AIRCR & ~(SCB_AIRCR_SYSRESETREQS_Msk | SCB_AIRCR_BFHFNMINS_Pos |  SCB_AIRCR_
 110              		.loc 1 496 0
 111 0084 184B     		ldr	r3, .L2+44
 112 0086 184A     		ldr	r2, .L2+44
 113 0088 D268     		ldr	r2, [r2, #12]
 497:src/partition_TC8234.h ****                  ((SCB_AIRCR_SYSRESETREQS_VAL << SCB_AIRCR_SYSRESETREQS_Pos) & SCB_AIRCR_SYSRESETRE
 114              		.loc 1 497 0
 115 008a 1849     		ldr	r1, .L2+48
 116 008c 0A40     		ands	r2, r1
 498:src/partition_TC8234.h ****                  ((SCB_AIRCR_PRIS_VAL         << SCB_AIRCR_BFHFNMINS_Pos)    & SCB_AIRCR_BFHFNMINS_
 117              		.loc 1 498 0
 118 008e 44F20001 		movw	r1, #16384
 119 0092 0A43     		orrs	r2, r1
 496:src/partition_TC8234.h ****                  ((SCB_AIRCR_SYSRESETREQS_VAL << SCB_AIRCR_SYSRESETREQS_Pos) & SCB_AIRCR_SYSRESETRE
 120              		.loc 1 496 0
 121 0094 DA60     		str	r2, [r3, #12]
 499:src/partition_TC8234.h ****                  ((SCB_AIRCR_BFHFNMINS_VAL    << SCB_AIRCR_PRIS_Pos)         & SCB_AIRCR_PRIS_Msk);
 500:src/partition_TC8234.h **** #endif /* defined (SCB_CSR_AIRCR_INIT) && (SCB_CSR_AIRCR_INIT == 1U) */
 501:src/partition_TC8234.h **** 
 502:src/partition_TC8234.h **** #if defined (SCB_ICSR_INIT) && (SCB_ICSR_INIT == 1U)
 503:src/partition_TC8234.h ****     SCB->ICSR  = (SCB->ICSR  & ~(SCB_ICSR_STTNS_Msk)) |
 504:src/partition_TC8234.h ****                  ((SCB_ICSR_STTNS_VAL         << SCB_ICSR_STTNS_Pos)         & SCB_ICSR_STTNS_Msk);
 505:src/partition_TC8234.h **** #endif /* defined (SCB_ICSR_INIT) && (SCB_ICSR_INIT == 1U) */
ARM GAS  C:\Users\CCMA\AppData\Local\Temp\ccJ9Pjse.s 			page 12


 506:src/partition_TC8234.h **** 
 507:src/partition_TC8234.h **** #if defined (NVIC_INIT_ITNS0) && (NVIC_INIT_ITNS0 == 1U)
 508:src/partition_TC8234.h ****     NVIC->ITNS[0] = NVIC_INIT_ITNS0_VAL;
 122              		.loc 1 508 0
 123 0096 164A     		ldr	r2, .L2+52
 124 0098 40F28023 		movw	r3, #640
 125 009c 0021     		movs	r1, #0
 126 009e D150     		str	r1, [r2, r3]
 509:src/partition_TC8234.h **** #endif
 510:src/partition_TC8234.h **** 
 511:src/partition_TC8234.h **** #if defined (NVIC_INIT_ITNS1) && (NVIC_INIT_ITNS1 == 1U)
 512:src/partition_TC8234.h ****     NVIC->ITNS[1] = NVIC_INIT_ITNS1_VAL;
 127              		.loc 1 512 0
 128 00a0 134A     		ldr	r2, .L2+52
 129 00a2 40F28423 		movw	r3, #644
 130 00a6 0021     		movs	r1, #0
 131 00a8 D150     		str	r1, [r2, r3]
 513:src/partition_TC8234.h **** #endif
 514:src/partition_TC8234.h **** 
 515:src/partition_TC8234.h **** #if defined (NVIC_INIT_ITNS2) && (NVIC_INIT_ITNS2 == 1U)
 516:src/partition_TC8234.h ****     NVIC->ITNS[2] = NVIC_INIT_ITNS2_VAL;
 132              		.loc 1 516 0
 133 00aa 114A     		ldr	r2, .L2+52
 134 00ac 40F28823 		movw	r3, #648
 135 00b0 0021     		movs	r1, #0
 136 00b2 D150     		str	r1, [r2, r3]
 517:src/partition_TC8234.h **** #endif
 518:src/partition_TC8234.h **** 
 519:src/partition_TC8234.h **** 
 520:src/partition_TC8234.h ****     /* repeat this for all possible ITNS elements */
 521:src/partition_TC8234.h **** 
 522:src/partition_TC8234.h **** }
 137              		.loc 1 522 0
 138 00b4 C046     		nop
 139 00b6 BD46     		mov	sp, r7
 140              		@ sp needed
 141 00b8 80BD     		pop	{r7, pc}
 142              	.L3:
 143 00ba C046     		.align	2
 144              	.L2:
 145 00bc D0ED00E0 		.word	-536810032
 146 00c0 03000400 		.word	262147
 147 00c4 00000410 		.word	268697600
 148 00c8 E1FF0710 		.word	268959713
 149 00cc 00FC0020 		.word	536935424
 150 00d0 E3FF0020 		.word	536936419
 151 00d4 00000130 		.word	805371904
 152 00d8 E1FF0130 		.word	805437409
 153 00dc E1FFFF5F 		.word	1610612705
 154 00e0 007C8000 		.word	8420352
 155 00e4 E37F8000 		.word	8421347
 156 00e8 00ED00E0 		.word	-536810240
 157 00ec F2BFFFFF 		.word	-16398
 158 00f0 00E100E0 		.word	-536813312
 159              		.cfi_endproc
 160              	.LFE61:
 161              		.size	TZ_SAU_Setup, .-TZ_SAU_Setup
ARM GAS  C:\Users\CCMA\AppData\Local\Temp\ccJ9Pjse.s 			page 13


 162              		.align	2
 163              		.code	16
 164              		.thumb_func
 165              		.type	SCU_Setup, %function
 166              	SCU_Setup:
 167              	.LFB62:
 523:src/partition_TC8234.h **** 
 524:src/partition_TC8234.h **** 
 525:src/partition_TC8234.h **** /*
 526:src/partition_TC8234.h **** // <h> Peripheral Secure Attribution Configuration
 527:src/partition_TC8234.h **** */
 528:src/partition_TC8234.h **** 
 529:src/partition_TC8234.h **** /*
 530:src/partition_TC8234.h ****     PNSSET0
 531:src/partition_TC8234.h **** */
 532:src/partition_TC8234.h **** /*
 533:src/partition_TC8234.h **** // Module 0..31
 534:src/partition_TC8234.h **** //   <o.9>  USBH       <0=> Secure <1=> Non-Secure
 535:src/partition_TC8234.h **** //   <o.13>  SD0   <0=> Secure <1=> Non-Secure
 536:src/partition_TC8234.h **** //   <o.14>  SD1      <0=> Secure <1=> Non-Secure
 537:src/partition_TC8234.h **** //   <o.16>  EBI    <0=> Secure <1=> Non-Secure
 538:src/partition_TC8234.h **** //   <o.24>  PDMA1      <0=> Secure <1=> Non-Secure
 539:src/partition_TC8234.h **** */
 540:src/partition_TC8234.h **** #define SCU_INIT_PNSSET0_VAL      0x00000001
 541:src/partition_TC8234.h **** /*
 542:src/partition_TC8234.h ****     PNSSET1
 543:src/partition_TC8234.h **** */
 544:src/partition_TC8234.h **** /*
 545:src/partition_TC8234.h **** // Module 0..31
 546:src/partition_TC8234.h **** //   <o.17>  CRC       <0=> Secure <1=> Non-Secure
 547:src/partition_TC8234.h **** //   <o.18>  CRPT   <0=> Secure <1=> Non-Secure
 548:src/partition_TC8234.h **** */
 549:src/partition_TC8234.h **** #define SCU_INIT_PNSSET1_VAL      0x00000000
 550:src/partition_TC8234.h **** /*
 551:src/partition_TC8234.h ****     PNSSET2
 552:src/partition_TC8234.h **** */
 553:src/partition_TC8234.h **** /*
 554:src/partition_TC8234.h **** // Module 0..31
 555:src/partition_TC8234.h **** //   <o.1>  RTC       <0=> Secure <1=> Non-Secure
 556:src/partition_TC8234.h **** //   <o.3>  EADC   <0=> Secure <1=> Non-Secure
 557:src/partition_TC8234.h **** //   <o.5>  ACMP0      <0=> Secure <1=> Non-Secure
 558:src/partition_TC8234.h **** //   <o.6>  OPA    <0=> Secure <1=> Non-Secure
 559:src/partition_TC8234.h **** //   <o.7>  DAC      <0=> Secure <1=> Non-Secure
 560:src/partition_TC8234.h **** //   <o.8>  I2S0      <0=> Secure <1=> Non-Secure
 561:src/partition_TC8234.h **** //   <o.13>  OTG      <0=> Secure <1=> Non-Secure
 562:src/partition_TC8234.h **** //   <o.17>  TMR23      <0=> Secure <1=> Non-Secure
 563:src/partition_TC8234.h **** //   <o.24>  PWM0      <0=> Secure <1=> Non-Secure
 564:src/partition_TC8234.h **** //   <o.25>  PWM1      <0=> Secure <1=> Non-Secure
 565:src/partition_TC8234.h **** //   <o.26>  BPWM0      <0=> Secure <1=> Non-Secure
 566:src/partition_TC8234.h **** //   <o.27>  BPWM1      <0=> Secure <1=> Non-Secure
 567:src/partition_TC8234.h **** */
 568:src/partition_TC8234.h **** #define SCU_INIT_PNSSET2_VAL      0x00000000
 569:src/partition_TC8234.h **** /*
 570:src/partition_TC8234.h ****     PNSSET3
 571:src/partition_TC8234.h **** */
 572:src/partition_TC8234.h **** /*
 573:src/partition_TC8234.h **** // Module 0..31
ARM GAS  C:\Users\CCMA\AppData\Local\Temp\ccJ9Pjse.s 			page 14


 574:src/partition_TC8234.h **** //   <o.0>  SPI0       <0=> Secure <1=> Non-Secure
 575:src/partition_TC8234.h **** //   <o.1>  SPI1   <0=> Secure <1=> Non-Secure
 576:src/partition_TC8234.h **** //   <o.2>  SPI2      <0=> Secure <1=> Non-Secure
 577:src/partition_TC8234.h **** //   <o.3>  SPI3    <0=> Secure <1=> Non-Secure
 578:src/partition_TC8234.h **** //   <o.4>  SPI4      <0=> Secure <1=> Non-Secure
 579:src/partition_TC8234.h **** //   <o.5>  SPI5      <0=> Secure <1=> Non-Secure
 580:src/partition_TC8234.h **** //   <o.16>  UART0      <0=> Secure <1=> Non-Secure
 581:src/partition_TC8234.h **** //   <o.17>  UART1      <0=> Secure <1=> Non-Secure
 582:src/partition_TC8234.h **** //   <o.18>  UART2      <0=> Secure <1=> Non-Secure
 583:src/partition_TC8234.h **** //   <o.19>  UART3      <0=> Secure <1=> Non-Secure
 584:src/partition_TC8234.h **** //   <o.20>  UART4      <0=> Secure <1=> Non-Secure
 585:src/partition_TC8234.h **** //   <o.21>  UART5      <0=> Secure <1=> Non-Secure
 586:src/partition_TC8234.h **** */
 587:src/partition_TC8234.h **** #define SCU_INIT_PNSSET3_VAL      0x00010000
 588:src/partition_TC8234.h **** /*
 589:src/partition_TC8234.h ****     PNSSET4
 590:src/partition_TC8234.h **** */
 591:src/partition_TC8234.h **** /*
 592:src/partition_TC8234.h **** // Module 0..31
 593:src/partition_TC8234.h **** //   <o.0>  I2C0       <0=> Secure <1=> Non-Secure
 594:src/partition_TC8234.h **** //   <o.1>  I2C1   <0=> Secure <1=> Non-Secure
 595:src/partition_TC8234.h **** //   <o.2>  I2C2      <0=> Secure <1=> Non-Secure
 596:src/partition_TC8234.h **** //   <o.16>  SC0      <0=> Secure <1=> Non-Secure
 597:src/partition_TC8234.h **** //   <o.17>  SC1      <0=> Secure <1=> Non-Secure
 598:src/partition_TC8234.h **** //   <o.18>  SC2      <0=> Secure <1=> Non-Secure
 599:src/partition_TC8234.h **** */
 600:src/partition_TC8234.h **** #define SCU_INIT_PNSSET4_VAL      0x00000000
 601:src/partition_TC8234.h **** /*
 602:src/partition_TC8234.h ****     PNSSET5
 603:src/partition_TC8234.h **** */
 604:src/partition_TC8234.h **** /*
 605:src/partition_TC8234.h **** // Module 0..31
 606:src/partition_TC8234.h **** //   <o.0>  CAN0       <0=> Secure <1=> Non-Secure
 607:src/partition_TC8234.h **** //   <o.16>  QEI0   <0=> Secure <1=> Non-Secure
 608:src/partition_TC8234.h **** //   <o.17>  QEI1      <0=> Secure <1=> Non-Secure
 609:src/partition_TC8234.h **** //   <o.20>  ECAP0    <0=> Secure <1=> Non-Secure
 610:src/partition_TC8234.h **** //   <o.21>  ECAP1      <0=> Secure <1=> Non-Secure
 611:src/partition_TC8234.h **** //   <o.23>  DSRC    <0=> Secure <1=> Non-Secure
 612:src/partition_TC8234.h **** //   <o.24>  LCD      <0=> Secure <1=> Non-Secure
 613:src/partition_TC8234.h **** //   <o.25>  TRNG    <0=> Secure <1=> Non-Secure
 614:src/partition_TC8234.h **** */
 615:src/partition_TC8234.h **** #define SCU_INIT_PNSSET5_VAL      0x00000000
 616:src/partition_TC8234.h **** /*
 617:src/partition_TC8234.h ****     PNSSET6
 618:src/partition_TC8234.h **** */
 619:src/partition_TC8234.h **** /*
 620:src/partition_TC8234.h **** // Module 0..31
 621:src/partition_TC8234.h **** //   <o.0>  USBD       <0=> Secure <1=> Non-Secure
 622:src/partition_TC8234.h **** //   <o.16>  USCI0   <0=> Secure <1=> Non-Secure
 623:src/partition_TC8234.h **** //   <o.17>  USCI1      <0=> Secure <1=> Non-Secure
 624:src/partition_TC8234.h **** */
 625:src/partition_TC8234.h **** #define SCU_INIT_PNSSET6_VAL      0x00000000
 626:src/partition_TC8234.h **** /*
 627:src/partition_TC8234.h **** // </h>
 628:src/partition_TC8234.h **** */
 629:src/partition_TC8234.h **** 
 630:src/partition_TC8234.h **** 
ARM GAS  C:\Users\CCMA\AppData\Local\Temp\ccJ9Pjse.s 			page 15


 631:src/partition_TC8234.h **** 
 632:src/partition_TC8234.h **** /*
 633:src/partition_TC8234.h **** // <h> GPIO Secure Attribution Configuration
 634:src/partition_TC8234.h **** */
 635:src/partition_TC8234.h **** 
 636:src/partition_TC8234.h **** /*
 637:src/partition_TC8234.h ****     IONSSET
 638:src/partition_TC8234.h **** */
 639:src/partition_TC8234.h **** /*
 640:src/partition_TC8234.h **** // Bit 0..31
 641:src/partition_TC8234.h **** //   <o.0>  PA       <0=> Secure <1=> Non-Secure
 642:src/partition_TC8234.h **** //   <o.1>  PB   <0=> Secure <1=> Non-Secure
 643:src/partition_TC8234.h **** //   <o.2>  PC      <0=> Secure <1=> Non-Secure
 644:src/partition_TC8234.h **** //   <o.3>  PD    <0=> Secure <1=> Non-Secure
 645:src/partition_TC8234.h **** //   <o.4>  PE      <0=> Secure <1=> Non-Secure
 646:src/partition_TC8234.h **** //   <o.5>  PF      <0=> Secure <1=> Non-Secure
 647:src/partition_TC8234.h **** //   <o.6>  PG      <0=> Secure <1=> Non-Secure
 648:src/partition_TC8234.h **** */
 649:src/partition_TC8234.h **** #define SCU_INIT_IONSSET_VAL      0x00000000
 650:src/partition_TC8234.h **** /*
 651:src/partition_TC8234.h **** // </h>
 652:src/partition_TC8234.h **** */
 653:src/partition_TC8234.h **** 
 654:src/partition_TC8234.h **** 
 655:src/partition_TC8234.h **** /*
 656:src/partition_TC8234.h **** // <h> SRAM Secure Attribution Configuration
 657:src/partition_TC8234.h **** */
 658:src/partition_TC8234.h **** 
 659:src/partition_TC8234.h **** /*
 660:src/partition_TC8234.h ****     SRAMNSSET
 661:src/partition_TC8234.h **** */
 662:src/partition_TC8234.h **** /*
 663:src/partition_TC8234.h **** // Bit 0..31
 664:src/partition_TC8234.h **** //   <o.0>  0x00000000 ~ 0x00001FFF        <0=> Secure <1=> Non-Secure
 665:src/partition_TC8234.h **** //   <o.1>  0x00002000 ~ 0x00003FFF   <0=> Secure <1=> Non-Secure
 666:src/partition_TC8234.h **** //   <o.2>  0x00004000 ~ 0x00005FFF      <0=> Secure <1=> Non-Secure
 667:src/partition_TC8234.h **** //   <o.3>  0x00006000 ~ 0x00007FFF    <0=> Secure <1=> Non-Secure
 668:src/partition_TC8234.h **** //   <o.4>  0x00008000 ~ 0x00009FFF      <0=> Secure <1=> Non-Secure
 669:src/partition_TC8234.h **** //   <o.5>  0x0000A000 ~ 0x0000BFFF      <0=> Secure <1=> Non-Secure
 670:src/partition_TC8234.h **** //   <o.6>  0x0000C000 ~ 0x0000DFFF      <0=> Secure <1=> Non-Secure
 671:src/partition_TC8234.h **** //   <o.7>  0x0000E000 ~ 0x0000FFFF       <0=> Secure <1=> Non-Secure
 672:src/partition_TC8234.h **** //   <o.8>  0x00010000 ~ 0x00011FFF   <0=> Secure <1=> Non-Secure
 673:src/partition_TC8234.h **** //   <o.9>  0x00012000 ~ 0x00013FFF      <0=> Secure <1=> Non-Secure
 674:src/partition_TC8234.h **** //   <o.10> 0x00014000 ~ 0x00015FFF    <0=> Secure <1=> Non-Secure
 675:src/partition_TC8234.h **** //   <o.11> 0x00016000 ~ 0x00017FFF      <0=> Secure <1=> Non-Secure
 676:src/partition_TC8234.h **** //   <o.12> 0x00018000 ~ 0x00019FFF      <0=> Secure <1=> Non-Secure
 677:src/partition_TC8234.h **** //   <o.13> 0x0001A000 ~ 0x0001BFFF      <0=> Secure <1=> Non-Secure
 678:src/partition_TC8234.h **** //   <o.14> 0x0001C000 ~ 0x0001DFFF      <0=> Secure <1=> Non-Secure
 679:src/partition_TC8234.h **** //   <o.15> 0x0001E000 ~ 0x0001FFFF      <0=> Secure <1=> Non-Secure
 680:src/partition_TC8234.h **** */
 681:src/partition_TC8234.h **** #define SCU_INIT_SRAMNSSET_VAL      0x0000FF00
 682:src/partition_TC8234.h **** 
 683:src/partition_TC8234.h **** /*
 684:src/partition_TC8234.h **** // </h>
 685:src/partition_TC8234.h **** */
 686:src/partition_TC8234.h **** 
 687:src/partition_TC8234.h **** 
ARM GAS  C:\Users\CCMA\AppData\Local\Temp\ccJ9Pjse.s 			page 16


 688:src/partition_TC8234.h **** 
 689:src/partition_TC8234.h **** 
 690:src/partition_TC8234.h **** 
 691:src/partition_TC8234.h **** 
 692:src/partition_TC8234.h **** /**
 693:src/partition_TC8234.h ****   \brief   Setup SCU Configuration Unit
 694:src/partition_TC8234.h ****   \details
 695:src/partition_TC8234.h **** 
 696:src/partition_TC8234.h ****  */
 697:src/partition_TC8234.h **** __STATIC_INLINE void SCU_Setup(void)
 698:src/partition_TC8234.h **** {
 168              		.loc 1 698 0
 169              		.cfi_startproc
 170              		@ args = 0, pretend = 0, frame = 0
 171              		@ frame_needed = 1, uses_anonymous_args = 0
 172 00f4 80B5     		push	{r7, lr}
 173              	.LCFI2:
 174              		.cfi_def_cfa_offset 8
 175              		.cfi_offset 7, -8
 176              		.cfi_offset 14, -4
 177 00f6 00AF     		add	r7, sp, #0
 178              	.LCFI3:
 179              		.cfi_def_cfa_register 7
 699:src/partition_TC8234.h ****     SCU->PNSSET[0] = SCU_INIT_PNSSET0_VAL;
 180              		.loc 1 699 0
 181 00f8 0F4B     		ldr	r3, .L5
 182 00fa 0122     		movs	r2, #1
 183 00fc 1A60     		str	r2, [r3]
 700:src/partition_TC8234.h ****     SCU->PNSSET[1] = SCU_INIT_PNSSET1_VAL;
 184              		.loc 1 700 0
 185 00fe 0E4B     		ldr	r3, .L5
 186 0100 0022     		movs	r2, #0
 187 0102 5A60     		str	r2, [r3, #4]
 701:src/partition_TC8234.h ****     SCU->PNSSET[2] = SCU_INIT_PNSSET2_VAL;
 188              		.loc 1 701 0
 189 0104 0C4B     		ldr	r3, .L5
 190 0106 0022     		movs	r2, #0
 191 0108 9A60     		str	r2, [r3, #8]
 702:src/partition_TC8234.h ****     SCU->PNSSET[3] = SCU_INIT_PNSSET3_VAL;
 192              		.loc 1 702 0
 193 010a 0B4B     		ldr	r3, .L5
 194 010c 8022     		movs	r2, #128
 195 010e 5202     		lsls	r2, r2, #9
 196 0110 DA60     		str	r2, [r3, #12]
 703:src/partition_TC8234.h ****     SCU->PNSSET[4] = SCU_INIT_PNSSET4_VAL;
 197              		.loc 1 703 0
 198 0112 094B     		ldr	r3, .L5
 199 0114 0022     		movs	r2, #0
 200 0116 1A61     		str	r2, [r3, #16]
 704:src/partition_TC8234.h ****     SCU->PNSSET[5] = SCU_INIT_PNSSET5_VAL;
 201              		.loc 1 704 0
 202 0118 074B     		ldr	r3, .L5
 203 011a 0022     		movs	r2, #0
 204 011c 5A61     		str	r2, [r3, #20]
 705:src/partition_TC8234.h ****     SCU->PNSSET[6] = SCU_INIT_PNSSET6_VAL;
 205              		.loc 1 705 0
 206 011e 064B     		ldr	r3, .L5
ARM GAS  C:\Users\CCMA\AppData\Local\Temp\ccJ9Pjse.s 			page 17


 207 0120 0022     		movs	r2, #0
 208 0122 9A61     		str	r2, [r3, #24]
 706:src/partition_TC8234.h **** 
 707:src/partition_TC8234.h ****     SCU->IONSSET = SCU_INIT_IONSSET_VAL;
 209              		.loc 1 707 0
 210 0124 044B     		ldr	r3, .L5
 211 0126 0022     		movs	r2, #0
 212 0128 1A62     		str	r2, [r3, #32]
 708:src/partition_TC8234.h ****     SCU->SRAMNSSET = SCU_INIT_SRAMNSSET_VAL;
 213              		.loc 1 708 0
 214 012a 034B     		ldr	r3, .L5
 215 012c 4FF60072 		movw	r2, #65280
 216 0130 5A62     		str	r2, [r3, #36]
 709:src/partition_TC8234.h **** 
 710:src/partition_TC8234.h **** 
 711:src/partition_TC8234.h **** }
 217              		.loc 1 711 0
 218 0132 C046     		nop
 219 0134 BD46     		mov	sp, r7
 220              		@ sp needed
 221 0136 80BD     		pop	{r7, pc}
 222              	.L6:
 223              		.align	2
 224              	.L5:
 225 0138 00F00240 		.word	1073934336
 226              		.cfi_endproc
 227              	.LFE62:
 228              		.size	SCU_Setup, .-SCU_Setup
 229              		.global	gau32ClkSrcTbl
 230              		.section	.rodata
 231              		.align	2
 232              		.type	gau32ClkSrcTbl, %object
 233              		.size	gau32ClkSrcTbl, 32
 234              	gau32ClkSrcTbl:
 235 0000 001BB700 		.word	12000000
 236 0004 00800000 		.word	32768
 237 0008 00000000 		.word	0
 238 000c 10270000 		.word	10000
 239 0010 00000000 		.word	0
 240 0014 00000000 		.word	0
 241 0018 006CDC02 		.word	48000000
 242 001c 001BB700 		.word	12000000
 243              		.text
 244              		.align	2
 245              		.global	SystemCoreClockUpdate
 246              		.code	16
 247              		.thumb_func
 248              		.type	SystemCoreClockUpdate, %function
 249              	SystemCoreClockUpdate:
 250              	.LFB63:
 251              		.file 2 "src/system_TC8234.c"
   1:src/system_TC8234.c **** /**************************************************************************//**
   2:src/system_TC8234.c ****  * @file     system_TC8234.c
   3:src/system_TC8234.c ****  * @version  V2.00
   4:src/system_TC8234.c ****  * $Revision: 4 $
   5:src/system_TC8234.c ****  * $Date: 16/08/15 10:33a $
   6:src/system_TC8234.c ****  * @brief    System Setting Source File
ARM GAS  C:\Users\CCMA\AppData\Local\Temp\ccJ9Pjse.s 			page 18


   7:src/system_TC8234.c ****  *
   8:src/system_TC8234.c ****  * @note
   9:src/system_TC8234.c ****  * Copyright (C) 2016 Nuvoton Technology Corp. All rights reserved.
  10:src/system_TC8234.c ****  *
  11:src/system_TC8234.c ****  ******************************************************************************/
  12:src/system_TC8234.c **** #include <stdio.h>
  13:src/system_TC8234.c **** #include <stdint.h>
  14:src/system_TC8234.c **** #include "TC8234.h"
  15:src/system_TC8234.c **** 
  16:src/system_TC8234.c **** #if defined (__ARM_FEATURE_CMSE) &&  (__ARM_FEATURE_CMSE == 3U)
  17:src/system_TC8234.c ****   #include "partition_TC8234.h"
  18:src/system_TC8234.c **** #endif
  19:src/system_TC8234.c **** 
  20:src/system_TC8234.c **** 
  21:src/system_TC8234.c **** extern void *g_pfnVectors;                   /* see startup file */
  22:src/system_TC8234.c **** 
  23:src/system_TC8234.c **** /*----------------------------------------------------------------------------
  24:src/system_TC8234.c ****   Clock Variable definitions
  25:src/system_TC8234.c ****  *----------------------------------------------------------------------------*/
  26:src/system_TC8234.c **** //uint32_t SystemCoreClock  = __HSI;              /*!< System Clock Frequency (Core Clock) */
  27:src/system_TC8234.c **** //uint32_t CyclesPerUs      = (__HSI / 1000000);  /*!< Cycles per micro second             */
  28:src/system_TC8234.c **** //uint32_t PllClock         = __HSI;              /*!< PLL Output Clock Frequency          */
  29:src/system_TC8234.c **** const uint32_t gau32ClkSrcTbl[] = {__HXT, __LXT, NULL, __LIRC, NULL, NULL, __HIRC48, __HIRC};
  30:src/system_TC8234.c **** 
  31:src/system_TC8234.c **** 
  32:src/system_TC8234.c **** /**
  33:src/system_TC8234.c ****  * @brief    Update the Variable SystemCoreClock
  34:src/system_TC8234.c ****  *
  35:src/system_TC8234.c ****  * @param    None
  36:src/system_TC8234.c ****  *
  37:src/system_TC8234.c ****  * @return   None
  38:src/system_TC8234.c ****  *
  39:src/system_TC8234.c ****  * @details  This function is used to update the variable SystemCoreClock
  40:src/system_TC8234.c ****  *           and must be called whenever the core clock is changed.
  41:src/system_TC8234.c ****  */
  42:src/system_TC8234.c **** void SystemCoreClockUpdate(void)
  43:src/system_TC8234.c **** {
 252              		.loc 2 43 0
 253              		.cfi_startproc
 254              		@ args = 0, pretend = 0, frame = 0
 255              		@ frame_needed = 1, uses_anonymous_args = 0
 256 013c 80B5     		push	{r7, lr}
 257              	.LCFI4:
 258              		.cfi_def_cfa_offset 8
 259              		.cfi_offset 7, -8
 260              		.cfi_offset 14, -4
 261 013e 00AF     		add	r7, sp, #0
 262              	.LCFI5:
 263              		.cfi_def_cfa_register 7
  44:src/system_TC8234.c **** #if 0
  45:src/system_TC8234.c **** 	uint32_t u32Freq, u32ClkSrc;
  46:src/system_TC8234.c ****     uint32_t u32HclkDiv;
  47:src/system_TC8234.c **** 
  48:src/system_TC8234.c ****     u32ClkSrc = CLK->CLKSEL0 & CLK_CLKSEL0_HCLKSEL_Msk;
  49:src/system_TC8234.c **** 
  50:src/system_TC8234.c ****     /* Update PLL Clock */
  51:src/system_TC8234.c ****     PllClock = CLK_GetPLLClockFreq();
ARM GAS  C:\Users\CCMA\AppData\Local\Temp\ccJ9Pjse.s 			page 19


  52:src/system_TC8234.c **** 
  53:src/system_TC8234.c ****     if(u32ClkSrc != CLK_CLKSEL0_HCLKSEL_PLL)
  54:src/system_TC8234.c ****     {
  55:src/system_TC8234.c ****         /* Use the clock sources directly */
  56:src/system_TC8234.c ****         u32Freq = gau32ClkSrcTbl[u32ClkSrc];
  57:src/system_TC8234.c ****     }
  58:src/system_TC8234.c ****     else
  59:src/system_TC8234.c ****     {
  60:src/system_TC8234.c ****         /* Use PLL clock */
  61:src/system_TC8234.c ****         u32Freq = PllClock;
  62:src/system_TC8234.c ****     }
  63:src/system_TC8234.c **** 
  64:src/system_TC8234.c ****     u32HclkDiv = (CLK->CLKDIV0 & CLK_CLKDIV0_HCLKDIV_Msk) + 1;
  65:src/system_TC8234.c **** 
  66:src/system_TC8234.c ****     /* Update System Core Clock */
  67:src/system_TC8234.c ****     SystemCoreClock = u32Freq / u32HclkDiv;
  68:src/system_TC8234.c **** 
  69:src/system_TC8234.c ****     CyclesPerUs = (SystemCoreClock + 500000) / 1000000;
  70:src/system_TC8234.c **** #endif
  71:src/system_TC8234.c **** }
 264              		.loc 2 71 0
 265 0140 C046     		nop
 266 0142 BD46     		mov	sp, r7
 267              		@ sp needed
 268 0144 80BD     		pop	{r7, pc}
 269              		.cfi_endproc
 270              	.LFE63:
 271              		.size	SystemCoreClockUpdate, .-SystemCoreClockUpdate
 272 0146 C046     		.align	2
 273              		.global	SystemInit
 274              		.code	16
 275              		.thumb_func
 276              		.type	SystemInit, %function
 277              	SystemInit:
 278              	.LFB64:
  72:src/system_TC8234.c **** 
  73:src/system_TC8234.c **** 
  74:src/system_TC8234.c **** 
  75:src/system_TC8234.c **** /**
  76:src/system_TC8234.c ****  * @brief    System Initialization
  77:src/system_TC8234.c ****  *
  78:src/system_TC8234.c ****  * @param    None
  79:src/system_TC8234.c ****  *
  80:src/system_TC8234.c ****  * @return   None
  81:src/system_TC8234.c ****  *
  82:src/system_TC8234.c ****  * @details  The necessary initialization of system. Global variables are forbidden here.
  83:src/system_TC8234.c ****  */
  84:src/system_TC8234.c **** void SystemInit (void)
  85:src/system_TC8234.c **** {
 279              		.loc 2 85 0
 280              		.cfi_startproc
 281              		@ args = 0, pretend = 0, frame = 0
 282              		@ frame_needed = 1, uses_anonymous_args = 0
 283 0148 80B5     		push	{r7, lr}
 284              	.LCFI6:
 285              		.cfi_def_cfa_offset 8
 286              		.cfi_offset 7, -8
ARM GAS  C:\Users\CCMA\AppData\Local\Temp\ccJ9Pjse.s 			page 20


 287              		.cfi_offset 14, -4
 288 014a 00AF     		add	r7, sp, #0
 289              	.LCFI7:
 290              		.cfi_def_cfa_register 7
  86:src/system_TC8234.c **** #if defined (__VTOR_PRESENT) && (__VTOR_PRESENT == 1U)
  87:src/system_TC8234.c **** 	SCB->VTOR = (uint32_t) &g_pfnVectors;
 291              		.loc 2 87 0
 292 014c 044B     		ldr	r3, .L9
 293 014e 054A     		ldr	r2, .L9+4
 294 0150 9A60     		str	r2, [r3, #8]
  88:src/system_TC8234.c **** #endif
  89:src/system_TC8234.c **** 
  90:src/system_TC8234.c **** #if defined (__ARM_FEATURE_CMSE) && (__ARM_FEATURE_CMSE == 3U)
  91:src/system_TC8234.c ****   TZ_SAU_Setup();
 295              		.loc 2 91 0
 296 0152 FFF755FF 		bl	TZ_SAU_Setup
  92:src/system_TC8234.c ****   SCU_Setup();
 297              		.loc 2 92 0
 298 0156 FFF7CDFF 		bl	SCU_Setup
  93:src/system_TC8234.c **** #endif
  94:src/system_TC8234.c **** 
  95:src/system_TC8234.c **** #ifdef INIT_SYSCLK_AT_BOOTING
  96:src/system_TC8234.c ****     
  97:src/system_TC8234.c **** #endif
  98:src/system_TC8234.c **** 	
  99:src/system_TC8234.c **** }
 299              		.loc 2 99 0
 300 015a C046     		nop
 301 015c BD46     		mov	sp, r7
 302              		@ sp needed
 303 015e 80BD     		pop	{r7, pc}
 304              	.L10:
 305              		.align	2
 306              	.L9:
 307 0160 00ED00E0 		.word	-536810240
 308 0164 00000000 		.word	g_pfnVectors
 309              		.cfi_endproc
 310              	.LFE64:
 311              		.size	SystemInit, .-SystemInit
 312              	.Letext0:
 313              		.file 3 "c:\\program files\\gnu tools arm embedded\\5.4 2016q3\\arm-none-eabi\\include\\machine\\_
 314              		.file 4 "c:\\program files\\gnu tools arm embedded\\5.4 2016q3\\arm-none-eabi\\include\\sys\\_stdi
 315              		.file 5 "src/core_armv8mbl.h"
 316              		.file 6 "src/TC8234.h"
 317              		.file 7 "src/system_TC8234.h"
 318              		.section	.debug_info,"",%progbits
 319              	.Ldebug_info0:
 320 0000 F8060000 		.4byte	0x6f8
 321 0004 0200     		.2byte	0x2
 322 0006 00000000 		.4byte	.Ldebug_abbrev0
 323 000a 04       		.byte	0x4
 324 000b 01       		.uleb128 0x1
 325 000c 3D000000 		.4byte	.LASF96
 326 0010 0C       		.byte	0xc
 327 0011 D3010000 		.4byte	.LASF97
 328 0015 D2030000 		.4byte	.LASF98
 329 0019 00000000 		.4byte	.Ltext0
ARM GAS  C:\Users\CCMA\AppData\Local\Temp\ccJ9Pjse.s 			page 21


 330 001d 68010000 		.4byte	.Letext0
 331 0021 00000000 		.4byte	.Ldebug_line0
 332 0025 02       		.uleb128 0x2
 333 0026 01       		.byte	0x1
 334 0027 06       		.byte	0x6
 335 0028 4A020000 		.4byte	.LASF0
 336 002c 02       		.uleb128 0x2
 337 002d 01       		.byte	0x1
 338 002e 08       		.byte	0x8
 339 002f 18020000 		.4byte	.LASF1
 340 0033 02       		.uleb128 0x2
 341 0034 02       		.byte	0x2
 342 0035 05       		.byte	0x5
 343 0036 DE000000 		.4byte	.LASF2
 344 003a 02       		.uleb128 0x2
 345 003b 02       		.byte	0x2
 346 003c 07       		.byte	0x7
 347 003d FF020000 		.4byte	.LASF3
 348 0041 02       		.uleb128 0x2
 349 0042 04       		.byte	0x4
 350 0043 05       		.byte	0x5
 351 0044 AD010000 		.4byte	.LASF4
 352 0048 03       		.uleb128 0x3
 353 0049 11010000 		.4byte	.LASF12
 354 004d 03       		.byte	0x3
 355 004e 41       		.byte	0x41
 356 004f 53000000 		.4byte	0x53
 357 0053 02       		.uleb128 0x2
 358 0054 04       		.byte	0x4
 359 0055 07       		.byte	0x7
 360 0056 61030000 		.4byte	.LASF5
 361 005a 02       		.uleb128 0x2
 362 005b 08       		.byte	0x8
 363 005c 05       		.byte	0x5
 364 005d 7A010000 		.4byte	.LASF6
 365 0061 02       		.uleb128 0x2
 366 0062 08       		.byte	0x8
 367 0063 07       		.byte	0x7
 368 0064 5B020000 		.4byte	.LASF7
 369 0068 04       		.uleb128 0x4
 370 0069 04       		.byte	0x4
 371 006a 05       		.byte	0x5
 372 006b 696E7400 		.ascii	"int\000"
 373 006f 02       		.uleb128 0x2
 374 0070 04       		.byte	0x4
 375 0071 07       		.byte	0x7
 376 0072 82020000 		.4byte	.LASF8
 377 0076 02       		.uleb128 0x2
 378 0077 08       		.byte	0x8
 379 0078 04       		.byte	0x4
 380 0079 FD010000 		.4byte	.LASF9
 381 007d 05       		.uleb128 0x5
 382 007e 04       		.byte	0x4
 383 007f 02       		.uleb128 0x2
 384 0080 04       		.byte	0x4
 385 0081 07       		.byte	0x7
 386 0082 E8000000 		.4byte	.LASF10
ARM GAS  C:\Users\CCMA\AppData\Local\Temp\ccJ9Pjse.s 			page 22


 387 0086 02       		.uleb128 0x2
 388 0087 01       		.byte	0x1
 389 0088 08       		.byte	0x8
 390 0089 C6020000 		.4byte	.LASF11
 391 008d 03       		.uleb128 0x3
 392 008e 09020000 		.4byte	.LASF13
 393 0092 04       		.byte	0x4
 394 0093 30       		.byte	0x30
 395 0094 48000000 		.4byte	0x48
 396 0098 06       		.uleb128 0x6
 397 0099 F004     		.2byte	0x4f0
 398 009b 05       		.byte	0x5
 399 009c B401     		.2byte	0x1b4
 400 009e 71010000 		.4byte	0x171
 401 00a2 07       		.uleb128 0x7
 402 00a3 3D010000 		.4byte	.LASF14
 403 00a7 05       		.byte	0x5
 404 00a8 B601     		.2byte	0x1b6
 405 00aa 86010000 		.4byte	0x186
 406 00ae 02       		.byte	0x2
 407 00af 23       		.byte	0x23
 408 00b0 00       		.uleb128 0
 409 00b1 07       		.uleb128 0x7
 410 00b2 25030000 		.4byte	.LASF15
 411 00b6 05       		.byte	0x5
 412 00b7 B701     		.2byte	0x1b7
 413 00b9 8B010000 		.4byte	0x18b
 414 00bd 02       		.byte	0x2
 415 00be 23       		.byte	0x23
 416 00bf 40       		.uleb128 0x40
 417 00c0 07       		.uleb128 0x7
 418 00c1 96020000 		.4byte	.LASF16
 419 00c5 05       		.byte	0x5
 420 00c6 B801     		.2byte	0x1b8
 421 00c8 9B010000 		.4byte	0x19b
 422 00cc 03       		.byte	0x3
 423 00cd 23       		.byte	0x23
 424 00ce 8001     		.uleb128 0x80
 425 00d0 07       		.uleb128 0x7
 426 00d1 71010000 		.4byte	.LASF17
 427 00d5 05       		.byte	0x5
 428 00d6 B901     		.2byte	0x1b9
 429 00d8 8B010000 		.4byte	0x18b
 430 00dc 03       		.byte	0x3
 431 00dd 23       		.byte	0x23
 432 00de C001     		.uleb128 0xc0
 433 00e0 07       		.uleb128 0x7
 434 00e1 FA020000 		.4byte	.LASF18
 435 00e5 05       		.byte	0x5
 436 00e6 BA01     		.2byte	0x1ba
 437 00e8 A0010000 		.4byte	0x1a0
 438 00ec 03       		.byte	0x3
 439 00ed 23       		.byte	0x23
 440 00ee 8002     		.uleb128 0x100
 441 00f0 07       		.uleb128 0x7
 442 00f1 39030000 		.4byte	.LASF19
 443 00f5 05       		.byte	0x5
ARM GAS  C:\Users\CCMA\AppData\Local\Temp\ccJ9Pjse.s 			page 23


 444 00f6 BB01     		.2byte	0x1bb
 445 00f8 8B010000 		.4byte	0x18b
 446 00fc 03       		.byte	0x3
 447 00fd 23       		.byte	0x23
 448 00fe C002     		.uleb128 0x140
 449 0100 07       		.uleb128 0x7
 450 0101 45020000 		.4byte	.LASF20
 451 0105 05       		.byte	0x5
 452 0106 BC01     		.2byte	0x1bc
 453 0108 A5010000 		.4byte	0x1a5
 454 010c 03       		.byte	0x3
 455 010d 23       		.byte	0x23
 456 010e 8003     		.uleb128 0x180
 457 0110 07       		.uleb128 0x7
 458 0111 43030000 		.4byte	.LASF21
 459 0115 05       		.byte	0x5
 460 0116 BD01     		.2byte	0x1bd
 461 0118 8B010000 		.4byte	0x18b
 462 011c 03       		.byte	0x3
 463 011d 23       		.byte	0x23
 464 011e C003     		.uleb128 0x1c0
 465 0120 07       		.uleb128 0x7
 466 0121 0A000000 		.4byte	.LASF22
 467 0125 05       		.byte	0x5
 468 0126 BE01     		.2byte	0x1be
 469 0128 AA010000 		.4byte	0x1aa
 470 012c 03       		.byte	0x3
 471 012d 23       		.byte	0x23
 472 012e 8004     		.uleb128 0x200
 473 0130 07       		.uleb128 0x7
 474 0131 4D030000 		.4byte	.LASF23
 475 0135 05       		.byte	0x5
 476 0136 BF01     		.2byte	0x1bf
 477 0138 8B010000 		.4byte	0x18b
 478 013c 03       		.byte	0x3
 479 013d 23       		.byte	0x23
 480 013e C004     		.uleb128 0x240
 481 0140 07       		.uleb128 0x7
 482 0141 0F000000 		.4byte	.LASF24
 483 0145 05       		.byte	0x5
 484 0146 C001     		.2byte	0x1c0
 485 0148 AF010000 		.4byte	0x1af
 486 014c 03       		.byte	0x3
 487 014d 23       		.byte	0x23
 488 014e 8005     		.uleb128 0x280
 489 0150 07       		.uleb128 0x7
 490 0151 57030000 		.4byte	.LASF25
 491 0155 05       		.byte	0x5
 492 0156 C101     		.2byte	0x1c1
 493 0158 8B010000 		.4byte	0x18b
 494 015c 03       		.byte	0x3
 495 015d 23       		.byte	0x23
 496 015e C005     		.uleb128 0x2c0
 497 0160 08       		.uleb128 0x8
 498 0161 49505200 		.ascii	"IPR\000"
 499 0165 05       		.byte	0x5
 500 0166 C201     		.2byte	0x1c2
ARM GAS  C:\Users\CCMA\AppData\Local\Temp\ccJ9Pjse.s 			page 24


 501 0168 C4010000 		.4byte	0x1c4
 502 016c 03       		.byte	0x3
 503 016d 23       		.byte	0x23
 504 016e 8006     		.uleb128 0x300
 505 0170 00       		.byte	0
 506 0171 09       		.uleb128 0x9
 507 0172 81010000 		.4byte	0x181
 508 0176 81010000 		.4byte	0x181
 509 017a 0A       		.uleb128 0xa
 510 017b 7F000000 		.4byte	0x7f
 511 017f 0F       		.byte	0xf
 512 0180 00       		.byte	0
 513 0181 0B       		.uleb128 0xb
 514 0182 8D000000 		.4byte	0x8d
 515 0186 0B       		.uleb128 0xb
 516 0187 71010000 		.4byte	0x171
 517 018b 09       		.uleb128 0x9
 518 018c 8D000000 		.4byte	0x8d
 519 0190 9B010000 		.4byte	0x19b
 520 0194 0A       		.uleb128 0xa
 521 0195 7F000000 		.4byte	0x7f
 522 0199 0F       		.byte	0xf
 523 019a 00       		.byte	0
 524 019b 0B       		.uleb128 0xb
 525 019c 71010000 		.4byte	0x171
 526 01a0 0B       		.uleb128 0xb
 527 01a1 71010000 		.4byte	0x171
 528 01a5 0B       		.uleb128 0xb
 529 01a6 71010000 		.4byte	0x171
 530 01aa 0B       		.uleb128 0xb
 531 01ab 71010000 		.4byte	0x171
 532 01af 0B       		.uleb128 0xb
 533 01b0 71010000 		.4byte	0x171
 534 01b4 09       		.uleb128 0x9
 535 01b5 81010000 		.4byte	0x181
 536 01b9 C4010000 		.4byte	0x1c4
 537 01bd 0A       		.uleb128 0xa
 538 01be 7F000000 		.4byte	0x7f
 539 01c2 7B       		.byte	0x7b
 540 01c3 00       		.byte	0
 541 01c4 0B       		.uleb128 0xb
 542 01c5 B4010000 		.4byte	0x1b4
 543 01c9 0C       		.uleb128 0xc
 544 01ca 3B020000 		.4byte	.LASF26
 545 01ce 05       		.byte	0x5
 546 01cf C301     		.2byte	0x1c3
 547 01d1 98000000 		.4byte	0x98
 548 01d5 0D       		.uleb128 0xd
 549 01d6 28       		.byte	0x28
 550 01d7 05       		.byte	0x5
 551 01d8 D201     		.2byte	0x1d2
 552 01da 66020000 		.4byte	0x266
 553 01de 07       		.uleb128 0x7
 554 01df 2D010000 		.4byte	.LASF27
 555 01e3 05       		.byte	0x5
 556 01e4 D401     		.2byte	0x1d4
 557 01e6 66020000 		.4byte	0x266
ARM GAS  C:\Users\CCMA\AppData\Local\Temp\ccJ9Pjse.s 			page 25


 558 01ea 02       		.byte	0x2
 559 01eb 23       		.byte	0x23
 560 01ec 00       		.uleb128 0
 561 01ed 07       		.uleb128 0x7
 562 01ee 6C010000 		.4byte	.LASF28
 563 01f2 05       		.byte	0x5
 564 01f3 D501     		.2byte	0x1d5
 565 01f5 81010000 		.4byte	0x181
 566 01f9 02       		.byte	0x2
 567 01fa 23       		.byte	0x23
 568 01fb 04       		.uleb128 0x4
 569 01fc 07       		.uleb128 0x7
 570 01fd D7020000 		.4byte	.LASF29
 571 0201 05       		.byte	0x5
 572 0202 D701     		.2byte	0x1d7
 573 0204 81010000 		.4byte	0x181
 574 0208 02       		.byte	0x2
 575 0209 23       		.byte	0x23
 576 020a 08       		.uleb128 0x8
 577 020b 07       		.uleb128 0x7
 578 020c 12020000 		.4byte	.LASF30
 579 0210 05       		.byte	0x5
 580 0211 DB01     		.2byte	0x1db
 581 0213 81010000 		.4byte	0x181
 582 0217 02       		.byte	0x2
 583 0218 23       		.byte	0x23
 584 0219 0C       		.uleb128 0xc
 585 021a 08       		.uleb128 0x8
 586 021b 53435200 		.ascii	"SCR\000"
 587 021f 05       		.byte	0x5
 588 0220 DC01     		.2byte	0x1dc
 589 0222 81010000 		.4byte	0x181
 590 0226 02       		.byte	0x2
 591 0227 23       		.byte	0x23
 592 0228 10       		.uleb128 0x10
 593 0229 08       		.uleb128 0x8
 594 022a 43435200 		.ascii	"CCR\000"
 595 022e 05       		.byte	0x5
 596 022f DD01     		.2byte	0x1dd
 597 0231 81010000 		.4byte	0x181
 598 0235 02       		.byte	0x2
 599 0236 23       		.byte	0x23
 600 0237 14       		.uleb128 0x14
 601 0238 07       		.uleb128 0x7
 602 0239 2F030000 		.4byte	.LASF31
 603 023d 05       		.byte	0x5
 604 023e DE01     		.2byte	0x1de
 605 0240 8D000000 		.4byte	0x8d
 606 0244 02       		.byte	0x2
 607 0245 23       		.byte	0x23
 608 0246 18       		.uleb128 0x18
 609 0247 07       		.uleb128 0x7
 610 0248 56020000 		.4byte	.LASF32
 611 024c 05       		.byte	0x5
 612 024d DF01     		.2byte	0x1df
 613 024f 7B020000 		.4byte	0x27b
 614 0253 02       		.byte	0x2
ARM GAS  C:\Users\CCMA\AppData\Local\Temp\ccJ9Pjse.s 			page 26


 615 0254 23       		.byte	0x23
 616 0255 1C       		.uleb128 0x1c
 617 0256 07       		.uleb128 0x7
 618 0257 72020000 		.4byte	.LASF33
 619 025b 05       		.byte	0x5
 620 025c E001     		.2byte	0x1e0
 621 025e 81010000 		.4byte	0x181
 622 0262 02       		.byte	0x2
 623 0263 23       		.byte	0x23
 624 0264 24       		.uleb128 0x24
 625 0265 00       		.byte	0
 626 0266 0E       		.uleb128 0xe
 627 0267 81010000 		.4byte	0x181
 628 026b 09       		.uleb128 0x9
 629 026c 81010000 		.4byte	0x181
 630 0270 7B020000 		.4byte	0x27b
 631 0274 0A       		.uleb128 0xa
 632 0275 7F000000 		.4byte	0x7f
 633 0279 01       		.byte	0x1
 634 027a 00       		.byte	0
 635 027b 0B       		.uleb128 0xb
 636 027c 6B020000 		.4byte	0x26b
 637 0280 0C       		.uleb128 0xc
 638 0281 42010000 		.4byte	.LASF34
 639 0285 05       		.byte	0x5
 640 0286 E101     		.2byte	0x1e1
 641 0288 D5010000 		.4byte	0x1d5
 642 028c 0D       		.uleb128 0xd
 643 028d 14       		.byte	0x14
 644 028e 05       		.byte	0x5
 645 028f 2704     		.2byte	0x427
 646 0291 E1020000 		.4byte	0x2e1
 647 0295 07       		.uleb128 0x7
 648 0296 36020000 		.4byte	.LASF35
 649 029a 05       		.byte	0x5
 650 029b 2904     		.2byte	0x429
 651 029d 81010000 		.4byte	0x181
 652 02a1 02       		.byte	0x2
 653 02a2 23       		.byte	0x23
 654 02a3 00       		.uleb128 0
 655 02a4 07       		.uleb128 0x7
 656 02a5 73030000 		.4byte	.LASF36
 657 02a9 05       		.byte	0x5
 658 02aa 2A04     		.2byte	0x42a
 659 02ac 66020000 		.4byte	0x266
 660 02b0 02       		.byte	0x2
 661 02b1 23       		.byte	0x23
 662 02b2 04       		.uleb128 0x4
 663 02b3 08       		.uleb128 0x8
 664 02b4 524E5200 		.ascii	"RNR\000"
 665 02b8 05       		.byte	0x5
 666 02b9 2B04     		.2byte	0x42b
 667 02bb 81010000 		.4byte	0x181
 668 02bf 02       		.byte	0x2
 669 02c0 23       		.byte	0x23
 670 02c1 08       		.uleb128 0x8
 671 02c2 07       		.uleb128 0x7
ARM GAS  C:\Users\CCMA\AppData\Local\Temp\ccJ9Pjse.s 			page 27


 672 02c3 B6030000 		.4byte	.LASF37
 673 02c7 05       		.byte	0x5
 674 02c8 2C04     		.2byte	0x42c
 675 02ca 81010000 		.4byte	0x181
 676 02ce 02       		.byte	0x2
 677 02cf 23       		.byte	0x23
 678 02d0 0C       		.uleb128 0xc
 679 02d1 07       		.uleb128 0x7
 680 02d2 88030000 		.4byte	.LASF38
 681 02d6 05       		.byte	0x5
 682 02d7 2D04     		.2byte	0x42d
 683 02d9 81010000 		.4byte	0x181
 684 02dd 02       		.byte	0x2
 685 02de 23       		.byte	0x23
 686 02df 10       		.uleb128 0x10
 687 02e0 00       		.byte	0
 688 02e1 0C       		.uleb128 0xc
 689 02e2 78030000 		.4byte	.LASF39
 690 02e6 05       		.byte	0x5
 691 02e7 2E04     		.2byte	0x42e
 692 02e9 8C020000 		.4byte	0x28c
 693 02ed 09       		.uleb128 0x9
 694 02ee 66020000 		.4byte	0x266
 695 02f2 FD020000 		.4byte	0x2fd
 696 02f6 0A       		.uleb128 0xa
 697 02f7 7F000000 		.4byte	0x7f
 698 02fb 00       		.byte	0
 699 02fc 00       		.byte	0
 700 02fd 06       		.uleb128 0x6
 701 02fe 0803     		.2byte	0x308
 702 0300 06       		.byte	0x6
 703 0301 2440     		.2byte	0x4024
 704 0303 FE050000 		.4byte	0x5fe
 705 0307 07       		.uleb128 0x7
 706 0308 81030000 		.4byte	.LASF40
 707 030c 06       		.byte	0x6
 708 030d 3F43     		.2byte	0x433f
 709 030f 0E060000 		.4byte	0x60e
 710 0313 02       		.byte	0x2
 711 0314 23       		.byte	0x23
 712 0315 00       		.uleb128 0
 713 0316 07       		.uleb128 0x7
 714 0317 9B030000 		.4byte	.LASF41
 715 031b 06       		.byte	0x6
 716 031c 4043     		.2byte	0x4340
 717 031e 18060000 		.4byte	0x618
 718 0322 02       		.byte	0x2
 719 0323 23       		.byte	0x23
 720 0324 1C       		.uleb128 0x1c
 721 0325 07       		.uleb128 0x7
 722 0326 D6000000 		.4byte	.LASF42
 723 032a 06       		.byte	0x6
 724 032b 4143     		.2byte	0x4341
 725 032d 81010000 		.4byte	0x181
 726 0331 02       		.byte	0x2
 727 0332 23       		.byte	0x23
 728 0333 20       		.uleb128 0x20
ARM GAS  C:\Users\CCMA\AppData\Local\Temp\ccJ9Pjse.s 			page 28


 729 0334 07       		.uleb128 0x7
 730 0335 00000000 		.4byte	.LASF43
 731 0339 06       		.byte	0x6
 732 033a 4243     		.2byte	0x4342
 733 033c 81010000 		.4byte	0x181
 734 0340 02       		.byte	0x2
 735 0341 23       		.byte	0x23
 736 0342 24       		.uleb128 0x24
 737 0343 07       		.uleb128 0x7
 738 0344 4B010000 		.4byte	.LASF44
 739 0348 06       		.byte	0x6
 740 0349 4343     		.2byte	0x4343
 741 034b 66020000 		.4byte	0x266
 742 034f 02       		.byte	0x2
 743 0350 23       		.byte	0x23
 744 0351 28       		.uleb128 0x28
 745 0352 07       		.uleb128 0x7
 746 0353 8D030000 		.4byte	.LASF45
 747 0357 06       		.byte	0x6
 748 0358 4443     		.2byte	0x4344
 749 035a 81010000 		.4byte	0x181
 750 035e 02       		.byte	0x2
 751 035f 23       		.byte	0x23
 752 0360 2C       		.uleb128 0x2c
 753 0361 07       		.uleb128 0x7
 754 0362 F7000000 		.4byte	.LASF46
 755 0366 06       		.byte	0x6
 756 0367 4543     		.2byte	0x4345
 757 0369 81010000 		.4byte	0x181
 758 036d 02       		.byte	0x2
 759 036e 23       		.byte	0x23
 760 036f 30       		.uleb128 0x30
 761 0370 07       		.uleb128 0x7
 762 0371 00010000 		.4byte	.LASF47
 763 0375 06       		.byte	0x6
 764 0376 4643     		.2byte	0x4346
 765 0378 66020000 		.4byte	0x266
 766 037c 02       		.byte	0x2
 767 037d 23       		.byte	0x23
 768 037e 34       		.uleb128 0x34
 769 037f 07       		.uleb128 0x7
 770 0380 12030000 		.4byte	.LASF48
 771 0384 06       		.byte	0x6
 772 0385 4743     		.2byte	0x4347
 773 0387 66020000 		.4byte	0x266
 774 038b 02       		.byte	0x2
 775 038c 23       		.byte	0x23
 776 038d 38       		.uleb128 0x38
 777 038e 07       		.uleb128 0x7
 778 038f 26020000 		.4byte	.LASF49
 779 0393 06       		.byte	0x6
 780 0394 4843     		.2byte	0x4348
 781 0396 66020000 		.4byte	0x266
 782 039a 02       		.byte	0x2
 783 039b 23       		.byte	0x23
 784 039c 3C       		.uleb128 0x3c
 785 039d 07       		.uleb128 0x7
ARM GAS  C:\Users\CCMA\AppData\Local\Temp\ccJ9Pjse.s 			page 29


 786 039e 8F020000 		.4byte	.LASF50
 787 03a2 06       		.byte	0x6
 788 03a3 4943     		.2byte	0x4349
 789 03a5 66020000 		.4byte	0x266
 790 03a9 02       		.byte	0x2
 791 03aa 23       		.byte	0x23
 792 03ab 40       		.uleb128 0x40
 793 03ac 07       		.uleb128 0x7
 794 03ad 14000000 		.4byte	.LASF51
 795 03b1 06       		.byte	0x6
 796 03b2 4A43     		.2byte	0x434a
 797 03b4 66020000 		.4byte	0x266
 798 03b8 02       		.byte	0x2
 799 03b9 23       		.byte	0x23
 800 03ba 44       		.uleb128 0x44
 801 03bb 07       		.uleb128 0x7
 802 03bc C5030000 		.4byte	.LASF52
 803 03c0 06       		.byte	0x6
 804 03c1 4B43     		.2byte	0x434b
 805 03c3 66020000 		.4byte	0x266
 806 03c7 02       		.byte	0x2
 807 03c8 23       		.byte	0x23
 808 03c9 48       		.uleb128 0x48
 809 03ca 07       		.uleb128 0x7
 810 03cb 07040000 		.4byte	.LASF53
 811 03cf 06       		.byte	0x6
 812 03d0 4C43     		.2byte	0x434c
 813 03d2 66020000 		.4byte	0x266
 814 03d6 02       		.byte	0x2
 815 03d7 23       		.byte	0x23
 816 03d8 4C       		.uleb128 0x4c
 817 03d9 07       		.uleb128 0x7
 818 03da F1000000 		.4byte	.LASF54
 819 03de 06       		.byte	0x6
 820 03df 4D43     		.2byte	0x434d
 821 03e1 66020000 		.4byte	0x266
 822 03e5 02       		.byte	0x2
 823 03e6 23       		.byte	0x23
 824 03e7 50       		.uleb128 0x50
 825 03e8 07       		.uleb128 0x7
 826 03e9 34000000 		.4byte	.LASF55
 827 03ed 06       		.byte	0x6
 828 03ee 4E43     		.2byte	0x434e
 829 03f0 66020000 		.4byte	0x266
 830 03f4 02       		.byte	0x2
 831 03f5 23       		.byte	0x23
 832 03f6 54       		.uleb128 0x54
 833 03f7 07       		.uleb128 0x7
 834 03f8 88010000 		.4byte	.LASF56
 835 03fc 06       		.byte	0x6
 836 03fd 4F43     		.2byte	0x434f
 837 03ff 66020000 		.4byte	0x266
 838 0403 02       		.byte	0x2
 839 0404 23       		.byte	0x23
 840 0405 58       		.uleb128 0x58
 841 0406 07       		.uleb128 0x7
 842 0407 09010000 		.4byte	.LASF57
ARM GAS  C:\Users\CCMA\AppData\Local\Temp\ccJ9Pjse.s 			page 30


 843 040b 06       		.byte	0x6
 844 040c 5043     		.2byte	0x4350
 845 040e 66020000 		.4byte	0x266
 846 0412 02       		.byte	0x2
 847 0413 23       		.byte	0x23
 848 0414 5C       		.uleb128 0x5c
 849 0415 07       		.uleb128 0x7
 850 0416 19030000 		.4byte	.LASF58
 851 041a 06       		.byte	0x6
 852 041b 5143     		.2byte	0x4351
 853 041d 66020000 		.4byte	0x266
 854 0421 02       		.byte	0x2
 855 0422 23       		.byte	0x23
 856 0423 60       		.uleb128 0x60
 857 0424 07       		.uleb128 0x7
 858 0425 8F010000 		.4byte	.LASF59
 859 0429 06       		.byte	0x6
 860 042a 5243     		.2byte	0x4352
 861 042c 66020000 		.4byte	0x266
 862 0430 02       		.byte	0x2
 863 0431 23       		.byte	0x23
 864 0432 64       		.uleb128 0x64
 865 0433 07       		.uleb128 0x7
 866 0434 E7010000 		.4byte	.LASF60
 867 0438 06       		.byte	0x6
 868 0439 5343     		.2byte	0x4353
 869 043b 66020000 		.4byte	0x266
 870 043f 02       		.byte	0x2
 871 0440 23       		.byte	0x23
 872 0441 68       		.uleb128 0x68
 873 0442 07       		.uleb128 0x7
 874 0443 A6020000 		.4byte	.LASF61
 875 0447 06       		.byte	0x6
 876 0448 5443     		.2byte	0x4354
 877 044a 66020000 		.4byte	0x266
 878 044e 02       		.byte	0x2
 879 044f 23       		.byte	0x23
 880 0450 6C       		.uleb128 0x6c
 881 0451 07       		.uleb128 0x7
 882 0452 1D000000 		.4byte	.LASF62
 883 0456 06       		.byte	0x6
 884 0457 5543     		.2byte	0x4355
 885 0459 66020000 		.4byte	0x266
 886 045d 02       		.byte	0x2
 887 045e 23       		.byte	0x23
 888 045f 70       		.uleb128 0x70
 889 0460 07       		.uleb128 0x7
 890 0461 BB030000 		.4byte	.LASF63
 891 0465 06       		.byte	0x6
 892 0466 5643     		.2byte	0x4356
 893 0468 66020000 		.4byte	0x266
 894 046c 02       		.byte	0x2
 895 046d 23       		.byte	0x23
 896 046e 74       		.uleb128 0x74
 897 046f 07       		.uleb128 0x7
 898 0470 F5010000 		.4byte	.LASF64
 899 0474 06       		.byte	0x6
ARM GAS  C:\Users\CCMA\AppData\Local\Temp\ccJ9Pjse.s 			page 31


 900 0475 5743     		.2byte	0x4357
 901 0477 66020000 		.4byte	0x266
 902 047b 02       		.byte	0x2
 903 047c 23       		.byte	0x23
 904 047d 78       		.uleb128 0x78
 905 047e 07       		.uleb128 0x7
 906 047f 33010000 		.4byte	.LASF65
 907 0483 06       		.byte	0x6
 908 0484 5843     		.2byte	0x4358
 909 0486 66020000 		.4byte	0x266
 910 048a 02       		.byte	0x2
 911 048b 23       		.byte	0x23
 912 048c 7C       		.uleb128 0x7c
 913 048d 07       		.uleb128 0x7
 914 048e ED010000 		.4byte	.LASF66
 915 0492 06       		.byte	0x6
 916 0493 5943     		.2byte	0x4359
 917 0495 66020000 		.4byte	0x266
 918 0499 03       		.byte	0x3
 919 049a 23       		.byte	0x23
 920 049b 8001     		.uleb128 0x80
 921 049d 07       		.uleb128 0x7
 922 049e 23010000 		.4byte	.LASF67
 923 04a2 06       		.byte	0x6
 924 04a3 5A43     		.2byte	0x435a
 925 04a5 66020000 		.4byte	0x266
 926 04a9 03       		.byte	0x3
 927 04aa 23       		.byte	0x23
 928 04ab 8401     		.uleb128 0x84
 929 04ad 07       		.uleb128 0x7
 930 04ae CB010000 		.4byte	.LASF68
 931 04b2 06       		.byte	0x6
 932 04b3 5B43     		.2byte	0x435b
 933 04b5 66020000 		.4byte	0x266
 934 04b9 03       		.byte	0x3
 935 04ba 23       		.byte	0x23
 936 04bb 8801     		.uleb128 0x88
 937 04bd 07       		.uleb128 0x7
 938 04be 78020000 		.4byte	.LASF69
 939 04c2 06       		.byte	0x6
 940 04c3 5C43     		.2byte	0x435c
 941 04c5 66020000 		.4byte	0x266
 942 04c9 03       		.byte	0x3
 943 04ca 23       		.byte	0x23
 944 04cb 8C01     		.uleb128 0x8c
 945 04cd 07       		.uleb128 0x7
 946 04ce 5C010000 		.4byte	.LASF70
 947 04d2 06       		.byte	0x6
 948 04d3 5D43     		.2byte	0x435d
 949 04d5 66020000 		.4byte	0x266
 950 04d9 03       		.byte	0x3
 951 04da 23       		.byte	0x23
 952 04db 9001     		.uleb128 0x90
 953 04dd 07       		.uleb128 0x7
 954 04de 64010000 		.4byte	.LASF71
 955 04e2 06       		.byte	0x6
 956 04e3 5E43     		.2byte	0x435e
ARM GAS  C:\Users\CCMA\AppData\Local\Temp\ccJ9Pjse.s 			page 32


 957 04e5 66020000 		.4byte	0x266
 958 04e9 03       		.byte	0x3
 959 04ea 23       		.byte	0x23
 960 04eb 9401     		.uleb128 0x94
 961 04ed 07       		.uleb128 0x7
 962 04ee B6020000 		.4byte	.LASF72
 963 04f2 06       		.byte	0x6
 964 04f3 5F43     		.2byte	0x435f
 965 04f5 66020000 		.4byte	0x266
 966 04f9 03       		.byte	0x3
 967 04fa 23       		.byte	0x23
 968 04fb 9801     		.uleb128 0x98
 969 04fd 07       		.uleb128 0x7
 970 04fe 23000000 		.4byte	.LASF73
 971 0502 06       		.byte	0x6
 972 0503 6043     		.2byte	0x4360
 973 0505 66020000 		.4byte	0x266
 974 0509 03       		.byte	0x3
 975 050a 23       		.byte	0x23
 976 050b 9C01     		.uleb128 0x9c
 977 050d 07       		.uleb128 0x7
 978 050e F2020000 		.4byte	.LASF74
 979 0512 06       		.byte	0x6
 980 0513 6143     		.2byte	0x4361
 981 0515 66020000 		.4byte	0x266
 982 0519 03       		.byte	0x3
 983 051a 23       		.byte	0x23
 984 051b A001     		.uleb128 0xa0
 985 051d 07       		.uleb128 0x7
 986 051e FF030000 		.4byte	.LASF75
 987 0522 06       		.byte	0x6
 988 0523 6243     		.2byte	0x4362
 989 0525 66020000 		.4byte	0x266
 990 0529 03       		.byte	0x3
 991 052a 23       		.byte	0x23
 992 052b A401     		.uleb128 0xa4
 993 052d 07       		.uleb128 0x7
 994 052e CC030000 		.4byte	.LASF76
 995 0532 06       		.byte	0x6
 996 0533 6343     		.2byte	0x4363
 997 0535 66020000 		.4byte	0x266
 998 0539 03       		.byte	0x3
 999 053a 23       		.byte	0x23
 1000 053b A801     		.uleb128 0xa8
 1001 053d 07       		.uleb128 0x7
 1002 053e C3010000 		.4byte	.LASF77
 1003 0542 06       		.byte	0x6
 1004 0543 6443     		.2byte	0x4364
 1005 0545 66020000 		.4byte	0x266
 1006 0549 03       		.byte	0x3
 1007 054a 23       		.byte	0x23
 1008 054b AC01     		.uleb128 0xac
 1009 054d 07       		.uleb128 0x7
 1010 054e 95030000 		.4byte	.LASF78
 1011 0552 06       		.byte	0x6
 1012 0553 6543     		.2byte	0x4365
 1013 0555 66020000 		.4byte	0x266
ARM GAS  C:\Users\CCMA\AppData\Local\Temp\ccJ9Pjse.s 			page 33


 1014 0559 03       		.byte	0x3
 1015 055a 23       		.byte	0x23
 1016 055b B001     		.uleb128 0xb0
 1017 055d 07       		.uleb128 0x7
 1018 055e 53010000 		.4byte	.LASF79
 1019 0562 06       		.byte	0x6
 1020 0563 6643     		.2byte	0x4366
 1021 0565 66020000 		.4byte	0x266
 1022 0569 03       		.byte	0x3
 1023 056a 23       		.byte	0x23
 1024 056b B401     		.uleb128 0xb4
 1025 056d 07       		.uleb128 0x7
 1026 056e 97010000 		.4byte	.LASF80
 1027 0572 06       		.byte	0x6
 1028 0573 6743     		.2byte	0x4367
 1029 0575 66020000 		.4byte	0x266
 1030 0579 03       		.byte	0x3
 1031 057a 23       		.byte	0x23
 1032 057b B801     		.uleb128 0xb8
 1033 057d 07       		.uleb128 0x7
 1034 057e A4030000 		.4byte	.LASF81
 1035 0582 06       		.byte	0x6
 1036 0583 6843     		.2byte	0x4368
 1037 0585 32060000 		.4byte	0x632
 1038 0589 03       		.byte	0x3
 1039 058a 23       		.byte	0x23
 1040 058b BC01     		.uleb128 0xbc
 1041 058d 07       		.uleb128 0x7
 1042 058e 1C010000 		.4byte	.LASF82
 1043 0592 06       		.byte	0x6
 1044 0593 6943     		.2byte	0x4369
 1045 0595 81010000 		.4byte	0x181
 1046 0599 03       		.byte	0x3
 1047 059a 23       		.byte	0x23
 1048 059b 8004     		.uleb128 0x200
 1049 059d 07       		.uleb128 0x7
 1050 059e 0F040000 		.4byte	.LASF83
 1051 05a2 06       		.byte	0x6
 1052 05a3 6A43     		.2byte	0x436a
 1053 05a5 81010000 		.4byte	0x181
 1054 05a9 03       		.byte	0x3
 1055 05aa 23       		.byte	0x23
 1056 05ab 8404     		.uleb128 0x204
 1057 05ad 07       		.uleb128 0x7
 1058 05ae 2D000000 		.4byte	.LASF84
 1059 05b2 06       		.byte	0x6
 1060 05b3 6B43     		.2byte	0x436b
 1061 05b5 81010000 		.4byte	0x181
 1062 05b9 03       		.byte	0x3
 1063 05ba 23       		.byte	0x23
 1064 05bb 8804     		.uleb128 0x208
 1065 05bd 07       		.uleb128 0x7
 1066 05be 2F020000 		.4byte	.LASF85
 1067 05c2 06       		.byte	0x6
 1068 05c3 6C43     		.2byte	0x436c
 1069 05c5 81010000 		.4byte	0x181
 1070 05c9 03       		.byte	0x3
ARM GAS  C:\Users\CCMA\AppData\Local\Temp\ccJ9Pjse.s 			page 34


 1071 05ca 23       		.byte	0x23
 1072 05cb 8C04     		.uleb128 0x20c
 1073 05cd 07       		.uleb128 0x7
 1074 05ce AD030000 		.4byte	.LASF86
 1075 05d2 06       		.byte	0x6
 1076 05d3 6D43     		.2byte	0x436d
 1077 05d5 4C060000 		.4byte	0x64c
 1078 05d9 03       		.byte	0x3
 1079 05da 23       		.byte	0x23
 1080 05db 9004     		.uleb128 0x210
 1081 05dd 08       		.uleb128 0x8
 1082 05de 42424500 		.ascii	"BBE\000"
 1083 05e2 06       		.byte	0x6
 1084 05e3 6E43     		.2byte	0x436e
 1085 05e5 81010000 		.4byte	0x181
 1086 05e9 03       		.byte	0x3
 1087 05ea 23       		.byte	0x23
 1088 05eb 8006     		.uleb128 0x300
 1089 05ed 07       		.uleb128 0x7
 1090 05ee AE020000 		.4byte	.LASF87
 1091 05f2 06       		.byte	0x6
 1092 05f3 6F43     		.2byte	0x436f
 1093 05f5 81010000 		.4byte	0x181
 1094 05f9 03       		.byte	0x3
 1095 05fa 23       		.byte	0x23
 1096 05fb 8406     		.uleb128 0x304
 1097 05fd 00       		.byte	0
 1098 05fe 09       		.uleb128 0x9
 1099 05ff 81010000 		.4byte	0x181
 1100 0603 0E060000 		.4byte	0x60e
 1101 0607 0A       		.uleb128 0xa
 1102 0608 7F000000 		.4byte	0x7f
 1103 060c 06       		.byte	0x6
 1104 060d 00       		.byte	0
 1105 060e 0B       		.uleb128 0xb
 1106 060f FE050000 		.4byte	0x5fe
 1107 0613 0B       		.uleb128 0xb
 1108 0614 ED020000 		.4byte	0x2ed
 1109 0618 0E       		.uleb128 0xe
 1110 0619 13060000 		.4byte	0x613
 1111 061d 09       		.uleb128 0x9
 1112 061e 66020000 		.4byte	0x266
 1113 0622 2D060000 		.4byte	0x62d
 1114 0626 0A       		.uleb128 0xa
 1115 0627 7F000000 		.4byte	0x7f
 1116 062b 50       		.byte	0x50
 1117 062c 00       		.byte	0
 1118 062d 0B       		.uleb128 0xb
 1119 062e 1D060000 		.4byte	0x61d
 1120 0632 0E       		.uleb128 0xe
 1121 0633 2D060000 		.4byte	0x62d
 1122 0637 09       		.uleb128 0x9
 1123 0638 66020000 		.4byte	0x266
 1124 063c 47060000 		.4byte	0x647
 1125 0640 0A       		.uleb128 0xa
 1126 0641 7F000000 		.4byte	0x7f
 1127 0645 3B       		.byte	0x3b
ARM GAS  C:\Users\CCMA\AppData\Local\Temp\ccJ9Pjse.s 			page 35


 1128 0646 00       		.byte	0
 1129 0647 0B       		.uleb128 0xb
 1130 0648 37060000 		.4byte	0x637
 1131 064c 0E       		.uleb128 0xe
 1132 064d 47060000 		.4byte	0x647
 1133 0651 0C       		.uleb128 0xc
 1134 0652 1F030000 		.4byte	.LASF88
 1135 0656 06       		.byte	0x6
 1136 0657 7143     		.2byte	0x4371
 1137 0659 FD020000 		.4byte	0x2fd
 1138 065d 0F       		.uleb128 0xf
 1139 065e 17040000 		.4byte	.LASF89
 1140 0662 01       		.byte	0x1
 1141 0663 BD01     		.2byte	0x1bd
 1142 0665 01       		.byte	0x1
 1143 0666 00000000 		.4byte	.LFB61
 1144 066a F4000000 		.4byte	.LFE61
 1145 066e 00000000 		.4byte	.LLST0
 1146 0672 01       		.byte	0x1
 1147 0673 0F       		.uleb128 0xf
 1148 0674 BC020000 		.4byte	.LASF90
 1149 0678 01       		.byte	0x1
 1150 0679 B902     		.2byte	0x2b9
 1151 067b 01       		.byte	0x1
 1152 067c F4000000 		.4byte	.LFB62
 1153 0680 3C010000 		.4byte	.LFE62
 1154 0684 2C000000 		.4byte	.LLST1
 1155 0688 01       		.byte	0x1
 1156 0689 10       		.uleb128 0x10
 1157 068a 01       		.byte	0x1
 1158 068b DC020000 		.4byte	.LASF91
 1159 068f 02       		.byte	0x2
 1160 0690 2A       		.byte	0x2a
 1161 0691 01       		.byte	0x1
 1162 0692 3C010000 		.4byte	.LFB63
 1163 0696 46010000 		.4byte	.LFE63
 1164 069a 58000000 		.4byte	.LLST2
 1165 069e 01       		.byte	0x1
 1166 069f 11       		.uleb128 0x11
 1167 06a0 01       		.byte	0x1
 1168 06a1 9B020000 		.4byte	.LASF92
 1169 06a5 02       		.byte	0x2
 1170 06a6 54       		.byte	0x54
 1171 06a7 01       		.byte	0x1
 1172 06a8 48010000 		.4byte	.LFB64
 1173 06ac 68010000 		.4byte	.LFE64
 1174 06b0 84000000 		.4byte	.LLST3
 1175 06b4 01       		.byte	0x1
 1176 06b5 12       		.uleb128 0x12
 1177 06b6 CB020000 		.4byte	.LASF93
 1178 06ba 07       		.byte	0x7
 1179 06bb 2E       		.byte	0x2e
 1180 06bc 8D000000 		.4byte	0x8d
 1181 06c0 01       		.byte	0x1
 1182 06c1 01       		.byte	0x1
 1183 06c2 12       		.uleb128 0x12
 1184 06c3 B6010000 		.4byte	.LASF94
ARM GAS  C:\Users\CCMA\AppData\Local\Temp\ccJ9Pjse.s 			page 36


 1185 06c7 02       		.byte	0x2
 1186 06c8 15       		.byte	0x15
 1187 06c9 7D000000 		.4byte	0x7d
 1188 06cd 01       		.byte	0x1
 1189 06ce 01       		.byte	0x1
 1190 06cf 09       		.uleb128 0x9
 1191 06d0 DF060000 		.4byte	0x6df
 1192 06d4 DF060000 		.4byte	0x6df
 1193 06d8 0A       		.uleb128 0xa
 1194 06d9 7F000000 		.4byte	0x7f
 1195 06dd 07       		.byte	0x7
 1196 06de 00       		.byte	0
 1197 06df 0E       		.uleb128 0xe
 1198 06e0 8D000000 		.4byte	0x8d
 1199 06e4 13       		.uleb128 0x13
 1200 06e5 9E010000 		.4byte	.LASF95
 1201 06e9 02       		.byte	0x2
 1202 06ea 1D       		.byte	0x1d
 1203 06eb F6060000 		.4byte	0x6f6
 1204 06ef 01       		.byte	0x1
 1205 06f0 05       		.byte	0x5
 1206 06f1 03       		.byte	0x3
 1207 06f2 00000000 		.4byte	gau32ClkSrcTbl
 1208 06f6 0E       		.uleb128 0xe
 1209 06f7 CF060000 		.4byte	0x6cf
 1210 06fb 00       		.byte	0
 1211              		.section	.debug_abbrev,"",%progbits
 1212              	.Ldebug_abbrev0:
 1213 0000 01       		.uleb128 0x1
 1214 0001 11       		.uleb128 0x11
 1215 0002 01       		.byte	0x1
 1216 0003 25       		.uleb128 0x25
 1217 0004 0E       		.uleb128 0xe
 1218 0005 13       		.uleb128 0x13
 1219 0006 0B       		.uleb128 0xb
 1220 0007 03       		.uleb128 0x3
 1221 0008 0E       		.uleb128 0xe
 1222 0009 1B       		.uleb128 0x1b
 1223 000a 0E       		.uleb128 0xe
 1224 000b 11       		.uleb128 0x11
 1225 000c 01       		.uleb128 0x1
 1226 000d 12       		.uleb128 0x12
 1227 000e 01       		.uleb128 0x1
 1228 000f 10       		.uleb128 0x10
 1229 0010 06       		.uleb128 0x6
 1230 0011 00       		.byte	0
 1231 0012 00       		.byte	0
 1232 0013 02       		.uleb128 0x2
 1233 0014 24       		.uleb128 0x24
 1234 0015 00       		.byte	0
 1235 0016 0B       		.uleb128 0xb
 1236 0017 0B       		.uleb128 0xb
 1237 0018 3E       		.uleb128 0x3e
 1238 0019 0B       		.uleb128 0xb
 1239 001a 03       		.uleb128 0x3
 1240 001b 0E       		.uleb128 0xe
 1241 001c 00       		.byte	0
ARM GAS  C:\Users\CCMA\AppData\Local\Temp\ccJ9Pjse.s 			page 37


 1242 001d 00       		.byte	0
 1243 001e 03       		.uleb128 0x3
 1244 001f 16       		.uleb128 0x16
 1245 0020 00       		.byte	0
 1246 0021 03       		.uleb128 0x3
 1247 0022 0E       		.uleb128 0xe
 1248 0023 3A       		.uleb128 0x3a
 1249 0024 0B       		.uleb128 0xb
 1250 0025 3B       		.uleb128 0x3b
 1251 0026 0B       		.uleb128 0xb
 1252 0027 49       		.uleb128 0x49
 1253 0028 13       		.uleb128 0x13
 1254 0029 00       		.byte	0
 1255 002a 00       		.byte	0
 1256 002b 04       		.uleb128 0x4
 1257 002c 24       		.uleb128 0x24
 1258 002d 00       		.byte	0
 1259 002e 0B       		.uleb128 0xb
 1260 002f 0B       		.uleb128 0xb
 1261 0030 3E       		.uleb128 0x3e
 1262 0031 0B       		.uleb128 0xb
 1263 0032 03       		.uleb128 0x3
 1264 0033 08       		.uleb128 0x8
 1265 0034 00       		.byte	0
 1266 0035 00       		.byte	0
 1267 0036 05       		.uleb128 0x5
 1268 0037 0F       		.uleb128 0xf
 1269 0038 00       		.byte	0
 1270 0039 0B       		.uleb128 0xb
 1271 003a 0B       		.uleb128 0xb
 1272 003b 00       		.byte	0
 1273 003c 00       		.byte	0
 1274 003d 06       		.uleb128 0x6
 1275 003e 13       		.uleb128 0x13
 1276 003f 01       		.byte	0x1
 1277 0040 0B       		.uleb128 0xb
 1278 0041 05       		.uleb128 0x5
 1279 0042 3A       		.uleb128 0x3a
 1280 0043 0B       		.uleb128 0xb
 1281 0044 3B       		.uleb128 0x3b
 1282 0045 05       		.uleb128 0x5
 1283 0046 01       		.uleb128 0x1
 1284 0047 13       		.uleb128 0x13
 1285 0048 00       		.byte	0
 1286 0049 00       		.byte	0
 1287 004a 07       		.uleb128 0x7
 1288 004b 0D       		.uleb128 0xd
 1289 004c 00       		.byte	0
 1290 004d 03       		.uleb128 0x3
 1291 004e 0E       		.uleb128 0xe
 1292 004f 3A       		.uleb128 0x3a
 1293 0050 0B       		.uleb128 0xb
 1294 0051 3B       		.uleb128 0x3b
 1295 0052 05       		.uleb128 0x5
 1296 0053 49       		.uleb128 0x49
 1297 0054 13       		.uleb128 0x13
 1298 0055 38       		.uleb128 0x38
ARM GAS  C:\Users\CCMA\AppData\Local\Temp\ccJ9Pjse.s 			page 38


 1299 0056 0A       		.uleb128 0xa
 1300 0057 00       		.byte	0
 1301 0058 00       		.byte	0
 1302 0059 08       		.uleb128 0x8
 1303 005a 0D       		.uleb128 0xd
 1304 005b 00       		.byte	0
 1305 005c 03       		.uleb128 0x3
 1306 005d 08       		.uleb128 0x8
 1307 005e 3A       		.uleb128 0x3a
 1308 005f 0B       		.uleb128 0xb
 1309 0060 3B       		.uleb128 0x3b
 1310 0061 05       		.uleb128 0x5
 1311 0062 49       		.uleb128 0x49
 1312 0063 13       		.uleb128 0x13
 1313 0064 38       		.uleb128 0x38
 1314 0065 0A       		.uleb128 0xa
 1315 0066 00       		.byte	0
 1316 0067 00       		.byte	0
 1317 0068 09       		.uleb128 0x9
 1318 0069 01       		.uleb128 0x1
 1319 006a 01       		.byte	0x1
 1320 006b 49       		.uleb128 0x49
 1321 006c 13       		.uleb128 0x13
 1322 006d 01       		.uleb128 0x1
 1323 006e 13       		.uleb128 0x13
 1324 006f 00       		.byte	0
 1325 0070 00       		.byte	0
 1326 0071 0A       		.uleb128 0xa
 1327 0072 21       		.uleb128 0x21
 1328 0073 00       		.byte	0
 1329 0074 49       		.uleb128 0x49
 1330 0075 13       		.uleb128 0x13
 1331 0076 2F       		.uleb128 0x2f
 1332 0077 0B       		.uleb128 0xb
 1333 0078 00       		.byte	0
 1334 0079 00       		.byte	0
 1335 007a 0B       		.uleb128 0xb
 1336 007b 35       		.uleb128 0x35
 1337 007c 00       		.byte	0
 1338 007d 49       		.uleb128 0x49
 1339 007e 13       		.uleb128 0x13
 1340 007f 00       		.byte	0
 1341 0080 00       		.byte	0
 1342 0081 0C       		.uleb128 0xc
 1343 0082 16       		.uleb128 0x16
 1344 0083 00       		.byte	0
 1345 0084 03       		.uleb128 0x3
 1346 0085 0E       		.uleb128 0xe
 1347 0086 3A       		.uleb128 0x3a
 1348 0087 0B       		.uleb128 0xb
 1349 0088 3B       		.uleb128 0x3b
 1350 0089 05       		.uleb128 0x5
 1351 008a 49       		.uleb128 0x49
 1352 008b 13       		.uleb128 0x13
 1353 008c 00       		.byte	0
 1354 008d 00       		.byte	0
 1355 008e 0D       		.uleb128 0xd
ARM GAS  C:\Users\CCMA\AppData\Local\Temp\ccJ9Pjse.s 			page 39


 1356 008f 13       		.uleb128 0x13
 1357 0090 01       		.byte	0x1
 1358 0091 0B       		.uleb128 0xb
 1359 0092 0B       		.uleb128 0xb
 1360 0093 3A       		.uleb128 0x3a
 1361 0094 0B       		.uleb128 0xb
 1362 0095 3B       		.uleb128 0x3b
 1363 0096 05       		.uleb128 0x5
 1364 0097 01       		.uleb128 0x1
 1365 0098 13       		.uleb128 0x13
 1366 0099 00       		.byte	0
 1367 009a 00       		.byte	0
 1368 009b 0E       		.uleb128 0xe
 1369 009c 26       		.uleb128 0x26
 1370 009d 00       		.byte	0
 1371 009e 49       		.uleb128 0x49
 1372 009f 13       		.uleb128 0x13
 1373 00a0 00       		.byte	0
 1374 00a1 00       		.byte	0
 1375 00a2 0F       		.uleb128 0xf
 1376 00a3 2E       		.uleb128 0x2e
 1377 00a4 00       		.byte	0
 1378 00a5 03       		.uleb128 0x3
 1379 00a6 0E       		.uleb128 0xe
 1380 00a7 3A       		.uleb128 0x3a
 1381 00a8 0B       		.uleb128 0xb
 1382 00a9 3B       		.uleb128 0x3b
 1383 00aa 05       		.uleb128 0x5
 1384 00ab 27       		.uleb128 0x27
 1385 00ac 0C       		.uleb128 0xc
 1386 00ad 11       		.uleb128 0x11
 1387 00ae 01       		.uleb128 0x1
 1388 00af 12       		.uleb128 0x12
 1389 00b0 01       		.uleb128 0x1
 1390 00b1 40       		.uleb128 0x40
 1391 00b2 06       		.uleb128 0x6
 1392 00b3 9742     		.uleb128 0x2117
 1393 00b5 0C       		.uleb128 0xc
 1394 00b6 00       		.byte	0
 1395 00b7 00       		.byte	0
 1396 00b8 10       		.uleb128 0x10
 1397 00b9 2E       		.uleb128 0x2e
 1398 00ba 00       		.byte	0
 1399 00bb 3F       		.uleb128 0x3f
 1400 00bc 0C       		.uleb128 0xc
 1401 00bd 03       		.uleb128 0x3
 1402 00be 0E       		.uleb128 0xe
 1403 00bf 3A       		.uleb128 0x3a
 1404 00c0 0B       		.uleb128 0xb
 1405 00c1 3B       		.uleb128 0x3b
 1406 00c2 0B       		.uleb128 0xb
 1407 00c3 27       		.uleb128 0x27
 1408 00c4 0C       		.uleb128 0xc
 1409 00c5 11       		.uleb128 0x11
 1410 00c6 01       		.uleb128 0x1
 1411 00c7 12       		.uleb128 0x12
 1412 00c8 01       		.uleb128 0x1
ARM GAS  C:\Users\CCMA\AppData\Local\Temp\ccJ9Pjse.s 			page 40


 1413 00c9 40       		.uleb128 0x40
 1414 00ca 06       		.uleb128 0x6
 1415 00cb 9742     		.uleb128 0x2117
 1416 00cd 0C       		.uleb128 0xc
 1417 00ce 00       		.byte	0
 1418 00cf 00       		.byte	0
 1419 00d0 11       		.uleb128 0x11
 1420 00d1 2E       		.uleb128 0x2e
 1421 00d2 00       		.byte	0
 1422 00d3 3F       		.uleb128 0x3f
 1423 00d4 0C       		.uleb128 0xc
 1424 00d5 03       		.uleb128 0x3
 1425 00d6 0E       		.uleb128 0xe
 1426 00d7 3A       		.uleb128 0x3a
 1427 00d8 0B       		.uleb128 0xb
 1428 00d9 3B       		.uleb128 0x3b
 1429 00da 0B       		.uleb128 0xb
 1430 00db 27       		.uleb128 0x27
 1431 00dc 0C       		.uleb128 0xc
 1432 00dd 11       		.uleb128 0x11
 1433 00de 01       		.uleb128 0x1
 1434 00df 12       		.uleb128 0x12
 1435 00e0 01       		.uleb128 0x1
 1436 00e1 40       		.uleb128 0x40
 1437 00e2 06       		.uleb128 0x6
 1438 00e3 9642     		.uleb128 0x2116
 1439 00e5 0C       		.uleb128 0xc
 1440 00e6 00       		.byte	0
 1441 00e7 00       		.byte	0
 1442 00e8 12       		.uleb128 0x12
 1443 00e9 34       		.uleb128 0x34
 1444 00ea 00       		.byte	0
 1445 00eb 03       		.uleb128 0x3
 1446 00ec 0E       		.uleb128 0xe
 1447 00ed 3A       		.uleb128 0x3a
 1448 00ee 0B       		.uleb128 0xb
 1449 00ef 3B       		.uleb128 0x3b
 1450 00f0 0B       		.uleb128 0xb
 1451 00f1 49       		.uleb128 0x49
 1452 00f2 13       		.uleb128 0x13
 1453 00f3 3F       		.uleb128 0x3f
 1454 00f4 0C       		.uleb128 0xc
 1455 00f5 3C       		.uleb128 0x3c
 1456 00f6 0C       		.uleb128 0xc
 1457 00f7 00       		.byte	0
 1458 00f8 00       		.byte	0
 1459 00f9 13       		.uleb128 0x13
 1460 00fa 34       		.uleb128 0x34
 1461 00fb 00       		.byte	0
 1462 00fc 03       		.uleb128 0x3
 1463 00fd 0E       		.uleb128 0xe
 1464 00fe 3A       		.uleb128 0x3a
 1465 00ff 0B       		.uleb128 0xb
 1466 0100 3B       		.uleb128 0x3b
 1467 0101 0B       		.uleb128 0xb
 1468 0102 49       		.uleb128 0x49
 1469 0103 13       		.uleb128 0x13
ARM GAS  C:\Users\CCMA\AppData\Local\Temp\ccJ9Pjse.s 			page 41


 1470 0104 3F       		.uleb128 0x3f
 1471 0105 0C       		.uleb128 0xc
 1472 0106 02       		.uleb128 0x2
 1473 0107 0A       		.uleb128 0xa
 1474 0108 00       		.byte	0
 1475 0109 00       		.byte	0
 1476 010a 00       		.byte	0
 1477              		.section	.debug_loc,"",%progbits
 1478              	.Ldebug_loc0:
 1479              	.LLST0:
 1480 0000 00000000 		.4byte	.LFB61-.Ltext0
 1481 0004 02000000 		.4byte	.LCFI0-.Ltext0
 1482 0008 0200     		.2byte	0x2
 1483 000a 7D       		.byte	0x7d
 1484 000b 00       		.sleb128 0
 1485 000c 02000000 		.4byte	.LCFI0-.Ltext0
 1486 0010 04000000 		.4byte	.LCFI1-.Ltext0
 1487 0014 0200     		.2byte	0x2
 1488 0016 7D       		.byte	0x7d
 1489 0017 08       		.sleb128 8
 1490 0018 04000000 		.4byte	.LCFI1-.Ltext0
 1491 001c F4000000 		.4byte	.LFE61-.Ltext0
 1492 0020 0200     		.2byte	0x2
 1493 0022 77       		.byte	0x77
 1494 0023 08       		.sleb128 8
 1495 0024 00000000 		.4byte	0
 1496 0028 00000000 		.4byte	0
 1497              	.LLST1:
 1498 002c F4000000 		.4byte	.LFB62-.Ltext0
 1499 0030 F6000000 		.4byte	.LCFI2-.Ltext0
 1500 0034 0200     		.2byte	0x2
 1501 0036 7D       		.byte	0x7d
 1502 0037 00       		.sleb128 0
 1503 0038 F6000000 		.4byte	.LCFI2-.Ltext0
 1504 003c F8000000 		.4byte	.LCFI3-.Ltext0
 1505 0040 0200     		.2byte	0x2
 1506 0042 7D       		.byte	0x7d
 1507 0043 08       		.sleb128 8
 1508 0044 F8000000 		.4byte	.LCFI3-.Ltext0
 1509 0048 3C010000 		.4byte	.LFE62-.Ltext0
 1510 004c 0200     		.2byte	0x2
 1511 004e 77       		.byte	0x77
 1512 004f 08       		.sleb128 8
 1513 0050 00000000 		.4byte	0
 1514 0054 00000000 		.4byte	0
 1515              	.LLST2:
 1516 0058 3C010000 		.4byte	.LFB63-.Ltext0
 1517 005c 3E010000 		.4byte	.LCFI4-.Ltext0
 1518 0060 0200     		.2byte	0x2
 1519 0062 7D       		.byte	0x7d
 1520 0063 00       		.sleb128 0
 1521 0064 3E010000 		.4byte	.LCFI4-.Ltext0
 1522 0068 40010000 		.4byte	.LCFI5-.Ltext0
 1523 006c 0200     		.2byte	0x2
 1524 006e 7D       		.byte	0x7d
 1525 006f 08       		.sleb128 8
 1526 0070 40010000 		.4byte	.LCFI5-.Ltext0
ARM GAS  C:\Users\CCMA\AppData\Local\Temp\ccJ9Pjse.s 			page 42


 1527 0074 46010000 		.4byte	.LFE63-.Ltext0
 1528 0078 0200     		.2byte	0x2
 1529 007a 77       		.byte	0x77
 1530 007b 08       		.sleb128 8
 1531 007c 00000000 		.4byte	0
 1532 0080 00000000 		.4byte	0
 1533              	.LLST3:
 1534 0084 48010000 		.4byte	.LFB64-.Ltext0
 1535 0088 4A010000 		.4byte	.LCFI6-.Ltext0
 1536 008c 0200     		.2byte	0x2
 1537 008e 7D       		.byte	0x7d
 1538 008f 00       		.sleb128 0
 1539 0090 4A010000 		.4byte	.LCFI6-.Ltext0
 1540 0094 4C010000 		.4byte	.LCFI7-.Ltext0
 1541 0098 0200     		.2byte	0x2
 1542 009a 7D       		.byte	0x7d
 1543 009b 08       		.sleb128 8
 1544 009c 4C010000 		.4byte	.LCFI7-.Ltext0
 1545 00a0 68010000 		.4byte	.LFE64-.Ltext0
 1546 00a4 0200     		.2byte	0x2
 1547 00a6 77       		.byte	0x77
 1548 00a7 08       		.sleb128 8
 1549 00a8 00000000 		.4byte	0
 1550 00ac 00000000 		.4byte	0
 1551              		.section	.debug_aranges,"",%progbits
 1552 0000 1C000000 		.4byte	0x1c
 1553 0004 0200     		.2byte	0x2
 1554 0006 00000000 		.4byte	.Ldebug_info0
 1555 000a 04       		.byte	0x4
 1556 000b 00       		.byte	0
 1557 000c 0000     		.2byte	0
 1558 000e 0000     		.2byte	0
 1559 0010 00000000 		.4byte	.Ltext0
 1560 0014 68010000 		.4byte	.Letext0-.Ltext0
 1561 0018 00000000 		.4byte	0
 1562 001c 00000000 		.4byte	0
 1563              		.section	.debug_line,"",%progbits
 1564              	.Ldebug_line0:
 1565 0000 7A010000 		.section	.debug_str,"MS",%progbits,1
 1565      02003101 
 1565      00000201 
 1565      FB0E0D00 
 1565      01010101 
 1566              	.LASF43:
 1567 0000 5352414D 		.ascii	"SRAMNSSET\000"
 1567      4E535345 
 1567      5400
 1568              	.LASF22:
 1569 000a 49414252 		.ascii	"IABR\000"
 1569      00
 1570              	.LASF24:
 1571 000f 49544E53 		.ascii	"ITNS\000"
 1571      00
 1572              	.LASF51:
 1573 0014 4750494F 		.ascii	"GPIOVSRC\000"
 1573      56535243 
 1573      00
ARM GAS  C:\Users\CCMA\AppData\Local\Temp\ccJ9Pjse.s 			page 43


 1574              	.LASF62:
 1575 001d 53443156 		.ascii	"SD1VA\000"
 1575      4100
 1576              	.LASF73:
 1577 0023 464C4153 		.ascii	"FLASHVSRC\000"
 1577      48565352 
 1577      4300
 1578              	.LASF84:
 1579 002d 4E534D56 		.ascii	"NSMVAL\000"
 1579      414C00
 1580              	.LASF55:
 1581 0034 55534248 		.ascii	"USBHVSRC\000"
 1581      56535243 
 1581      00
 1582              	.LASF96:
 1583 003d 474E5520 		.ascii	"GNU C11 5.4.1 20160919 (release) [ARM/embedded-5-br"
 1583      43313120 
 1583      352E342E 
 1583      31203230 
 1583      31363039 
 1584 0070 616E6368 		.ascii	"anch revision 240496] -mthumb -mapcs-frame -mthumb-"
 1584      20726576 
 1584      6973696F 
 1584      6E203234 
 1584      30343936 
 1585 00a3 696E7465 		.ascii	"interwork -march=armv8-m.base -mcmse -gdwarf-2 -O0\000"
 1585      72776F72 
 1585      6B202D6D 
 1585      61726368 
 1585      3D61726D 
 1586              	.LASF42:
 1587 00d6 494F4E53 		.ascii	"IONSSET\000"
 1587      53455400 
 1588              	.LASF2:
 1589 00de 73686F72 		.ascii	"short int\000"
 1589      7420696E 
 1589      7400
 1590              	.LASF10:
 1591 00e8 73697A65 		.ascii	"sizetype\000"
 1591      74797065 
 1591      00
 1592              	.LASF54:
 1593 00f1 45424956 		.ascii	"EBIVA\000"
 1593      4100
 1594              	.LASF46:
 1595 00f7 5356494E 		.ascii	"SVINTSTS\000"
 1595      54535453 
 1595      00
 1596              	.LASF47:
 1597 0100 41504230 		.ascii	"APB0VSRC\000"
 1597      56535243 
 1597      00
 1598              	.LASF57:
 1599 0109 43524356 		.ascii	"CRCVSRC\000"
 1599      53524300 
 1600              	.LASF12:
 1601 0111 5F5F7569 		.ascii	"__uint32_t\000"
ARM GAS  C:\Users\CCMA\AppData\Local\Temp\ccJ9Pjse.s 			page 44


 1601      6E743332 
 1601      5F7400
 1602              	.LASF82:
 1603 011c 4E534D43 		.ascii	"NSMCTL\000"
 1603      544C00
 1604              	.LASF67:
 1605 0123 5352414D 		.ascii	"SRAM0VSRC\000"
 1605      30565352 
 1605      4300
 1606              	.LASF27:
 1607 012d 43505549 		.ascii	"CPUID\000"
 1607      4400
 1608              	.LASF65:
 1609 0133 50444D41 		.ascii	"PDMA1VSRC\000"
 1609      31565352 
 1609      4300
 1610              	.LASF14:
 1611 013d 49534552 		.ascii	"ISER\000"
 1611      00
 1612              	.LASF34:
 1613 0142 5343425F 		.ascii	"SCB_Type\000"
 1613      54797065 
 1613      00
 1614              	.LASF44:
 1615 014b 464E5341 		.ascii	"FNSADDR\000"
 1615      44445200 
 1616              	.LASF79:
 1617 0153 43525054 		.ascii	"CRPTVSRC\000"
 1617      56535243 
 1617      00
 1618              	.LASF70:
 1619 015c 5352414D 		.ascii	"SRAM1VA\000"
 1619      31564100 
 1620              	.LASF71:
 1621 0164 464D4356 		.ascii	"FMCVSRC\000"
 1621      53524300 
 1622              	.LASF28:
 1623 016c 49435352 		.ascii	"ICSR\000"
 1623      00
 1624              	.LASF17:
 1625 0171 52534552 		.ascii	"RSERVED1\000"
 1625      56454431 
 1625      00
 1626              	.LASF6:
 1627 017a 6C6F6E67 		.ascii	"long long int\000"
 1627      206C6F6E 
 1627      6720696E 
 1627      7400
 1628              	.LASF56:
 1629 0188 55534248 		.ascii	"USBHVA\000"
 1629      564100
 1630              	.LASF59:
 1631 018f 53443056 		.ascii	"SD0VSRC\000"
 1631      53524300 
 1632              	.LASF80:
 1633 0197 43525054 		.ascii	"CRPTVA\000"
 1633      564100
ARM GAS  C:\Users\CCMA\AppData\Local\Temp\ccJ9Pjse.s 			page 45


 1634              	.LASF95:
 1635 019e 67617533 		.ascii	"gau32ClkSrcTbl\000"
 1635      32436C6B 
 1635      53726354 
 1635      626C00
 1636              	.LASF4:
 1637 01ad 6C6F6E67 		.ascii	"long int\000"
 1637      20696E74 
 1637      00
 1638              	.LASF94:
 1639 01b6 675F7066 		.ascii	"g_pfnVectors\000"
 1639      6E566563 
 1639      746F7273 
 1639      00
 1640              	.LASF77:
 1641 01c3 53595356 		.ascii	"SYSVSRC\000"
 1641      53524300 
 1642              	.LASF68:
 1643 01cb 5352414D 		.ascii	"SRAM0VA\000"
 1643      30564100 
 1644              	.LASF97:
 1645 01d3 7372632F 		.ascii	"src/system_TC8234.c\000"
 1645      73797374 
 1645      656D5F54 
 1645      43383233 
 1645      342E6300 
 1646              	.LASF60:
 1647 01e7 53443056 		.ascii	"SD0VA\000"
 1647      4100
 1648              	.LASF66:
 1649 01ed 50444D41 		.ascii	"PDMA1VA\000"
 1649      31564100 
 1650              	.LASF64:
 1651 01f5 50444D41 		.ascii	"PDMA0VA\000"
 1651      30564100 
 1652              	.LASF9:
 1653 01fd 6C6F6E67 		.ascii	"long double\000"
 1653      20646F75 
 1653      626C6500 
 1654              	.LASF13:
 1655 0209 75696E74 		.ascii	"uint32_t\000"
 1655      33325F74 
 1655      00
 1656              	.LASF30:
 1657 0212 41495243 		.ascii	"AIRCR\000"
 1657      5200
 1658              	.LASF1:
 1659 0218 756E7369 		.ascii	"unsigned char\000"
 1659      676E6564 
 1659      20636861 
 1659      7200
 1660              	.LASF49:
 1661 0226 41504231 		.ascii	"APB1VSRC\000"
 1661      56535243 
 1661      00
 1662              	.LASF85:
 1663 022f 4E534D53 		.ascii	"NSMSTS\000"
ARM GAS  C:\Users\CCMA\AppData\Local\Temp\ccJ9Pjse.s 			page 46


 1663      545300
 1664              	.LASF35:
 1665 0236 4354524C 		.ascii	"CTRL\000"
 1665      00
 1666              	.LASF26:
 1667 023b 4E564943 		.ascii	"NVIC_Type\000"
 1667      5F547970 
 1667      6500
 1668              	.LASF20:
 1669 0245 49435052 		.ascii	"ICPR\000"
 1669      00
 1670              	.LASF0:
 1671 024a 7369676E 		.ascii	"signed char\000"
 1671      65642063 
 1671      68617200 
 1672              	.LASF32:
 1673 0256 53485052 		.ascii	"SHPR\000"
 1673      00
 1674              	.LASF7:
 1675 025b 6C6F6E67 		.ascii	"long long unsigned int\000"
 1675      206C6F6E 
 1675      6720756E 
 1675      7369676E 
 1675      65642069 
 1676              	.LASF33:
 1677 0272 53484353 		.ascii	"SHCSR\000"
 1677      5200
 1678              	.LASF69:
 1679 0278 5352414D 		.ascii	"SRAM1VSRC\000"
 1679      31565352 
 1679      4300
 1680              	.LASF8:
 1681 0282 756E7369 		.ascii	"unsigned int\000"
 1681      676E6564 
 1681      20696E74 
 1681      00
 1682              	.LASF50:
 1683 028f 41504231 		.ascii	"APB1VA\000"
 1683      564100
 1684              	.LASF16:
 1685 0296 49434552 		.ascii	"ICER\000"
 1685      00
 1686              	.LASF92:
 1687 029b 53797374 		.ascii	"SystemInit\000"
 1687      656D496E 
 1687      697400
 1688              	.LASF61:
 1689 02a6 53443156 		.ascii	"SD1VSRC\000"
 1689      53524300 
 1690              	.LASF87:
 1691 02ae 49444155 		.ascii	"IDAUANS\000"
 1691      414E5300 
 1692              	.LASF72:
 1693 02b6 464D4356 		.ascii	"FMCVA\000"
 1693      4100
 1694              	.LASF90:
 1695 02bc 5343555F 		.ascii	"SCU_Setup\000"
ARM GAS  C:\Users\CCMA\AppData\Local\Temp\ccJ9Pjse.s 			page 47


 1695      53657475 
 1695      7000
 1696              	.LASF11:
 1697 02c6 63686172 		.ascii	"char\000"
 1697      00
 1698              	.LASF93:
 1699 02cb 4379636C 		.ascii	"CyclesPerUs\000"
 1699      65735065 
 1699      72557300 
 1700              	.LASF29:
 1701 02d7 56544F52 		.ascii	"VTOR\000"
 1701      00
 1702              	.LASF91:
 1703 02dc 53797374 		.ascii	"SystemCoreClockUpdate\000"
 1703      656D436F 
 1703      7265436C 
 1703      6F636B55 
 1703      70646174 
 1704              	.LASF74:
 1705 02f2 464C4153 		.ascii	"FLASHVA\000"
 1705      48564100 
 1706              	.LASF18:
 1707 02fa 49535052 		.ascii	"ISPR\000"
 1707      00
 1708              	.LASF3:
 1709 02ff 73686F72 		.ascii	"short unsigned int\000"
 1709      7420756E 
 1709      7369676E 
 1709      65642069 
 1709      6E7400
 1710              	.LASF48:
 1711 0312 41504230 		.ascii	"APB0VA\000"
 1711      564100
 1712              	.LASF58:
 1713 0319 43524356 		.ascii	"CRCVA\000"
 1713      4100
 1714              	.LASF88:
 1715 031f 5343555F 		.ascii	"SCU_T\000"
 1715      5400
 1716              	.LASF15:
 1717 0325 52455345 		.ascii	"RESERVED0\000"
 1717      52564544 
 1717      3000
 1718              	.LASF31:
 1719 032f 52455345 		.ascii	"RESERVED1\000"
 1719      52564544 
 1719      3100
 1720              	.LASF19:
 1721 0339 52455345 		.ascii	"RESERVED2\000"
 1721      52564544 
 1721      3200
 1722              	.LASF21:
 1723 0343 52455345 		.ascii	"RESERVED3\000"
 1723      52564544 
 1723      3300
 1724              	.LASF23:
 1725 034d 52455345 		.ascii	"RESERVED4\000"
ARM GAS  C:\Users\CCMA\AppData\Local\Temp\ccJ9Pjse.s 			page 48


 1725      52564544 
 1725      3400
 1726              	.LASF25:
 1727 0357 52455345 		.ascii	"RESERVED5\000"
 1727      52564544 
 1727      3500
 1728              	.LASF5:
 1729 0361 6C6F6E67 		.ascii	"long unsigned int\000"
 1729      20756E73 
 1729      69676E65 
 1729      6420696E 
 1729      7400
 1730              	.LASF36:
 1731 0373 54595045 		.ascii	"TYPE\000"
 1731      00
 1732              	.LASF39:
 1733 0378 5341555F 		.ascii	"SAU_Type\000"
 1733      54797065 
 1733      00
 1734              	.LASF40:
 1735 0381 504E5353 		.ascii	"PNSSET\000"
 1735      455400
 1736              	.LASF38:
 1737 0388 524C4152 		.ascii	"RLAR\000"
 1737      00
 1738              	.LASF45:
 1739 038d 5356494F 		.ascii	"SVIOIEN\000"
 1739      49454E00 
 1740              	.LASF78:
 1741 0395 53595356 		.ascii	"SYSVA\000"
 1741      4100
 1742              	.LASF41:
 1743 039b 52455345 		.ascii	"RESERVE0\000"
 1743      52564530 
 1743      00
 1744              	.LASF81:
 1745 03a4 52455345 		.ascii	"RESERVE1\000"
 1745      52564531 
 1745      00
 1746              	.LASF86:
 1747 03ad 52455345 		.ascii	"RESERVE2\000"
 1747      52564532 
 1747      00
 1748              	.LASF37:
 1749 03b6 52424152 		.ascii	"RBAR\000"
 1749      00
 1750              	.LASF63:
 1751 03bb 50444D41 		.ascii	"PDMA0VSRC\000"
 1751      30565352 
 1751      4300
 1752              	.LASF52:
 1753 03c5 4750494F 		.ascii	"GPIOVA\000"
 1753      564100
 1754              	.LASF76:
 1755 03cc 53435556 		.ascii	"SCUVA\000"
 1755      4100
 1756              	.LASF98:
ARM GAS  C:\Users\CCMA\AppData\Local\Temp\ccJ9Pjse.s 			page 49


 1757 03d2 433A5C55 		.ascii	"C:\\Users\\CCMA\\workspace\\TrustZoneSecureGccUv\000"
 1757      73657273 
 1757      5C43434D 
 1757      415C776F 
 1757      726B7370 
 1758              	.LASF75:
 1759 03ff 53435556 		.ascii	"SCUVSRC\000"
 1759      53524300 
 1760              	.LASF53:
 1761 0407 45424956 		.ascii	"EBIVSRC\000"
 1761      53524300 
 1762              	.LASF83:
 1763 040f 4E534D4C 		.ascii	"NSMLOAD\000"
 1763      4F414400 
 1764              	.LASF89:
 1765 0417 545A5F53 		.ascii	"TZ_SAU_Setup\000"
 1765      41555F53 
 1765      65747570 
 1765      00
 1766              		.ident	"GCC: (GNU Tools for ARM Embedded Processors) 5.4.1 20160919 (release) [ARM/embedded-5-bran
ARM GAS  C:\Users\CCMA\AppData\Local\Temp\ccJ9Pjse.s 			page 50


DEFINED SYMBOLS
                            *ABS*:00000000 system_TC8234.c
C:\Users\CCMA\AppData\Local\Temp\ccJ9Pjse.s:19     .text:00000000 $t
C:\Users\CCMA\AppData\Local\Temp\ccJ9Pjse.s:23     .text:00000000 TZ_SAU_Setup
C:\Users\CCMA\AppData\Local\Temp\ccJ9Pjse.s:145    .text:000000bc $d
C:\Users\CCMA\AppData\Local\Temp\ccJ9Pjse.s:162    .text:000000f4 $t
C:\Users\CCMA\AppData\Local\Temp\ccJ9Pjse.s:166    .text:000000f4 SCU_Setup
C:\Users\CCMA\AppData\Local\Temp\ccJ9Pjse.s:225    .text:00000138 $d
C:\Users\CCMA\AppData\Local\Temp\ccJ9Pjse.s:234    .rodata:00000000 gau32ClkSrcTbl
C:\Users\CCMA\AppData\Local\Temp\ccJ9Pjse.s:231    .rodata:00000000 $d
C:\Users\CCMA\AppData\Local\Temp\ccJ9Pjse.s:244    .text:0000013c $t
C:\Users\CCMA\AppData\Local\Temp\ccJ9Pjse.s:249    .text:0000013c SystemCoreClockUpdate
C:\Users\CCMA\AppData\Local\Temp\ccJ9Pjse.s:277    .text:00000148 SystemInit
C:\Users\CCMA\AppData\Local\Temp\ccJ9Pjse.s:307    .text:00000160 $d
                     .debug_frame:00000010 $d

UNDEFINED SYMBOLS
g_pfnVectors
