ARM GAS  C:\Users\CCMA\AppData\Local\Temp\ccJ9Pjse.s 			page 1


   1              		.syntax unified
   2              		.arch armv8-m.base
   3              		.fpu softvfp
   4              		.eabi_attribute 20, 1
   5              		.eabi_attribute 21, 1
   6              		.eabi_attribute 23, 3
   7              		.eabi_attribute 24, 1
   8              		.eabi_attribute 25, 1
   9              		.eabi_attribute 26, 1
  10              		.eabi_attribute 30, 6
  11              		.eabi_attribute 34, 0
  12              		.eabi_attribute 18, 4
  13              		.thumb
  14              		.syntax unified
  15              		.file	"system_TC8234.c"
  16              		.text
  17              	.Ltext0:
  18              		.cfi_sections	.debug_frame
  19              		.align	2
  20              		.code	16
  21              		.thumb_func
  22              		.type	TZ_SAU_Setup, %function
  23              	TZ_SAU_Setup:
  24              	.LFB61:
  25              		.file 1 "src/partition_TC8234.h"
   1:src/partition_TC8234.h **** /**************************************************************************//**
   2:src/partition_TC8234.h ****  * @file     partition_TC8234.c
   3:src/partition_TC8234.h ****  * @version  V2.00
   4:src/partition_TC8234.h ****  * $Revision: 3 $
   5:src/partition_TC8234.h ****  * $Date: 16/08/15 6:25p $
   6:src/partition_TC8234.h ****  * @brief    SAU configuration for secure/nonsecure region settings.
   7:src/partition_TC8234.h ****  *
   8:src/partition_TC8234.h ****  * @note
   9:src/partition_TC8234.h ****  * Copyright (C) 2016 Nuvoton Technology Corp. All rights reserved.
  10:src/partition_TC8234.h ****  *
  11:src/partition_TC8234.h ****  ******************************************************************************/
  12:src/partition_TC8234.h **** 
  13:src/partition_TC8234.h **** #ifndef PARTITION_TC8234
  14:src/partition_TC8234.h **** #define PARTITION_TC8234
  15:src/partition_TC8234.h **** 
  16:src/partition_TC8234.h **** /*
  17:src/partition_TC8234.h **** //-------- <<< Use Configuration Wizard in Context Menu >>> -----------------
  18:src/partition_TC8234.h **** */
  19:src/partition_TC8234.h **** 
  20:src/partition_TC8234.h **** /*
  21:src/partition_TC8234.h **** // <e>Secure Attribute Unit (SAU) Control
  22:src/partition_TC8234.h **** */
  23:src/partition_TC8234.h **** #define SAU_INIT_CTRL 1
  24:src/partition_TC8234.h **** 
  25:src/partition_TC8234.h **** /*
  26:src/partition_TC8234.h **** //   <q> Enable SAU
  27:src/partition_TC8234.h **** //   <i> To enable Secure Attribute Unit (SAU).
  28:src/partition_TC8234.h **** */
  29:src/partition_TC8234.h **** #define SAU_INIT_CTRL_ENABLE 1
  30:src/partition_TC8234.h **** 
  31:src/partition_TC8234.h **** /*
  32:src/partition_TC8234.h **** //   <o> All Memory Attribute When SAU is disabled
ARM GAS  C:\Users\CCMA\AppData\Local\Temp\ccJ9Pjse.s 			page 2


  33:src/partition_TC8234.h **** //     <0=> All Memory is Secure
  34:src/partition_TC8234.h **** //     <1=> All Memory is Non-Secure
  35:src/partition_TC8234.h **** //   <i> To set the ALLNS bit in SAU CTRL.
  36:src/partition_TC8234.h **** //   <i> When all Memory is Non-Secure (ALLNS is 1), IDAU can override memory map configuration.
  37:src/partition_TC8234.h **** */
  38:src/partition_TC8234.h **** #define SAU_INIT_CTRL_ALLNS  0
  39:src/partition_TC8234.h **** 
  40:src/partition_TC8234.h **** /*
  41:src/partition_TC8234.h **** // </e>
  42:src/partition_TC8234.h **** */
  43:src/partition_TC8234.h **** 
  44:src/partition_TC8234.h **** /*
  45:src/partition_TC8234.h **** // <h>Enable and Set Secure/Non-Secure region
  46:src/partition_TC8234.h **** */
  47:src/partition_TC8234.h **** #define SAU_REGIONS_MAX   8                 /* Max. number of SAU regions */
  48:src/partition_TC8234.h **** 
  49:src/partition_TC8234.h **** /*
  50:src/partition_TC8234.h **** //   <e>SAU Region 0
  51:src/partition_TC8234.h **** //   <i> Setup SAU Region 0
  52:src/partition_TC8234.h **** */
  53:src/partition_TC8234.h **** #define SAU_INIT_REGION0    1
  54:src/partition_TC8234.h **** /*
  55:src/partition_TC8234.h **** //     <o>Start Address <0-0xFFFFFFE0>
  56:src/partition_TC8234.h **** */
  57:src/partition_TC8234.h **** #define SAU_INIT_START0     0x00000000      /* start address of SAU region 0 */
  58:src/partition_TC8234.h **** /*
  59:src/partition_TC8234.h **** //     <o>End Address <0x1F-0xFFFFFFFF>
  60:src/partition_TC8234.h **** */
  61:src/partition_TC8234.h **** #define SAU_INIT_END0       0x00040000      /* end address of SAU region 0 */
  62:src/partition_TC8234.h **** /*
  63:src/partition_TC8234.h **** //     <o>Region is
  64:src/partition_TC8234.h **** //         <0=>Non-Secure
  65:src/partition_TC8234.h **** //         <1=>Secure, Non-Secure Callable
  66:src/partition_TC8234.h **** */
  67:src/partition_TC8234.h **** #define SAU_INIT_NSC0       1
  68:src/partition_TC8234.h **** /*
  69:src/partition_TC8234.h **** //   </e>
  70:src/partition_TC8234.h **** */
  71:src/partition_TC8234.h **** 
  72:src/partition_TC8234.h **** /*
  73:src/partition_TC8234.h **** //   <e>SAU Region 1
  74:src/partition_TC8234.h **** //   <i> Setup SAU Region 1
  75:src/partition_TC8234.h **** */
  76:src/partition_TC8234.h **** #define SAU_INIT_REGION1    1
  77:src/partition_TC8234.h **** /*
  78:src/partition_TC8234.h **** //     <o>Start Address <0-0xFFFFFFE0>
  79:src/partition_TC8234.h **** */
  80:src/partition_TC8234.h **** #define SAU_INIT_START1     0x10040000
  81:src/partition_TC8234.h **** /*
  82:src/partition_TC8234.h **** //     <o>End Address <0x1F-0xFFFFFFFF>
  83:src/partition_TC8234.h **** */
  84:src/partition_TC8234.h **** #define SAU_INIT_END1       0x1007FFFF
  85:src/partition_TC8234.h **** /*
  86:src/partition_TC8234.h **** //     <o>Region is
  87:src/partition_TC8234.h **** //         <0=>Non-Secure
  88:src/partition_TC8234.h **** //         <1=>Secure, Non-Secure Callable
  89:src/partition_TC8234.h **** */
ARM GAS  C:\Users\CCMA\AppData\Local\Temp\ccJ9Pjse.s 			page 3


  90:src/partition_TC8234.h **** #define SAU_INIT_NSC1       0
  91:src/partition_TC8234.h **** /*
  92:src/partition_TC8234.h **** //   </e>
  93:src/partition_TC8234.h **** */
  94:src/partition_TC8234.h **** 
  95:src/partition_TC8234.h **** /*
  96:src/partition_TC8234.h **** //   <e>SAU Region 2
  97:src/partition_TC8234.h **** //   <i> Setup SAU Region 2
  98:src/partition_TC8234.h **** */
  99:src/partition_TC8234.h **** #define SAU_INIT_REGION2    1
 100:src/partition_TC8234.h **** /*
 101:src/partition_TC8234.h **** //     <o>Start Address <0-0xFFFFFFE0>
 102:src/partition_TC8234.h **** */
 103:src/partition_TC8234.h **** #define SAU_INIT_START2     0x2000FC00
 104:src/partition_TC8234.h **** /*
 105:src/partition_TC8234.h **** //     <o>End Address <0x1F-0xFFFFFFFF>
 106:src/partition_TC8234.h **** */
 107:src/partition_TC8234.h **** #define SAU_INIT_END2       0x2000FFFF
 108:src/partition_TC8234.h **** /*
 109:src/partition_TC8234.h **** //     <o>Region is
 110:src/partition_TC8234.h **** //         <0=>Non-Secure
 111:src/partition_TC8234.h **** //         <1=>Secure, Non-Secure Callable
 112:src/partition_TC8234.h **** */
 113:src/partition_TC8234.h **** #define SAU_INIT_NSC2       1
 114:src/partition_TC8234.h **** /*
 115:src/partition_TC8234.h **** //   </e>
 116:src/partition_TC8234.h **** */
 117:src/partition_TC8234.h **** 
 118:src/partition_TC8234.h **** /*
 119:src/partition_TC8234.h **** //   <e>SAU Region 3
 120:src/partition_TC8234.h **** //   <i> Setup SAU Region 3
 121:src/partition_TC8234.h **** */
 122:src/partition_TC8234.h **** #define SAU_INIT_REGION3    1
 123:src/partition_TC8234.h **** /*
 124:src/partition_TC8234.h **** //     <o>Start Address <0-0xFFFFFFE0>
 125:src/partition_TC8234.h **** */
 126:src/partition_TC8234.h **** #define SAU_INIT_START3     0x30010000
 127:src/partition_TC8234.h **** /*
 128:src/partition_TC8234.h **** //     <o>End Address <0x1F-0xFFFFFFFF>
 129:src/partition_TC8234.h **** */
 130:src/partition_TC8234.h **** #define SAU_INIT_END3       0x3001FFFF
 131:src/partition_TC8234.h **** /*
 132:src/partition_TC8234.h **** //     <o>Region is
 133:src/partition_TC8234.h **** //         <0=>Non-Secure
 134:src/partition_TC8234.h **** //         <1=>Secure, Non-Secure Callable
 135:src/partition_TC8234.h **** */
 136:src/partition_TC8234.h **** #define SAU_INIT_NSC3       0
 137:src/partition_TC8234.h **** /*
 138:src/partition_TC8234.h **** //   </e>
 139:src/partition_TC8234.h **** */
 140:src/partition_TC8234.h **** 
 141:src/partition_TC8234.h **** /*
 142:src/partition_TC8234.h **** //   <e>SAU Region 4
 143:src/partition_TC8234.h **** //   <i> Setup SAU Region 4
 144:src/partition_TC8234.h **** */
 145:src/partition_TC8234.h **** #define SAU_INIT_REGION4    1
 146:src/partition_TC8234.h **** /*
ARM GAS  C:\Users\CCMA\AppData\Local\Temp\ccJ9Pjse.s 			page 4


 147:src/partition_TC8234.h **** //     <o>Start Address <0-0xFFFFFFE0>
 148:src/partition_TC8234.h **** */
 149:src/partition_TC8234.h **** #define SAU_INIT_START4     0x50000000      /* start address of SAU region 4 */
 150:src/partition_TC8234.h **** 
 151:src/partition_TC8234.h **** /*
 152:src/partition_TC8234.h **** //     <o>End Address <0x1F-0xFFFFFFFF>
 153:src/partition_TC8234.h **** */
 154:src/partition_TC8234.h **** #define SAU_INIT_END4       0x5FFFFFFF      /* end address of SAU region 4 */
 155:src/partition_TC8234.h **** 
 156:src/partition_TC8234.h **** /*
 157:src/partition_TC8234.h **** //     <o>Region is
 158:src/partition_TC8234.h **** //         <0=>Non-Secure
 159:src/partition_TC8234.h **** //         <1=>Secure, Non-Secure Callable
 160:src/partition_TC8234.h **** */
 161:src/partition_TC8234.h **** #define SAU_INIT_NSC4       0
 162:src/partition_TC8234.h **** /*
 163:src/partition_TC8234.h **** //   </e>
 164:src/partition_TC8234.h **** */
 165:src/partition_TC8234.h **** 
 166:src/partition_TC8234.h **** /*
 167:src/partition_TC8234.h **** //   <e>SAU Region 5
 168:src/partition_TC8234.h **** //   <i> Setup SAU Region 5
 169:src/partition_TC8234.h **** */
 170:src/partition_TC8234.h **** #define SAU_INIT_REGION5    1
 171:src/partition_TC8234.h **** 
 172:src/partition_TC8234.h **** /*
 173:src/partition_TC8234.h **** //     <o>Start Address <0-0xFFFFFFE0>
 174:src/partition_TC8234.h **** */
 175:src/partition_TC8234.h **** #define SAU_INIT_START5     0x00807C00
 176:src/partition_TC8234.h **** 
 177:src/partition_TC8234.h **** /*
 178:src/partition_TC8234.h **** //     <o>End Address <0x1F-0xFFFFFFFF>
 179:src/partition_TC8234.h **** */
 180:src/partition_TC8234.h **** #define SAU_INIT_END5       0x00807FFF
 181:src/partition_TC8234.h **** 
 182:src/partition_TC8234.h **** /*
 183:src/partition_TC8234.h **** //     <o>Region is
 184:src/partition_TC8234.h **** //         <0=>Non-Secure
 185:src/partition_TC8234.h **** //         <1=>Secure, Non-Secure Callable
 186:src/partition_TC8234.h **** */
 187:src/partition_TC8234.h **** #define SAU_INIT_NSC5       1
 188:src/partition_TC8234.h **** /*
 189:src/partition_TC8234.h **** //   </e>
 190:src/partition_TC8234.h **** */
 191:src/partition_TC8234.h **** 
 192:src/partition_TC8234.h **** /*
 193:src/partition_TC8234.h **** //   <e>SAU Region 6
 194:src/partition_TC8234.h **** //   <i> Setup SAU Region 6
 195:src/partition_TC8234.h **** */
 196:src/partition_TC8234.h **** #define SAU_INIT_REGION6    0
 197:src/partition_TC8234.h **** 
 198:src/partition_TC8234.h **** /*
 199:src/partition_TC8234.h **** //     <o>Start Address <0-0xFFFFFFE0>
 200:src/partition_TC8234.h **** */
 201:src/partition_TC8234.h **** #define SAU_INIT_START6     0x00000000
 202:src/partition_TC8234.h **** 
 203:src/partition_TC8234.h **** /*
ARM GAS  C:\Users\CCMA\AppData\Local\Temp\ccJ9Pjse.s 			page 5


 204:src/partition_TC8234.h **** //     <o>End Address <0x1F-0xFFFFFFFF>
 205:src/partition_TC8234.h **** */
 206:src/partition_TC8234.h **** #define SAU_INIT_END6       0x00000000
 207:src/partition_TC8234.h **** 
 208:src/partition_TC8234.h **** /*
 209:src/partition_TC8234.h **** //     <o>Region is
 210:src/partition_TC8234.h **** //         <0=>Non-Secure
 211:src/partition_TC8234.h **** //         <1=>Secure, Non-Secure Callable
 212:src/partition_TC8234.h **** */
 213:src/partition_TC8234.h **** #define SAU_INIT_NSC6       0
 214:src/partition_TC8234.h **** /*
 215:src/partition_TC8234.h **** //   </e>
 216:src/partition_TC8234.h **** */
 217:src/partition_TC8234.h **** 
 218:src/partition_TC8234.h **** /*
 219:src/partition_TC8234.h **** //   <e>SAU Region 7
 220:src/partition_TC8234.h **** //   <i> Setup SAU Region 7
 221:src/partition_TC8234.h **** */
 222:src/partition_TC8234.h **** #define SAU_INIT_REGION7    0
 223:src/partition_TC8234.h **** 
 224:src/partition_TC8234.h **** /*
 225:src/partition_TC8234.h **** //     <o>Start Address <0-0xFFFFFFE0>
 226:src/partition_TC8234.h **** */
 227:src/partition_TC8234.h **** #define SAU_INIT_START7     0x00000000
 228:src/partition_TC8234.h **** 
 229:src/partition_TC8234.h **** /*
 230:src/partition_TC8234.h **** //     <o>End Address <0x1F-0xFFFFFFFF>
 231:src/partition_TC8234.h **** */
 232:src/partition_TC8234.h **** #define SAU_INIT_END7       0x00000000
 233:src/partition_TC8234.h **** 
 234:src/partition_TC8234.h **** /*
 235:src/partition_TC8234.h **** //     <o>Region is
 236:src/partition_TC8234.h **** //         <0=>Non-Secure
 237:src/partition_TC8234.h **** //         <1=>Secure, Non-Secure Callable
 238:src/partition_TC8234.h **** */
 239:src/partition_TC8234.h **** #define SAU_INIT_NSC7       0
 240:src/partition_TC8234.h **** /*
 241:src/partition_TC8234.h **** //   </e>
 242:src/partition_TC8234.h **** */
 243:src/partition_TC8234.h **** 
 244:src/partition_TC8234.h **** /*
 245:src/partition_TC8234.h **** // </h>
 246:src/partition_TC8234.h **** */
 247:src/partition_TC8234.h **** 
 248:src/partition_TC8234.h **** /*
 249:src/partition_TC8234.h **** // <e>Setup behaviour of Sleep and Exception Handling
 250:src/partition_TC8234.h **** */
 251:src/partition_TC8234.h **** #define SCB_CSR_AIRCR_INIT  1
 252:src/partition_TC8234.h **** 
 253:src/partition_TC8234.h **** /*
 254:src/partition_TC8234.h **** //   <o> Deep Sleep can be enabled by
 255:src/partition_TC8234.h **** //     <0=>Secure and Non-Secure state
 256:src/partition_TC8234.h **** //     <1=>Secure state only
 257:src/partition_TC8234.h **** //   <i> Value for SCB->CSR register bit DEEPSLEEPS
 258:src/partition_TC8234.h **** */
 259:src/partition_TC8234.h **** #define SCB_CSR_DEEPSLEEPS_VAL  0
 260:src/partition_TC8234.h **** 
ARM GAS  C:\Users\CCMA\AppData\Local\Temp\ccJ9Pjse.s 			page 6


 261:src/partition_TC8234.h **** /*
 262:src/partition_TC8234.h **** //   <o>System reset request accessible from
 263:src/partition_TC8234.h **** //     <0=> Secure and Non-Secure state
 264:src/partition_TC8234.h **** //     <1=> Secure state only
 265:src/partition_TC8234.h **** //   <i> Value for SCB->AIRCR register bit SYSRESETREQS
 266:src/partition_TC8234.h **** */
 267:src/partition_TC8234.h **** #define SCB_AIRCR_SYSRESETREQS_VAL  0
 268:src/partition_TC8234.h **** 
 269:src/partition_TC8234.h **** /*
 270:src/partition_TC8234.h **** //   <o>Priority of Non-Secure exceptions is
 271:src/partition_TC8234.h **** //     <0=> Not altered
 272:src/partition_TC8234.h **** //     <1=> Lowered to 0x80-0xFF
 273:src/partition_TC8234.h **** //   <i> Value for SCB->AIRCR register bit PRIS
 274:src/partition_TC8234.h **** */
 275:src/partition_TC8234.h **** #define SCB_AIRCR_PRIS_VAL      0
 276:src/partition_TC8234.h **** 
 277:src/partition_TC8234.h **** /*
 278:src/partition_TC8234.h **** //   <o>BusFault, HardFault, and NMI target
 279:src/partition_TC8234.h **** //     <0=> Secure state
 280:src/partition_TC8234.h **** //     <1=> Non-Secure state
 281:src/partition_TC8234.h **** //   <i> Value for SCB->AIRCR register bit BFHFNMINS
 282:src/partition_TC8234.h **** */
 283:src/partition_TC8234.h **** #define SCB_AIRCR_BFHFNMINS_VAL 1
 284:src/partition_TC8234.h **** 
 285:src/partition_TC8234.h **** /*
 286:src/partition_TC8234.h **** // </e>
 287:src/partition_TC8234.h **** */
 288:src/partition_TC8234.h **** 
 289:src/partition_TC8234.h **** 
 290:src/partition_TC8234.h **** /*
 291:src/partition_TC8234.h **** // <h>Assign Interrupt to Secure or Non-secure Vector
 292:src/partition_TC8234.h **** */
 293:src/partition_TC8234.h **** 
 294:src/partition_TC8234.h **** /*
 295:src/partition_TC8234.h ****     Initialize ITNS 0 (Interrupts 0..31)
 296:src/partition_TC8234.h **** */
 297:src/partition_TC8234.h **** #define NVIC_INIT_ITNS0    1
 298:src/partition_TC8234.h **** /*
 299:src/partition_TC8234.h **** // Interrupts 0..31
 300:src/partition_TC8234.h **** //   <o.0>  BOD Interrupt         <0=> Secure <1=> Non-Secure
 301:src/partition_TC8234.h **** //   <o.1>  IRC Interrupt         <0=> Secure <1=> Non-Secure
 302:src/partition_TC8234.h **** //   <o.2>  PWRWU Interrupt       <0=> Secure <1=> Non-Secure
 303:src/partition_TC8234.h **** //   <o.3>  SRAM Interrupt        <0=> Secure <1=> Non-Secure
 304:src/partition_TC8234.h **** //   <o.4>  CLKFAIL Interrupt     <0=> Secure <1=> Non-Secure
 305:src/partition_TC8234.h **** //
 306:src/partition_TC8234.h **** //   <o.6>  RTC Interrupt         <0=> Secure <1=> Non-Secure
 307:src/partition_TC8234.h **** //   <o.7>  TAMPER Interrupt      <0=> Secure <1=> Non-Secure
 308:src/partition_TC8234.h **** //   <o.8>  WDT Interrupt         <0=> Secure <1=> Non-Secure
 309:src/partition_TC8234.h **** //   <o.9>  WWDT Interrupt        <0=> Secure <1=> Non-Secure
 310:src/partition_TC8234.h **** //   <o.10> EINT0 Interrupt       <0=> Secure <1=> Non-Secure
 311:src/partition_TC8234.h **** //   <o.11> EINT1 Interrupt       <0=> Secure <1=> Non-Secure
 312:src/partition_TC8234.h **** //   <o.12> EINT2 Interrupt       <0=> Secure <1=> Non-Secure
 313:src/partition_TC8234.h **** //   <o.13> EINT3 Interrupt       <0=> Secure <1=> Non-Secure
 314:src/partition_TC8234.h **** //   <o.14> EINT4 Interrupt       <0=> Secure <1=> Non-Secure
 315:src/partition_TC8234.h **** //   <o.15> EINT5 Interrupt       <0=> Secure <1=> Non-Secure
 316:src/partition_TC8234.h **** //   <o.16> GPA Interrupt         <0=> Secure <1=> Non-Secure
 317:src/partition_TC8234.h **** //   <o.17> GPB Interrupt         <0=> Secure <1=> Non-Secure
ARM GAS  C:\Users\CCMA\AppData\Local\Temp\ccJ9Pjse.s 			page 7


 318:src/partition_TC8234.h **** //   <o.18> GPC Interrupt         <0=> Secure <1=> Non-Secure
 319:src/partition_TC8234.h **** //   <o.19> GPD Interrupt         <0=> Secure <1=> Non-Secure
 320:src/partition_TC8234.h **** //   <o.20> GPE Interrupt         <0=> Secure <1=> Non-Secure
 321:src/partition_TC8234.h **** //   <o.21> GPF Interrupt         <0=> Secure <1=> Non-Secure
 322:src/partition_TC8234.h **** //   <o.22> SPI0 Interrupt        <0=> Secure <1=> Non-Secure
 323:src/partition_TC8234.h **** //   <o.23> SPI1 Interrupt        <0=> Secure <1=> Non-Secure
 324:src/partition_TC8234.h **** //   <o.24> BRAKE0 Interrupt      <0=> Secure <1=> Non-Secure
 325:src/partition_TC8234.h **** //   <o.25> PWM0_P0 Interrupt     <0=> Secure <1=> Non-Secure
 326:src/partition_TC8234.h **** //   <o.26> PWM0_P1 Interrupt     <0=> Secure <1=> Non-Secure
 327:src/partition_TC8234.h **** //   <o.27> PWM0_P2 Interrupt     <0=> Secure <1=> Non-Secure
 328:src/partition_TC8234.h **** //   <o.28> BRAKE1 Interrupt      <0=> Secure <1=> Non-Secure
 329:src/partition_TC8234.h **** //   <o.29> PWM1_P0 Interrupt     <0=> Secure <1=> Non-Secure
 330:src/partition_TC8234.h **** //   <o.30> PWM1_P1 Interrupt     <0=> Secure <1=> Non-Secure
 331:src/partition_TC8234.h **** //   <o.31> PWM1_P2 Interrupt     <0=> Secure <1=> Non-Secure
 332:src/partition_TC8234.h **** */
 333:src/partition_TC8234.h **** #define NVIC_INIT_ITNS0_VAL      0x00000000
 334:src/partition_TC8234.h **** 
 335:src/partition_TC8234.h **** 
 336:src/partition_TC8234.h **** /*
 337:src/partition_TC8234.h ****     Initialize ITNS 1 (Interrupts 32..63)
 338:src/partition_TC8234.h **** */
 339:src/partition_TC8234.h **** 
 340:src/partition_TC8234.h **** #define NVIC_INIT_ITNS1    1
 341:src/partition_TC8234.h **** 
 342:src/partition_TC8234.h **** /*
 343:src/partition_TC8234.h **** // Interrupts 32..63
 344:src/partition_TC8234.h **** //   <o.0>  TMR0 Interrupt   <0=> Secure <1=> Non-Secure
 345:src/partition_TC8234.h **** //   <o.1>  TMR1 Interrupt   <0=> Secure <1=> Non-Secure
 346:src/partition_TC8234.h **** //   <o.2>  TMR2 Interrupt   <0=> Secure <1=> Non-Secure
 347:src/partition_TC8234.h **** //   <o.3>  TMR3 Interrupt   <0=> Secure <1=> Non-Secure
 348:src/partition_TC8234.h **** //   <o.4>  UART0 Interrupt  <0=> Secure <1=> Non-Secure
 349:src/partition_TC8234.h **** //   <o.5>  UART1 Interrupt  <0=> Secure <1=> Non-Secure
 350:src/partition_TC8234.h **** //   <o.6>  I2C0 Interrupt   <0=> Secure <1=> Non-Secure
 351:src/partition_TC8234.h **** //   <o.7>  I2C1 Interrupt   <0=> Secure <1=> Non-Secure
 352:src/partition_TC8234.h **** //   <o.8>  PDMA Interrupt   <0=> Secure <1=> Non-Secure
 353:src/partition_TC8234.h **** //   <o.9> DAC Interrupt    <0=> Secure <1=> Non-Secure
 354:src/partition_TC8234.h **** //   <o.10> EADC0 Interrupt  <0=> Secure <1=> Non-Secure
 355:src/partition_TC8234.h **** //   <o.11> EADC1 Interrupt  <0=> Secure <1=> Non-Secure
 356:src/partition_TC8234.h **** //   <o.12> ACMP01 Interrupt <0=> Secure <1=> Non-Secure
 357:src/partition_TC8234.h **** //
 358:src/partition_TC8234.h **** //   <o.14> EADC2 Interrupt  <0=> Secure <1=> Non-Secure
 359:src/partition_TC8234.h **** //   <o.15> EADC3 Interrupt  <0=> Secure <1=> Non-Secure
 360:src/partition_TC8234.h **** //   <o.16> UART2 Interrupt  <0=> Secure <1=> Non-Secure
 361:src/partition_TC8234.h **** //   <o.17> UART3 Interrupt  <0=> Secure <1=> Non-Secure
 362:src/partition_TC8234.h **** //
 363:src/partition_TC8234.h **** //   <o.19> SPI2 Interrupt   <0=> Secure <1=> Non-Secure
 364:src/partition_TC8234.h **** //   <o.20> SPI3 Interrupt   <0=> Secure <1=> Non-Secure
 365:src/partition_TC8234.h **** //   <o.21> USBD Interrupt   <0=> Secure <1=> Non-Secure
 366:src/partition_TC8234.h **** //   <o.22> USBH Interrupt   <0=> Secure <1=> Non-Secure
 367:src/partition_TC8234.h **** //   <o.23> OTG Interrupt    <0=> Secure <1=> Non-Secure
 368:src/partition_TC8234.h **** //   <o.24> CAN0 Interrupt   <0=> Secure <1=> Non-Secure
 369:src/partition_TC8234.h **** //   <o.25> CAN1 Interrupt   <0=> Secure <1=> Non-Secure
 370:src/partition_TC8234.h **** //   <o.26> SC0 Interrupt    <0=> Secure <1=> Non-Secure
 371:src/partition_TC8234.h **** //   <o.27> SC1 Interrupt    <0=> Secure <1=> Non-Secure
 372:src/partition_TC8234.h **** //   <o.28> SC2 Interrupt    <0=> Secure <1=> Non-Secure
 373:src/partition_TC8234.h **** //   <o.29> SC3 Interrupt    <0=> Secure <1=> Non-Secure
 374:src/partition_TC8234.h **** //   <o.30> SPI4 Interrupt   <0=> Secure <1=> Non-Secure
ARM GAS  C:\Users\CCMA\AppData\Local\Temp\ccJ9Pjse.s 			page 8


 375:src/partition_TC8234.h **** //   <o.31> SD0 Interrupt    <0=> Secure <1=> Non-Secure
 376:src/partition_TC8234.h **** */
 377:src/partition_TC8234.h **** #define NVIC_INIT_ITNS1_VAL      0x00000000
 378:src/partition_TC8234.h **** 
 379:src/partition_TC8234.h **** 
 380:src/partition_TC8234.h **** /*
 381:src/partition_TC8234.h ****     Initialize ITNS 2 (Interrupts 64..95)
 382:src/partition_TC8234.h **** */
 383:src/partition_TC8234.h **** 
 384:src/partition_TC8234.h **** #define NVIC_INIT_ITNS2    1
 385:src/partition_TC8234.h **** /*
 386:src/partition_TC8234.h **** //
 387:src/partition_TC8234.h **** //   <o.1>  USBD Interrupt   <0=> Secure <1=> Non-Secure
 388:src/partition_TC8234.h **** //
 389:src/partition_TC8234.h **** //
 390:src/partition_TC8234.h **** //   <o.4>  I2S0 Interrupt   <0=> Secure <1=> Non-Secure
 391:src/partition_TC8234.h **** //
 392:src/partition_TC8234.h **** //   <o.6>  OPA0 Interrupt   <0=> Secure <1=> Non-Secure
 393:src/partition_TC8234.h **** //   <o.7>  CRPT Interrupt   <0=> Secure <1=> Non-Secure
 394:src/partition_TC8234.h **** //   <o.8> GPG Interrupt    <0=> Secure <1=> Non-Secure
 395:src/partition_TC8234.h **** //   <o.9> EINT6 Interrupt  <0=> Secure <1=> Non-Secure
 396:src/partition_TC8234.h **** //   <o.10> UART4 Interrupt  <0=> Secure <1=> Non-Secure
 397:src/partition_TC8234.h **** //   <o.11> UART5 Interrupt  <0=> Secure <1=> Non-Secure
 398:src/partition_TC8234.h **** //   <o.12> USCI0 Interrupt  <0=> Secure <1=> Non-Secure
 399:src/partition_TC8234.h **** //   <o.13> USCI1 Interrupt  <0=> Secure <1=> Non-Secure
 400:src/partition_TC8234.h **** //   <o.14> BPWM0 Interrupt  <0=> Secure <1=> Non-Secure
 401:src/partition_TC8234.h **** //   <o.15> BPWM1 Interrupt  <0=> Secure <1=> Non-Secure
 402:src/partition_TC8234.h **** //
 403:src/partition_TC8234.h **** //
 404:src/partition_TC8234.h **** //   <o.18> I2C2 Interrupt   <0=> Secure <1=> Non-Secure
 405:src/partition_TC8234.h **** //
 406:src/partition_TC8234.h **** //   <o.20> QEI0 Interrupt   <0=> Secure <1=> Non-Secure
 407:src/partition_TC8234.h **** //   <o.21> QEI1 Interrupt   <0=> Secure <1=> Non-Secure
 408:src/partition_TC8234.h **** //   <o.22> ECAP0 Interrupt  <0=> Secure <1=> Non-Secure
 409:src/partition_TC8234.h **** //   <o.23> ECAP1 Interrupt  <0=> Secure <1=> Non-Secure
 410:src/partition_TC8234.h **** //   <o.24> GPH Interrupt    <0=> Secure <1=> Non-Secure
 411:src/partition_TC8234.h **** //   <o.25> EINT7 Interrupt  <0=> Secure <1=> Non-Secure
 412:src/partition_TC8234.h **** //   <o.26> SD1 Interrupt    <0=> Secure <1=> Non-Secure
 413:src/partition_TC8234.h **** //
 414:src/partition_TC8234.h **** //
 415:src/partition_TC8234.h **** //
 416:src/partition_TC8234.h **** //   <o.30> SWDC Interrupt   <0=> Secure <1=> Non-Secure
 417:src/partition_TC8234.h **** //   <o.31> ETMC Interrupt   <0=> Secure <1=> Non-Secure
 418:src/partition_TC8234.h **** */
 419:src/partition_TC8234.h **** #define NVIC_INIT_ITNS2_VAL      0x00000000
 420:src/partition_TC8234.h **** 
 421:src/partition_TC8234.h **** 
 422:src/partition_TC8234.h **** 
 423:src/partition_TC8234.h **** /*
 424:src/partition_TC8234.h **** // </h>
 425:src/partition_TC8234.h **** */
 426:src/partition_TC8234.h **** 
 427:src/partition_TC8234.h **** 
 428:src/partition_TC8234.h **** 
 429:src/partition_TC8234.h **** /*
 430:src/partition_TC8234.h ****     max 128 SAU regions.
 431:src/partition_TC8234.h ****     SAU regions are defined in partition.h
ARM GAS  C:\Users\CCMA\AppData\Local\Temp\ccJ9Pjse.s 			page 9


 432:src/partition_TC8234.h ****  */
 433:src/partition_TC8234.h **** 
 434:src/partition_TC8234.h **** #define SAU_INIT_REGION(n) \
 435:src/partition_TC8234.h ****     SAU->RNR  =  (n                                     & SAU_RNR_REGION_Msk); \
 436:src/partition_TC8234.h ****     SAU->RBAR =  (SAU_INIT_START##n                     & SAU_RBAR_BADDR_Msk); \
 437:src/partition_TC8234.h ****     SAU->RLAR =  (SAU_INIT_END##n                       & SAU_RLAR_LADDR_Msk) | \
 438:src/partition_TC8234.h ****                 ((SAU_INIT_NSC##n << SAU_RLAR_NSC_Pos)  & SAU_RLAR_NSC_Msk)   | 1U
 439:src/partition_TC8234.h **** 
 440:src/partition_TC8234.h **** /**
 441:src/partition_TC8234.h ****   \brief   Setup a SAU Region
 442:src/partition_TC8234.h ****   \details Writes the region information contained in SAU_Region to the
 443:src/partition_TC8234.h ****            registers SAU_RNR, SAU_RBAR, and SAU_RLAR
 444:src/partition_TC8234.h ****  */
 445:src/partition_TC8234.h **** __STATIC_INLINE void TZ_SAU_Setup(void)
 446:src/partition_TC8234.h **** {
  26              		.loc 1 446 0
  27              		.cfi_startproc
  28              		@ args = 0, pretend = 0, frame = 0
  29              		@ frame_needed = 1, uses_anonymous_args = 0
  30 0000 80B5     		push	{r7, lr}
  31              	.LCFI0:
  32              		.cfi_def_cfa_offset 8
  33              		.cfi_offset 7, -8
  34              		.cfi_offset 14, -4
  35 0002 00AF     		add	r7, sp, #0
  36              	.LCFI1:
  37              		.cfi_def_cfa_register 7
 447:src/partition_TC8234.h **** 
 448:src/partition_TC8234.h **** #if defined (__SAU_PRESENT) && (__SAU_PRESENT == 1U)
 449:src/partition_TC8234.h **** 
 450:src/partition_TC8234.h **** #if defined (SAU_INIT_REGION0) && (SAU_INIT_REGION0 == 1U)
 451:src/partition_TC8234.h ****     SAU_INIT_REGION(0);
  38              		.loc 1 451 0
  39 0004 2D4B     		ldr	r3, .L2
  40 0006 0022     		movs	r2, #0
  41 0008 9A60     		str	r2, [r3, #8]
  42 000a 2C4B     		ldr	r3, .L2
  43 000c 0022     		movs	r2, #0
  44 000e DA60     		str	r2, [r3, #12]
  45 0010 2A4B     		ldr	r3, .L2
  46 0012 2B4A     		ldr	r2, .L2+4
  47 0014 1A61     		str	r2, [r3, #16]
 452:src/partition_TC8234.h **** #endif
 453:src/partition_TC8234.h **** 
 454:src/partition_TC8234.h **** #if defined (SAU_INIT_REGION1) && (SAU_INIT_REGION1 == 1U)
 455:src/partition_TC8234.h ****     SAU_INIT_REGION(1);
  48              		.loc 1 455 0
  49 0016 294B     		ldr	r3, .L2
  50 0018 0122     		movs	r2, #1
  51 001a 9A60     		str	r2, [r3, #8]
  52 001c 274B     		ldr	r3, .L2
  53 001e 294A     		ldr	r2, .L2+8
  54 0020 DA60     		str	r2, [r3, #12]
  55 0022 264B     		ldr	r3, .L2
  56 0024 284A     		ldr	r2, .L2+12
  57 0026 1A61     		str	r2, [r3, #16]
 456:src/partition_TC8234.h **** #endif
ARM GAS  C:\Users\CCMA\AppData\Local\Temp\ccJ9Pjse.s 			page 10


 457:src/partition_TC8234.h **** 
 458:src/partition_TC8234.h **** #if defined (SAU_INIT_REGION2) && (SAU_INIT_REGION2 == 1U)
 459:src/partition_TC8234.h ****     SAU_INIT_REGION(2);
  58              		.loc 1 459 0
  59 0028 244B     		ldr	r3, .L2
  60 002a 0222     		movs	r2, #2
  61 002c 9A60     		str	r2, [r3, #8]
  62 002e 234B     		ldr	r3, .L2
  63 0030 264A     		ldr	r2, .L2+16
  64 0032 DA60     		str	r2, [r3, #12]
  65 0034 214B     		ldr	r3, .L2
  66 0036 264A     		ldr	r2, .L2+20
  67 0038 1A61     		str	r2, [r3, #16]
 460:src/partition_TC8234.h **** #endif
 461:src/partition_TC8234.h **** 
 462:src/partition_TC8234.h **** #if defined (SAU_INIT_REGION3) && (SAU_INIT_REGION3 == 1U)
 463:src/partition_TC8234.h ****     SAU_INIT_REGION(3);
  68              		.loc 1 463 0
  69 003a 204B     		ldr	r3, .L2
  70 003c 0322     		movs	r2, #3
  71 003e 9A60     		str	r2, [r3, #8]
  72 0040 1E4B     		ldr	r3, .L2
  73 0042 244A     		ldr	r2, .L2+24
  74 0044 DA60     		str	r2, [r3, #12]
  75 0046 1D4B     		ldr	r3, .L2
  76 0048 234A     		ldr	r2, .L2+28
  77 004a 1A61     		str	r2, [r3, #16]
 464:src/partition_TC8234.h **** #endif
 465:src/partition_TC8234.h **** 
 466:src/partition_TC8234.h **** #if defined (SAU_INIT_REGION4) && (SAU_INIT_REGION4 == 1U)
 467:src/partition_TC8234.h ****     SAU_INIT_REGION(4);
  78              		.loc 1 467 0
  79 004c 1B4B     		ldr	r3, .L2
  80 004e 0422     		movs	r2, #4
  81 0050 9A60     		str	r2, [r3, #8]
  82 0052 1A4B     		ldr	r3, .L2
  83 0054 A022     		movs	r2, #160
  84 0056 D205     		lsls	r2, r2, #23
  85 0058 DA60     		str	r2, [r3, #12]
  86 005a 184B     		ldr	r3, .L2
  87 005c 1F4A     		ldr	r2, .L2+32
  88 005e 1A61     		str	r2, [r3, #16]
 468:src/partition_TC8234.h **** #endif
 469:src/partition_TC8234.h **** 
 470:src/partition_TC8234.h **** #if defined (SAU_INIT_REGION5) && (SAU_INIT_REGION5 == 1U)
 471:src/partition_TC8234.h ****     SAU_INIT_REGION(5);
  89              		.loc 1 471 0
  90 0060 164B     		ldr	r3, .L2
  91 0062 0522     		movs	r2, #5
  92 0064 9A60     		str	r2, [r3, #8]
  93 0066 154B     		ldr	r3, .L2
  94 0068 1D4A     		ldr	r2, .L2+36
  95 006a DA60     		str	r2, [r3, #12]
  96 006c 134B     		ldr	r3, .L2
  97 006e 1D4A     		ldr	r2, .L2+40
  98 0070 1A61     		str	r2, [r3, #16]
 472:src/partition_TC8234.h **** #endif
ARM GAS  C:\Users\CCMA\AppData\Local\Temp\ccJ9Pjse.s 			page 11


 473:src/partition_TC8234.h **** 
 474:src/partition_TC8234.h **** #if defined (SAU_INIT_REGION6) && (SAU_INIT_REGION6 == 1U)
 475:src/partition_TC8234.h ****     SAU_INIT_REGION(6);
 476:src/partition_TC8234.h **** #endif
 477:src/partition_TC8234.h **** 
 478:src/partition_TC8234.h **** #if defined (SAU_INIT_REGION7) && (SAU_INIT_REGION7 == 1U)
 479:src/partition_TC8234.h ****     SAU_INIT_REGION(7);
 480:src/partition_TC8234.h **** #endif
 481:src/partition_TC8234.h **** 
 482:src/partition_TC8234.h ****     /* repeat this for all possible SAU regions */
 483:src/partition_TC8234.h **** 
 484:src/partition_TC8234.h **** 
 485:src/partition_TC8234.h **** #if defined (SAU_INIT_CTRL) && (SAU_INIT_CTRL == 1U)
 486:src/partition_TC8234.h ****     SAU->CTRL = ((SAU_INIT_CTRL_ENABLE << SAU_CTRL_ENABLE_Pos) & SAU_CTRL_ENABLE_Msk) |
  99              		.loc 1 486 0
 100 0072 124B     		ldr	r3, .L2
 101 0074 0122     		movs	r2, #1
 102 0076 1A60     		str	r2, [r3]
 487:src/partition_TC8234.h ****                 ((SAU_INIT_CTRL_ALLNS  << SAU_CTRL_ALLNS_Pos)  & SAU_CTRL_ALLNS_Msk)   ;
 488:src/partition_TC8234.h **** #endif
 489:src/partition_TC8234.h **** 
 490:src/partition_TC8234.h **** #endif /* defined (__SAU_PRESENT) && (__SAU_PRESENT == 1U) */
 491:src/partition_TC8234.h **** 
 492:src/partition_TC8234.h **** #if defined (SCB_CSR_AIRCR_INIT) && (SCB_CSR_AIRCR_INIT == 1U)
 493:src/partition_TC8234.h ****     SCB->SCR   = (SCB->SCR   & ~(SCB_SCR_SLEEPDEEPS_Msk)) |
 103              		.loc 1 493 0
 104 0078 1B4B     		ldr	r3, .L2+44
 105 007a 1B4A     		ldr	r2, .L2+44
 106 007c 1269     		ldr	r2, [r2, #16]
 107 007e 0821     		movs	r1, #8
 108 0080 8A43     		bics	r2, r1
 109 0082 1A61     		str	r2, [r3, #16]
 494:src/partition_TC8234.h ****                  ((SCB_CSR_DEEPSLEEPS_VAL     << SCB_SCR_SLEEPDEEPS_Pos)     & SCB_SCR_SLEEPDEEPS_M
 495:src/partition_TC8234.h **** 
 496:src/partition_TC8234.h ****     SCB->AIRCR = (SCB->AIRCR & ~(SCB_AIRCR_SYSRESETREQS_Msk | SCB_AIRCR_BFHFNMINS_Pos |  SCB_AIRCR_
 110              		.loc 1 496 0
 111 0084 184B     		ldr	r3, .L2+44
 112 0086 184A     		ldr	r2, .L2+44
 113 0088 D268     		ldr	r2, [r2, #12]
 497:src/partition_TC8234.h ****                  ((SCB_AIRCR_SYSRESETREQS_VAL << SCB_AIRCR_SYSRESETREQS_Pos) & SCB_AIRCR_SYSRESETRE
 114              		.loc 1 497 0
 115 008a 1849     		ldr	r1, .L2+48
 116 008c 0A40     		ands	r2, r1
 498:src/partition_TC8234.h ****                  ((SCB_AIRCR_PRIS_VAL         << SCB_AIRCR_BFHFNMINS_Pos)    & SCB_AIRCR_BFHFNMINS_
 117              		.loc 1 498 0
 118 008e 44F20001 		movw	r1, #16384
 119 0092 0A43     		orrs	r2, r1
 496:src/partition_TC8234.h ****                  ((SCB_AIRCR_SYSRESETREQS_VAL << SCB_AIRCR_SYSRESETREQS_Pos) & SCB_AIRCR_SYSRESETRE
 120              		.loc 1 496 0
 121 0094 DA60     		str	r2, [r3, #12]
 499:src/partition_TC8234.h ****                  ((SCB_AIRCR_BFHFNMINS_VAL    << SCB_AIRCR_PRIS_Pos)         & SCB_AIRCR_PRIS_Msk);
 500:src/partition_TC8234.h **** #endif /* defined (SCB_CSR_AIRCR_INIT) && (SCB_CSR_AIRCR_INIT == 1U) */
 501:src/partition_TC8234.h **** 
 502:src/partition_TC8234.h **** #if defined (SCB_ICSR_INIT) && (SCB_ICSR_INIT == 1U)
 503:src/partition_TC8234.h ****     SCB->ICSR  = (SCB->ICSR  & ~(SCB_ICSR_STTNS_Msk)) |
 504:src/partition_TC8234.h ****                  ((SCB_ICSR_STTNS_VAL         << SCB_ICSR_STTNS_Pos)         & SCB_ICSR_STTNS_Msk);
 505:src/partition_TC8234.h **** #endif /* defined (SCB_ICSR_INIT) && (SCB_ICSR_INIT == 1U) */
ARM GAS  C:\Users\CCMA\AppData\Local\Temp\ccJ9Pjse.s 			page 12


 506:src/partition_TC8234.h **** 
 507:src/partition_TC8234.h **** #if defined (NVIC_INIT_ITNS0) && (NVIC_INIT_ITNS0 == 1U)
 508:src/partition_TC8234.h ****     NVIC->ITNS[0] = NVIC_INIT_ITNS0_VAL;
 122              		.loc 1 508 0
 123 0096 164A     		ldr	r2, .L2+52
 124 0098 40F28023 		movw	r3, #640
 125 009c 0021     		movs	r1, #0
 126 009e D150     		str	r1, [r2, r3]
 509:src/partition_TC8234.h **** #endif
 510:src/partition_TC8234.h **** 
 511:src/partition_TC8234.h **** #if defined (NVIC_INIT_ITNS1) && (NVIC_INIT_ITNS1 == 1U)
 512:src/partition_TC8234.h ****     NVIC->ITNS[1] = NVIC_INIT_ITNS1_VAL;
 127              		.loc 1 512 0
 128 00a0 134A     		ldr	r2, .L2+52
 129 00a2 40F28423 		movw	r3, #644
 130 00a6 0021     		movs	r1, #0
 131 00a8 D150     		str	r1, [r2, r3]
 513:src/partition_TC8234.h **** #endif
 514:src/partition_TC8234.h **** 
 515:src/partition_TC8234.h **** #if defined (NVIC_INIT_ITNS2) && (NVIC_INIT_ITNS2 == 1U)
 516:src/partition_TC8234.h ****     NVIC->ITNS[2] = NVIC_INIT_ITNS2_VAL;
 132              		.loc 1 516 0
 133 00aa 114A     		ldr	r2, .L2+52
 134 00ac 40F28823 		movw	r3, #648
 135 00b0 0021     		movs	r1, #0
 136 00b2 D150     		str	r1, [r2, r3]
 517:src/partition_TC8234.h **** #endif
 518:src/partition_TC8234.h **** 
 519:src/partition_TC8234.h **** 
 520:src/partition_TC8234.h ****     /* repeat this for all possible ITNS elements */
 521:src/partition_TC8234.h **** 
 522:src/partition_TC8234.h **** }
 137              		.loc 1 522 0
 138 00b4 C046     		nop
 139 00b6 BD46     		mov	sp, r7
 140              		@ sp needed
 141 00b8 80BD     		pop	{r7, pc}
 142              	.L3:
 143 00ba C046     		.align	2
 144              	.L2:
 145 00bc D0ED00E0 		.word	-536810032
 146 00c0 03000400 		.word	262147
 147 00c4 00000410 		.word	268697600
 148 00c8 E1FF0710 		.word	268959713
 149 00cc 00FC0020 		.word	536935424
 150 00d0 E3FF0020 		.word	536936419
 151 00d4 00000130 		.word	805371904
 152 00d8 E1FF0130 		.word	805437409
 153 00dc E1FFFF5F 		.word	1610612705
 154 00e0 007C8000 		.word	8420352
 155 00e4 E37F8000 		.word	8421347
 156 00e8 00ED00E0 		.word	-536810240
 157 00ec F2BFFFFF 		.word	-16398
 158 00f0 00E100E0 		.word	-536813312
 159              		.cfi_endproc
 160              	.LFE61:
 161              		.size	TZ_SAU_Setup, .-TZ_SAU_Setup
ARM GAS  C:\Users\CCMA\AppData\Local\Temp\ccJ9Pjse.s 			page 13


 162              		.align	2
 163              		.code	16
 164              		.thumb_func
 165              		.type	SCU_Setup, %function
 166              	SCU_Setup:
 167              	.LFB62:
 523:src/partition_TC8234.h **** 
 524:src/partition_TC8234.h **** 
 525:src/partition_TC8234.h **** /*
 526:src/partition_TC8234.h **** // <h> Peripheral Secure Attribution Configuration
 527:src/partition_TC8234.h **** */
 528:src/partition_TC8234.h **** 
 529:src/partition_TC8234.h **** /*
 530:src/partition_TC8234.h ****     PNSSET0
 531:src/partition_TC8234.h **** */
 532:src/partition_TC8234.h **** /*
 533:src/partition_TC8234.h **** // Module 0..31
 534:src/partition_TC8234.h **** //   <o.9>  USBH       <0=> Secure <1=> Non-Secure
 535:src/partition_TC8234.h **** //   <o.13>  SD0   <0=> Secure <1=> Non-Secure
 536:src/partition_TC8234.h **** //   <o.14>  SD1      <0=> Secure <1=> Non-Secure
 537:src/partition_TC8234.h **** //   <o.16>  EBI    <0=> Secure <1=> Non-Secure
 538:src/partition_TC8234.h **** //   <o.24>  PDMA1      <0=> Secure <1=> Non-Secure
 539:src/partition_TC8234.h **** */
 540:src/partition_TC8234.h **** #define SCU_INIT_PNSSET0_VAL      0x00000001
 541:src/partition_TC8234.h **** /*
 542:src/partition_TC8234.h ****     PNSSET1
 543:src/partition_TC8234.h **** */
 544:src/partition_TC8234.h **** /*
 545:src/partition_TC8234.h **** // Module 0..31
 546:src/partition_TC8234.h **** //   <o.17>  CRC       <0=> Secure <1=> Non-Secure
 547:src/partition_TC8234.h **** //   <o.18>  CRPT   <0=> Secure <1=> Non-Secure
 548:src/partition_TC8234.h **** */
 549:src/partition_TC8234.h **** #define SCU_INIT_PNSSET1_VAL      0x00000000
 550:src/partition_TC8234.h **** /*
 551:src/partition_TC8234.h ****     PNSSET2
 552:src/partition_TC8234.h **** */
 553:src/partition_TC8234.h **** /*
 554:src/partition_TC8234.h **** // Module 0..31
 555:src/partition_TC8234.h **** //   <o.1>  RTC       <0=> Secure <1=> Non-Secure
 556:src/partition_TC8234.h **** //   <o.3>  EADC   <0=> Secure <1=> Non-Secure
 557:src/partition_TC8234.h **** //   <o.5>  ACMP0      <0=> Secure <1=> Non-Secure
 558:src/partition_TC8234.h **** //   <o.6>  OPA    <0=> Secure <1=> Non-Secure
 559:src/partition_TC8234.h **** //   <o.7>  DAC      <0=> Secure <1=> Non-Secure
 560:src/partition_TC8234.h **** //   <o.8>  I2S0      <0=> Secure <1=> Non-Secure
 561:src/partition_TC8234.h **** //   <o.13>  OTG      <0=> Secure <1=> Non-Secure
 562:src/partition_TC8234.h **** //   <o.17>  TMR23      <0=> Secure <1=> Non-Secure
 563:src/partition_TC8234.h **** //   <o.24>  PWM0      <0=> Secure <1=> Non-Secure
 564:src/partition_TC8234.h **** //   <o.25>  PWM1      <0=> Secure <1=> Non-Secure
 565:src/partition_TC8234.h **** //   <o.26>  BPWM0      <0=> Secure <1=> Non-Secure
 566:src/partition_TC8234.h **** //   <o.27>  BPWM1      <0=> Secure <1=> Non-Secure
 567:src/partition_TC8234.h **** */
 568:src/partition_TC8234.h **** #define SCU_INIT_PNSSET2_VAL      0x00000000
 569:src/partition_TC8234.h **** /*
 570:src/partition_TC8234.h ****     PNSSET3
 571:src/partition_TC8234.h **** */
 572:src/partition_TC8234.h **** /*
 573:src/partition_TC8234.h **** // Module 0..31
ARM GAS  C:\Users\CCMA\AppData\Local\Temp\ccJ9Pjse.s 			page 14


 574:src/partition_TC8234.h **** //   <o.0>  SPI0       <0=> Secure <1=> Non-Secure
 575:src/partition_TC8234.h **** //   <o.1>  SPI1   <0=> Secure <1=> Non-Secure
 576:src/partition_TC8234.h **** //   <o.2>  SPI2      <0=> Secure <1=> Non-Secure
 577:src/partition_TC8234.h **** //   <o.3>  SPI3    <0=> Secure <1=> Non-Secure
 578:src/partition_TC8234.h **** //   <o.4>  SPI4      <0=> Secure <1=> Non-Secure
 579:src/partition_TC8234.h **** //   <o.5>  SPI5      <0=> Secure <1=> Non-Secure
 580:src/partition_TC8234.h **** //   <o.16>  UART0      <0=> Secure <1=> Non-Secure
 581:src/partition_TC8234.h **** //   <o.17>  UART1      <0=> Secure <1=> Non-Secure
 582:src/partition_TC8234.h **** //   <o.18>  UART2      <0=> Secure <1=> Non-Secure
 583:src/partition_TC8234.h **** //   <o.19>  UART3      <0=> Secure <1=> Non-Secure
 584:src/partition_TC8234.h **** //   <o.20>  UART4      <0=> Secure <1=> Non-Secure
 585:src/partition_TC8234.h **** //   <o.21>  UART5      <0=> Secure <1=> Non-Secure
 586:src/partition_TC8234.h **** */
 587:src/partition_TC8234.h **** #define SCU_INIT_PNSSET3_VAL      0x00010000
 588:src/partition_TC8234.h **** /*
 589:src/partition_TC8234.h ****     PNSSET4
 590:src/partition_TC8234.h **** */
 591:src/partition_TC8234.h **** /*
 592:src/partition_TC8234.h **** // Module 0..31
 593:src/partition_TC8234.h **** //   <o.0>  I2C0       <0=> Secure <1=> Non-Secure
 594:src/partition_TC8234.h **** //   <o.1>  I2C1   <0=> Secure <1=> Non-Secure
 595:src/partition_TC8234.h **** //   <o.2>  I2C2      <0=> Secure <1=> Non-Secure
 596:src/partition_TC8234.h **** //   <o.16>  SC0      <0=> Secure <1=> Non-Secure
 597:src/partition_TC8234.h **** //   <o.17>  SC1      <0=> Secure <1=> Non-Secure
 598:src/partition_TC8234.h **** //   <o.18>  SC2      <0=> Secure <1=> Non-Secure
 599:src/partition_TC8234.h **** */
 600:src/partition_TC8234.h **** #define SCU_INIT_PNSSET4_VAL      0x00000000
 601:src/partition_TC8234.h **** /*
 602:src/partition_TC8234.h ****     PNSSET5
 603:src/partition_TC8234.h **** */
 604:src/partition_TC8234.h **** /*
 605:src/partition_TC8234.h **** // Module 0..31
 606:src/partition_TC8234.h **** //   <o.0>  CAN0       <0=> Secure <1=> Non-Secure
 607:src/partition_TC8234.h **** //   <o.16>  QEI0   <0=> Secure <1=> Non-Secure
 608:src/partition_TC8234.h **** //   <o.17>  QEI1      <0=> Secure <1=> Non-Secure
 609:src/partition_TC8234.h **** //   <o.20>  ECAP0    <0=> Secure <1=> Non-Secure
 610:src/partition_TC8234.h **** //   <o.21>  ECAP1      <0=> Secure <1=> Non-Secure
 611:src/partition_TC8234.h **** //   <o.23>  DSRC    <0=> Secure <1=> Non-Secure
 612:src/partition_TC8234.h **** //   <o.24>  LCD      <0=> Secure <1=> Non-Secure
 613:src/partition_TC8234.h **** //   <o.25>  TRNG    <0=> Secure <1=> Non-Secure
 614:src/partition_TC8234.h **** */
 615:src/partition_TC8234.h **** #define SCU_INIT_PNSSET5_VAL      0x00000000
 616:src/partition_TC8234.h **** /*
 617:src/partition_TC8234.h ****     PNSSET6
 618:src/partition_TC8234.h **** */
 619:src/partition_TC8234.h **** /*
 620:src/partition_TC8234.h **** // Module 0..31
 621:src/partition_TC8234.h **** //   <o.0>  USBD       <0=> Secure <1=> Non-Secure
 622:src/partition_TC8234.h **** //   <o.16>  USCI0   <0=> Secure <1=> Non-Secure
 623:src/partition_TC8234.h **** //   <o.17>  USCI1      <0=> Secure <1=> Non-Secure
 624:src/partition_TC8234.h **** */
 625:src/partition_TC8234.h **** #define SCU_INIT_PNSSET6_VAL      0x00000000
 626:src/partition_TC8234.h **** /*
 627:src/partition_TC8234.h **** // </h>
 628:src/partition_TC8234.h **** */
 629:src/partition_TC8234.h **** 
 630:src/partition_TC8234.h **** 
ARM GAS  C:\Users\CCMA\AppData\Local\Temp\ccJ9Pjse.s 			page 15


 631:src/partition_TC8234.h **** 
 632:src/partition_TC8234.h **** /*
 633:src/partition_TC8234.h **** // <h> GPIO Secure Attribution Configuration
 634:src/partition_TC8234.h **** */
 635:src/partition_TC8234.h **** 
 636:src/partition_TC8234.h **** /*
 637:src/partition_TC8234.h ****     IONSSET
 638:src/partition_TC8234.h **** */
 639:src/partition_TC8234.h **** /*
 640:src/partition_TC8234.h **** // Bit 0..31
 641:src/partition_TC8234.h **** //   <o.0>  PA       <0=> Secure <1=> Non-Secure
 642:src/partition_TC8234.h **** //   <o.1>  PB   <0=> Secure <1=> Non-Secure
 643:src/partition_TC8234.h **** //   <o.2>  PC      <0=> Secure <1=> Non-Secure
 644:src/partition_TC8234.h **** //   <o.3>  PD    <0=> Secure <1=> Non-Secure
 645:src/partition_TC8234.h **** //   <o.4>  PE      <0=> Secure <1=> Non-Secure
 646:src/partition_TC8234.h **** //   <o.5>  PF      <0=> Secure <1=> Non-Secure
 647:src/partition_TC8234.h **** //   <o.6>  PG      <0=> Secure <1=> Non-Secure
 648:src/partition_TC8234.h **** */
 649:src/partition_TC8234.h **** #define SCU_INIT_IONSSET_VAL      0x00000000
 650:src/partition_TC8234.h **** /*
 651:src/partition_TC8234.h **** // </h>
 652:src/partition_TC8234.h **** */
 653:src/partition_TC8234.h **** 
 654:src/partition_TC8234.h **** 
 655:src/partition_TC8234.h **** /*
 656:src/partition_TC8234.h **** // <h> SRAM Secure Attribution Configuration
 657:src/partition_TC8234.h **** */
 658:src/partition_TC8234.h **** 
 659:src/partition_TC8234.h **** /*
 660:src/partition_TC8234.h ****     SRAMNSSET
 661:src/partition_TC8234.h **** */
 662:src/partition_TC8234.h **** /*
 663:src/partition_TC8234.h **** // Bit 0..31
 664:src/partition_TC8234.h **** //   <o.0>  0x00000000 ~ 0x00001FFF        <0=> Secure <1=> Non-Secure
 665:src/partition_TC8234.h **** //   <o.1>  0x00002000 ~ 0x00003FFF   <0=> Secure <1=> Non-Secure
 666:src/partition_TC8234.h **** //   <o.2>  0x00004000 ~ 0x00005FFF      <0=> Secure <1=> Non-Secure
 667:src/partition_TC8234.h **** //   <o.3>  0x00006000 ~ 0x00007FFF    <0=> Secure <1=> Non-Secure
 668:src/partition_TC8234.h **** //   <o.4>  0x00008000 ~ 0x00009FFF      <0=> Secure <1=> Non-Secure
 669:src/partition_TC8234.h **** //   <o.5>  0x0000A000 ~ 0x0000BFFF      <0=> Secure <1=> Non-Secure
 670:src/partition_TC8234.h **** //   <o.6>  0x0000C000 ~ 0x0000DFFF      <0=> Secure <1=> Non-Secure
 671:src/partition_TC8234.h **** //   <o.7>  0x0000E000 ~ 0x0000FFFF       <0=> Secure <1=> Non-Secure
 672:src/partition_TC8234.h **** //   <o.8>  0x00010000 ~ 0x00011FFF   <0=> Secure <1=> Non-Secure
 673:src/partition_TC8234.h **** //   <o.9>  0x00012000 ~ 0x00013FFF      <0=> Secure <1=> Non-Secure
 674:src/partition_TC8234.h **** //   <o.10> 0x00014000 ~ 0x00015FFF    <0=> Secure <1=> Non-Secure
 675:src/partition_TC8234.h **** //   <o.11> 0x00016000 ~ 0x00017FFF      <0=> Secure <1=> Non-Secure
 676:src/partition_TC8234.h **** //   <o.12> 0x00018000 ~ 0x00019FFF      <0=> Secure <1=> Non-Secure
 677:src/partition_TC8234.h **** //   <o.13> 0x0001A000 ~ 0x0001BFFF      <0=> Secure <1=> Non-Secure
 678:src/partition_TC8234.h **** //   <o.14> 0x0001C000 ~ 0x0001DFFF      <0=> Secure <1=> Non-Secure
 679:src/partition_TC8234.h **** //   <o.15> 0x0001E000 ~ 0x0001FFFF      <0=> Secure <1=> Non-Secure
 680:src/partition_TC8234.h **** */
 681:src/partition_TC8234.h **** #define SCU_INIT_SRAMNSSET_VAL      0x0000FF00
 682:src/partition_TC8234.h **** 
 683:src/partition_TC8234.h **** /*
 684:src/partition_TC8234.h **** // </h>
 685:src/partition_TC8234.h **** */
 686:src/partition_TC8234.h **** 
 687:src/partition_TC8234.h **** 
ARM GAS  C:\Users\CCMA\AppData\Local\Temp\ccJ9Pjse.s 			page 16


 688:src/partition_TC8234.h **** 
 689:src/partition_TC8234.h **** 
 690:src/partition_TC8234.h **** 
 691:src/partition_TC8234.h **** 
 692:src/partition_TC8234.h **** /**
 693:src/partition_TC8234.h ****   \brief   Setup SCU Configuration Unit
 694:src/partition_TC8234.h ****   \details
 695:src/partition_TC8234.h **** 
 696:src/partition_TC8234.h ****  */
 697:src/partition_TC8234.h **** __STATIC_INLINE void SCU_Setup(void)
 698:src/partition_TC8234.h **** {
 168              		.loc 1 698 0
 169              		.cfi_startproc
 170              		@ args = 0, pretend = 0, frame = 0
 171              		@ frame_needed = 1, uses_anonymous_args = 0
 172 00f4 80B5     		push	{r7, lr}
 173              	.LCFI2:
 174              		.cfi_def_cfa_offset 8
 175              		.cfi_offset 7, -8
 176              		.cfi_offset 14, -4
 177 00f6 00AF     		add	r7, sp, #0
 178              	.LCFI3:
 179              		.cfi_def_cfa_register 7
 699:src/partition_TC8234.h ****     SCU->PNSSET[0] = SCU_INIT_PNSSET0_VAL;
 180              		.loc 1 699 0
 181 00f8 0F4B     		ldr	r3, .L5
 182 00fa 0122     		movs	r2, #1
 183 00fc 1A60     		str	r2, [r3]
 700:src/partition_TC8234.h ****     SCU->PNSSET[1] = SCU_INIT_PNSSET1_VAL;
 184              		.loc 1 700 0
 185 00fe 0E4B     		ldr	r3, .L5
 186 0100 0022     		movs	r2, #0
 187 0102 5A60     		str	r2, [r3, #4]
 701:src/partition_TC8234.h ****     SCU->PNSSET[2] = SCU_INIT_PNSSET2_VAL;
 188              		.loc 1 701 0
 189 0104 0C4B     		ldr	r3, .L5
 190 0106 0022     		movs	r2, #0
 191 0108 9A60     		str	r2, [r3, #8]
 702:src/partition_TC8234.h ****     SCU->PNSSET[3] = SCU_INIT_PNSSET3_VAL;
 192              		.loc 1 702 0
 193 010a 0B4B     		ldr	r3, .L5
 194 010c 8022     		movs	r2, #128
 195 010e 5202     		lsls	r2, r2, #9
 196 0110 DA60     		str	r2, [r3, #12]
 703:src/partition_TC8234.h ****     SCU->PNSSET[4] = SCU_INIT_PNSSET4_VAL;
 197              		.loc 1 703 0
 198 0112 094B     		ldr	r3, .L5
 199 0114 0022     		movs	r2, #0
 200 0116 1A61     		str	r2, [r3, #16]
 704:src/partition_TC8234.h ****     SCU->PNSSET[5] = SCU_INIT_PNSSET5_VAL;
 201              		.loc 1 704 0
 202 0118 074B     		ldr	r3, .L5
 203 011a 0022     		movs	r2, #0
 204 011c 5A61     		str	r2, [r3, #20]
 705:src/partition_TC8234.h ****     SCU->PNSSET[6] = SCU_INIT_PNSSET6_VAL;
 205              		.loc 1 705 0
 206 011e 064B     		ldr	r3, .L5
ARM GAS  C:\Users\CCMA\AppData\Local\Temp\ccJ9Pjse.s 			page 17


 207 0120 0022     		movs	r2, #0
 208 0122 9A61     		str	r2, [r3, #24]
 706:src/partition_TC8234.h **** 
 707:src/partition_TC8234.h ****     SCU->IONSSET = SCU_INIT_IONSSET_VAL;
 209              		.loc 1 707 0
 210 0124 044B     		ldr	r3, .L5
 211 0126 0022     		movs	r2, #0
 212 0128 1A62     		str	r2, [r3, #32]
 708:src/partition_TC8234.h ****     SCU->SRAMNSSET = SCU_INIT_SRAMNSSET_VAL;
 213              		.loc 1 708 0
 214 012a 034B     		ldr	r3, .L5
 215 012c 4FF60072 		movw	r2, #65280
 216 0130 5A62     		str	r2, [r3, #36]
 709:src/partition_TC8234.h **** 
 710:src/partition_TC8234.h **** 
 711:src/partition_TC8234.h **** }
 217              		.loc 1 711 0
 218 0132 C046     		nop
 219 0134 BD46     		mov	sp, r7
 220              		@ sp needed
 221 0136 80BD     		pop	{r7, pc}
 222              	.L6:
 223              		.align	2
 224              	.L5:
 225 0138 00F00240 		.word	1073934336
 226              		.cfi_endproc
 227              	.LFE62:
 228              		.size	SCU_Setup, .-SCU_Setup
 229              		.global	gau32ClkSrcTbl
 230              		.section	.rodata
 231              		.align	2
 232              		.type	gau32ClkSrcTbl, %object
 233              		.size	gau32ClkSrcTbl, 32
 234              	gau32ClkSrcTbl:
 235 0000 001BB700 		.word	12000000
 236 0004 00800000 		.word	32768
 237 0008 00000000 		.word	0
 238 000c 10270000 		.word	10000
 239 0010 00000000 		.word	0
 240 0014 00000000 		.word	0
 241 0018 006CDC02 		.word	48000000
 242 001c 001BB700 		.word	12000000
 243              		.text
 244              		.align	2
 245              		.global	SystemCoreClockUpdate
 246              		.code	16
 247              		.thumb_func
 248              		.type	SystemCoreClockUpdate, %function
 249              	SystemCoreClockUpdate:
 250              	.LFB63:
 251              		.file 2 "src/system_TC8234.c"
   1:src/system_TC8234.c **** /**************************************************************************//**
   2:src/system_TC8234.c ****  * @file     system_TC8234.c
   3:src/system_TC8234.c ****  * @version  V2.00
   4:src/system_TC8234.c ****  * $Revision: 4 $
   5:src/system_TC8234.c ****  * $Date: 16/08/15 10:33a $
   6:src/system_TC8234.c ****  * @brief    System Setting Source File
ARM GAS  C:\Users\CCMA\AppData\Local\Temp\ccJ9Pjse.s 			page 18


   7:src/system_TC8234.c ****  *
   8:src/system_TC8234.c ****  * @note
   9:src/system_TC8234.c ****  * Copyright (C) 2016 Nuvoton Technology Corp. All rights reserved.
  10:src/system_TC8234.c ****  *
  11:src/system_TC8234.c ****  ******************************************************************************/
  12:src/system_TC8234.c **** #include <stdio.h>
  13:src/system_TC8234.c **** #include <stdint.h>
  14:src/system_TC8234.c **** #include "TC8234.h"
  15:src/system_TC8234.c **** 
  16:src/system_TC8234.c **** #if defined (__ARM_FEATURE_CMSE) &&  (__ARM_FEATURE_CMSE == 3U)
  17:src/system_TC8234.c ****   #include "partition_TC8234.h"
  18:src/system_TC8234.c **** #endif
  19:src/system_TC8234.c **** 
  20:src/system_TC8234.c **** 
  21:src/system_TC8234.c **** extern void *g_pfnVectors;                   /* see startup file */
  22:src/system_TC8234.c **** 
  23:src/system_TC8234.c **** /*----------------------------------------------------------------------------
  24:src/system_TC8234.c ****   Clock Variable definitions
  25:src/system_TC8234.c ****  *----------------------------------------------------------------------------*/
  26:src/system_TC8234.c **** //uint32_t SystemCoreClock  = __HSI;              /*!< System Clock Frequency (Core Clock) */
  27:src/system_TC8234.c **** //uint32_t CyclesPerUs      = (__HSI / 1000000);  /*!< Cycles per micro second             */
  28:src/system_TC8234.c **** //uint32_t PllClock         = __HSI;              /*!< PLL Output Clock Frequency          */
  29:src/system_TC8234.c **** const uint32_t gau32ClkSrcTbl[] = {__HXT, __LXT, NULL, __LIRC, NULL, NULL, __HIRC48, __HIRC};
  30:src/system_TC8234.c **** 
  31:src/system_TC8234.c **** 
  32:src/system_TC8234.c **** /**
  33:src/system_TC8234.c ****  * @brief    Update the Variable SystemCoreClock
  34:src/system_TC8234.c ****  *
  35:src/system_TC8234.c ****  * @param    None
  36:src/system_TC8234.c ****  *
  37:src/system_TC8234.c ****  * @return   None
  38:src/system_TC8234.c ****  *
  39:src/system_TC8234.c ****  * @details  This function is used to update the variable SystemCoreClock
  40:src/system_TC8234.c ****  *           and must be called whenever the core clock is changed.
  41:src/system_TC8234.c ****  */
  42:src/system_TC8234.c **** void SystemCoreClockUpdate(void)
  43:src/system_TC8234.c **** {
 252              		.loc 2 43 0
 253              		.cfi_startproc
 254              		@ args = 0, pretend = 0, frame = 0
 255              		@ frame_needed = 1, uses_anonymous_args = 0
 256 013c 80B5     		push	{r7, lr}
 257              	.LCFI4:
 258              		.cfi_def_cfa_offset 8
 259              		.cfi_offset 7, -8
 260              		.cfi_offset 14, -4
 261 013e 00AF     		add	r7, sp, #0
 262              	.LCFI5:
 263              		.cfi_def_cfa_register 7
  44:src/system_TC8234.c **** #if 0
  45:src/system_TC8234.c **** 	uint32_t u32Freq, u32ClkSrc;
  46:src/system_TC8234.c ****     uint32_t u32HclkDiv;
  47:src/system_TC8234.c **** 
  48:src/system_TC8234.c ****     u32ClkSrc = CLK->CLKSEL0 & CLK_CLKSEL0_HCLKSEL_Msk;
  49:src/system_TC8234.c **** 
  50:src/system_TC8234.c ****     /* Update PLL Clock */
  51:src/system_TC8234.c ****     PllClock = CLK_GetPLLClockFreq();
ARM GAS  C:\Users\CCMA\AppData\Local\Temp\ccJ9Pjse.s 			page 19


  52:src/system_TC8234.c **** 
  53:src/system_TC8234.c ****     if(u32ClkSrc != CLK_CLKSEL0_HCLKSEL_PLL)
  54:src/system_TC8234.c ****     {
  55:src/system_TC8234.c ****         /* Use the clock sources directly */
  56:src/system_TC8234.c ****         u32Freq = gau32ClkSrcTbl[u32ClkSrc];
  57:src/system_TC8234.c ****     }
  58:src/system_TC8234.c ****     else
  59:src/system_TC8234.c ****     {
  60:src/system_TC8234.c ****         /* Use PLL clock */
  61:src/system_TC8234.c ****         u32Freq = PllClock;
  62:src/system_TC8234.c ****     }
  63:src/system_TC8234.c **** 
  64:src/system_TC8234.c ****     u32HclkDiv = (CLK->CLKDIV0 & CLK_CLKDIV0_HCLKDIV_Msk) + 1;
  65:src/system_TC8234.c **** 
  66:src/system_TC8234.c ****     /* Update System Core Clock */
  67:src/system_TC8234.c ****     SystemCoreClock = u32Freq / u32HclkDiv;
  68:src/system_TC8234.c **** 
  69:src/system_TC8234.c ****     CyclesPerUs = (SystemCoreClock + 500000) / 1000000;
  70:src/system_TC8234.c **** #endif
  71:src/system_TC8234.c **** }
 264              		.loc 2 71 0
 265 0140 C046     		nop
 266 0142 BD46     		mov	sp, r7
 267              		@ sp needed
 268 0144 80BD     		pop	{r7, pc}
 269              		.cfi_endproc
 270              	.LFE63:
 271              		.size	SystemCoreClockUpdate, .-SystemCoreClockUpdate
 272 0146 C046     		.align	2
 273              		.global	SystemInit
 274              		.code	16
 275              		.thumb_func
 276              		.type	SystemInit, %function
 277              	SystemInit:
 278              	.LFB64:
  72:src/system_TC8234.c **** 
  73:src/system_TC8234.c **** 
  74:src/system_TC8234.c **** 
  75:src/system_TC8234.c **** /**
  76:src/system_TC8234.c ****  * @brief    System Initialization
  77:src/system_TC8234.c ****  *
  78:src/system_TC8234.c ****  * @param    None
  79:src/system_TC8234.c ****  *
  80:src/system_TC8234.c ****  * @return   None
  81:src/system_TC8234.c ****  *
  82:src/system_TC8234.c ****  * @details  The necessary initialization of system. Global variables are forbidden here.
  83:src/system_TC8234.c ****  */
  84:src/system_TC8234.c **** void SystemInit (void)
  85:src/system_TC8234.c **** {
 279              		.loc 2 85 0
 280              		.cfi_startproc
 281              		@ args = 0, pretend = 0, frame = 0
 282              		@ frame_needed = 1, uses_anonymous_args = 0
 283 0148 80B5     		push	{r7, lr}
 284              	.LCFI6:
 285              		.cfi_def_cfa_offset 8
 286              		.cfi_offset 7, -8
ARM GAS  C:\Users\CCMA\AppData\Local\Temp\ccJ9Pjse.s 			page 20


 287              		.cfi_offset 14, -4
 288 014a 00AF     		add	r7, sp, #0
 289              	.LCFI7:
 290              		.cfi_def_cfa_register 7
  86:src/system_TC8234.c **** #if defined (__VTOR_PRESENT) && (__VTOR_PRESENT == 1U)
  87:src/system_TC8234.c **** 	SCB->VTOR = (uint32_t) &g_pfnVectors;
 291              		.loc 2 87 0
 292 014c 044B     		ldr	r3, .L9
 293 014e 054A     		ldr	r2, .L9+4
 294 0150 9A60     		str	r2, [r3, #8]
  88:src/system_TC8234.c **** #endif
  89:src/system_TC8234.c **** 
  90:src/system_TC8234.c **** #if defined (__ARM_FEATURE_CMSE) && (__ARM_FEATURE_CMSE == 3U)
  91:src/system_TC8234.c ****   TZ_SAU_Setup();
 295              		.loc 2 91 0
 296 0152 FFF755FF 		bl	TZ_SAU_Setup
  92:src/system_TC8234.c ****   SCU_Setup();
 297              		.loc 2 92 0
 298 0156 FFF7CDFF 		bl	SCU_Setup
  93:src/system_TC8234.c **** #endif
  94:src/system_TC8234.c **** 
  95:src/system_TC8234.c **** #ifdef INIT_SYSCLK_AT_BOOTING
  96:src/system_TC8234.c ****     
  97:src/system_TC8234.c **** #endif
  98:src/system_TC8234.c **** 	
  99:src/system_TC8234.c **** }
 299              		.loc 2 99 0
 300 015a C046     		nop
 301 015c BD46     		mov	sp, r7
 302              		@ sp needed
 303 015e 80BD     		pop	{r7, pc}
 304              	.L10:
 305              		.align	2
 306              	.L9:
 307 0160 00ED00E0 		.word	-536810240
 308 0164 00000000 		.word	g_pfnVectors
 309              		.cfi_endproc
 310              	.LFE64:
 311              		.size	SystemInit, .-SystemInit
 312              	.Letext0:
 313              		.file 3 "c:\\program files\\gnu tools arm embedded\\5.4 2016q3\\arm-none-eabi\\include\\machine\\_
 314              		.file 4 "c:\\program files\\gnu tools arm embedded\\5.4 2016q3\\arm-none-eabi\\include\\sys\\_stdi
 315              		.file 5 "src/core_armv8mbl.h"
 316              		.file 6 "src/TC8234.h"
 317              		.file 7 "src/system_TC8234.h"