
main.o:     file format elf32-littlearm


Disassembly of section .text:

00000000 <NVIC_SetPriority>:
   0:	b5b0      	push	{r4, r5, r7, lr}
   2:	b082      	sub	sp, #8
   4:	af00      	add	r7, sp, #0
   6:	0002      	movs	r2, r0
   8:	6039      	str	r1, [r7, #0]
   a:	1dfb      	adds	r3, r7, #7
   c:	701a      	strb	r2, [r3, #0]
   e:	1dfb      	adds	r3, r7, #7
  10:	781b      	ldrb	r3, [r3, #0]
  12:	2b7f      	cmp	r3, #127	; 0x7f
  14:	d828      	bhi.n	68 <NVIC_SetPriority+0x68>
  16:	4c2f      	ldr	r4, [pc, #188]	; (d4 <NVIC_SetPriority+0xd4>)
  18:	1dfb      	adds	r3, r7, #7
  1a:	781b      	ldrb	r3, [r3, #0]
  1c:	b25b      	sxtb	r3, r3
  1e:	089b      	lsrs	r3, r3, #2
  20:	492c      	ldr	r1, [pc, #176]	; (d4 <NVIC_SetPriority+0xd4>)
  22:	1dfa      	adds	r2, r7, #7
  24:	7812      	ldrb	r2, [r2, #0]
  26:	b252      	sxtb	r2, r2
  28:	0892      	lsrs	r2, r2, #2
  2a:	32c0      	adds	r2, #192	; 0xc0
  2c:	0092      	lsls	r2, r2, #2
  2e:	5852      	ldr	r2, [r2, r1]
  30:	1df9      	adds	r1, r7, #7
  32:	7809      	ldrb	r1, [r1, #0]
  34:	0008      	movs	r0, r1
  36:	2103      	movs	r1, #3
  38:	4001      	ands	r1, r0
  3a:	00c9      	lsls	r1, r1, #3
  3c:	20ff      	movs	r0, #255	; 0xff
  3e:	4088      	lsls	r0, r1
  40:	0001      	movs	r1, r0
  42:	43c9      	mvns	r1, r1
  44:	4011      	ands	r1, r2
  46:	683a      	ldr	r2, [r7, #0]
  48:	0192      	lsls	r2, r2, #6
  4a:	20ff      	movs	r0, #255	; 0xff
  4c:	4010      	ands	r0, r2
  4e:	1dfa      	adds	r2, r7, #7
  50:	7812      	ldrb	r2, [r2, #0]
  52:	0015      	movs	r5, r2
  54:	2203      	movs	r2, #3
  56:	402a      	ands	r2, r5
  58:	00d2      	lsls	r2, r2, #3
  5a:	4090      	lsls	r0, r2
  5c:	0002      	movs	r2, r0
  5e:	430a      	orrs	r2, r1
  60:	33c0      	adds	r3, #192	; 0xc0
  62:	009b      	lsls	r3, r3, #2
  64:	511a      	str	r2, [r3, r4]
  66:	e031      	b.n	cc <NVIC_SetPriority+0xcc>
  68:	4c1b      	ldr	r4, [pc, #108]	; (d8 <NVIC_SetPriority+0xd8>)
  6a:	1dfb      	adds	r3, r7, #7
  6c:	781b      	ldrb	r3, [r3, #0]
  6e:	001a      	movs	r2, r3
  70:	230f      	movs	r3, #15
  72:	4013      	ands	r3, r2
  74:	3b08      	subs	r3, #8
  76:	0899      	lsrs	r1, r3, #2
  78:	4a17      	ldr	r2, [pc, #92]	; (d8 <NVIC_SetPriority+0xd8>)
  7a:	1dfb      	adds	r3, r7, #7
  7c:	781b      	ldrb	r3, [r3, #0]
  7e:	0018      	movs	r0, r3
  80:	230f      	movs	r3, #15
  82:	4003      	ands	r3, r0
  84:	3b08      	subs	r3, #8
  86:	089b      	lsrs	r3, r3, #2
  88:	3306      	adds	r3, #6
  8a:	009b      	lsls	r3, r3, #2
  8c:	18d3      	adds	r3, r2, r3
  8e:	3304      	adds	r3, #4
  90:	681b      	ldr	r3, [r3, #0]
  92:	1dfa      	adds	r2, r7, #7
  94:	7812      	ldrb	r2, [r2, #0]
  96:	0010      	movs	r0, r2
  98:	2203      	movs	r2, #3
  9a:	4002      	ands	r2, r0
  9c:	00d2      	lsls	r2, r2, #3
  9e:	20ff      	movs	r0, #255	; 0xff
  a0:	4090      	lsls	r0, r2
  a2:	0002      	movs	r2, r0
  a4:	43d2      	mvns	r2, r2
  a6:	401a      	ands	r2, r3
  a8:	683b      	ldr	r3, [r7, #0]
  aa:	019b      	lsls	r3, r3, #6
  ac:	20ff      	movs	r0, #255	; 0xff
  ae:	4018      	ands	r0, r3
  b0:	1dfb      	adds	r3, r7, #7
  b2:	781b      	ldrb	r3, [r3, #0]
  b4:	001d      	movs	r5, r3
  b6:	2303      	movs	r3, #3
  b8:	402b      	ands	r3, r5
  ba:	00db      	lsls	r3, r3, #3
  bc:	4098      	lsls	r0, r3
  be:	0003      	movs	r3, r0
  c0:	431a      	orrs	r2, r3
  c2:	1d8b      	adds	r3, r1, #6
  c4:	009b      	lsls	r3, r3, #2
  c6:	18e3      	adds	r3, r4, r3
  c8:	3304      	adds	r3, #4
  ca:	601a      	str	r2, [r3, #0]
  cc:	46c0      	nop			; (mov r8, r8)
  ce:	46bd      	mov	sp, r7
  d0:	b002      	add	sp, #8
  d2:	bdb0      	pop	{r4, r5, r7, pc}
  d4:	e000e100 	.word	0xe000e100
  d8:	e000ed00 	.word	0xe000ed00

000000dc <SysTick_Config>:
  dc:	b580      	push	{r7, lr}
  de:	b082      	sub	sp, #8
  e0:	af00      	add	r7, sp, #0
  e2:	6078      	str	r0, [r7, #4]
  e4:	687b      	ldr	r3, [r7, #4]
  e6:	3b01      	subs	r3, #1
  e8:	4a0c      	ldr	r2, [pc, #48]	; (11c <SysTick_Config+0x40>)
  ea:	4293      	cmp	r3, r2
  ec:	d901      	bls.n	f2 <SysTick_Config+0x16>
  ee:	2301      	movs	r3, #1
  f0:	e010      	b.n	114 <SysTick_Config+0x38>
  f2:	4b0b      	ldr	r3, [pc, #44]	; (120 <SysTick_Config+0x44>)
  f4:	687a      	ldr	r2, [r7, #4]
  f6:	3a01      	subs	r2, #1
  f8:	605a      	str	r2, [r3, #4]
  fa:	2301      	movs	r3, #1
  fc:	425b      	negs	r3, r3
  fe:	2103      	movs	r1, #3
 100:	0018      	movs	r0, r3
 102:	f7ff ff7d 	bl	0 <NVIC_SetPriority>
 106:	4b06      	ldr	r3, [pc, #24]	; (120 <SysTick_Config+0x44>)
 108:	2200      	movs	r2, #0
 10a:	609a      	str	r2, [r3, #8]
 10c:	4b04      	ldr	r3, [pc, #16]	; (120 <SysTick_Config+0x44>)
 10e:	2207      	movs	r2, #7
 110:	601a      	str	r2, [r3, #0]
 112:	2300      	movs	r3, #0
 114:	0018      	movs	r0, r3
 116:	46bd      	mov	sp, r7
 118:	b002      	add	sp, #8
 11a:	bd80      	pop	{r7, pc}
 11c:	00ffffff 	.word	0x00ffffff
 120:	e000e010 	.word	0xe000e010

00000124 <SYS_UnlockReg>:
 124:	b580      	push	{r7, lr}
 126:	af00      	add	r7, sp, #0
 128:	2380      	movs	r3, #128	; 0x80
 12a:	05db      	lsls	r3, r3, #23
 12c:	f240 1200 	movw	r2, #256	; 0x100
 130:	2159      	movs	r1, #89	; 0x59
 132:	5099      	str	r1, [r3, r2]
 134:	2380      	movs	r3, #128	; 0x80
 136:	05db      	lsls	r3, r3, #23
 138:	f240 1200 	movw	r2, #256	; 0x100
 13c:	2116      	movs	r1, #22
 13e:	5099      	str	r1, [r3, r2]
 140:	2380      	movs	r3, #128	; 0x80
 142:	05db      	lsls	r3, r3, #23
 144:	f240 1200 	movw	r2, #256	; 0x100
 148:	2188      	movs	r1, #136	; 0x88
 14a:	5099      	str	r1, [r3, r2]
 14c:	2380      	movs	r3, #128	; 0x80
 14e:	05db      	lsls	r3, r3, #23
 150:	f240 1200 	movw	r2, #256	; 0x100
 154:	589b      	ldr	r3, [r3, r2]
 156:	2b00      	cmp	r3, #0
 158:	d0e6      	beq.n	128 <SYS_UnlockReg+0x4>
 15a:	46c0      	nop			; (mov r8, r8)
 15c:	46bd      	mov	sp, r7
 15e:	bd80      	pop	{r7, pc}

00000160 <Secure_LED_On>:
 160:	b580      	push	{r7, lr}
 162:	b082      	sub	sp, #8
 164:	af00      	add	r7, sp, #0
 166:	6078      	str	r0, [r7, #4]
 168:	4b09      	ldr	r3, [pc, #36]	; (190 <Secure_LED_On+0x30>)
 16a:	0018      	movs	r0, r3
 16c:	f7ff fffe 	bl	0 <puts>
 170:	687a      	ldr	r2, [r7, #4]
 172:	0013      	movs	r3, r2
 174:	005b      	lsls	r3, r3, #1
 176:	189b      	adds	r3, r3, r2
 178:	0018      	movs	r0, r3
 17a:	46bd      	mov	sp, r7
 17c:	b002      	add	sp, #8
 17e:	4671      	mov	r1, lr
 180:	4672      	mov	r2, lr
 182:	4673      	mov	r3, lr
 184:	46f4      	mov	ip, lr
 186:	bc80      	pop	{r7}
 188:	bc02      	pop	{r1}
 18a:	f381 8800 	msr	CPSR_f, r1
 18e:	470c      	bxns	r1
 190:	00000000 	.word	0x00000000

00000194 <Secure_LED_Off>:
 194:	b580      	push	{r7, lr}
 196:	b082      	sub	sp, #8
 198:	af00      	add	r7, sp, #0
 19a:	6078      	str	r0, [r7, #4]
 19c:	4b09      	ldr	r3, [pc, #36]	; (1c4 <Secure_LED_Off+0x30>)
 19e:	0018      	movs	r0, r3
 1a0:	f7ff fffe 	bl	0 <puts>
 1a4:	687a      	ldr	r2, [r7, #4]
 1a6:	0013      	movs	r3, r2
 1a8:	00db      	lsls	r3, r3, #3
 1aa:	1a9b      	subs	r3, r3, r2
 1ac:	0018      	movs	r0, r3
 1ae:	46bd      	mov	sp, r7
 1b0:	b002      	add	sp, #8
 1b2:	4671      	mov	r1, lr
 1b4:	4672      	mov	r2, lr
 1b6:	4673      	mov	r3, lr
 1b8:	46f4      	mov	ip, lr
 1ba:	bc80      	pop	{r7}
 1bc:	bc02      	pop	{r1}
 1be:	f381 8800 	msr	CPSR_f, r1
 1c2:	470c      	bxns	r1
 1c4:	00000020 	.word	0x00000020

000001c8 <Secure_LED_On_callback>:
 1c8:	b580      	push	{r7, lr}
 1ca:	b082      	sub	sp, #8
 1cc:	af00      	add	r7, sp, #0
 1ce:	6078      	str	r0, [r7, #4]
 1d0:	687b      	ldr	r3, [r7, #4]
 1d2:	2201      	movs	r2, #1
 1d4:	4393      	bics	r3, r2
 1d6:	001a      	movs	r2, r3
 1d8:	4b07      	ldr	r3, [pc, #28]	; (1f8 <Secure_LED_On_callback+0x30>)
 1da:	601a      	str	r2, [r3, #0]
 1dc:	2300      	movs	r3, #0
 1de:	0018      	movs	r0, r3
 1e0:	46bd      	mov	sp, r7
 1e2:	b002      	add	sp, #8
 1e4:	4671      	mov	r1, lr
 1e6:	4672      	mov	r2, lr
 1e8:	4673      	mov	r3, lr
 1ea:	46f4      	mov	ip, lr
 1ec:	bc80      	pop	{r7}
 1ee:	bc02      	pop	{r1}
 1f0:	f381 8800 	msr	CPSR_f, r1
 1f4:	470c      	bxns	r1
 1f6:	46c0      	nop			; (mov r8, r8)
 1f8:	00000000 	.word	0x00000000

000001fc <Secure_LED_Off_callback>:
 1fc:	b580      	push	{r7, lr}
 1fe:	b082      	sub	sp, #8
 200:	af00      	add	r7, sp, #0
 202:	6078      	str	r0, [r7, #4]
 204:	687b      	ldr	r3, [r7, #4]
 206:	2201      	movs	r2, #1
 208:	4393      	bics	r3, r2
 20a:	001a      	movs	r2, r3
 20c:	4b07      	ldr	r3, [pc, #28]	; (22c <Secure_LED_Off_callback+0x30>)
 20e:	601a      	str	r2, [r3, #0]
 210:	2300      	movs	r3, #0
 212:	0018      	movs	r0, r3
 214:	46bd      	mov	sp, r7
 216:	b002      	add	sp, #8
 218:	4671      	mov	r1, lr
 21a:	4672      	mov	r2, lr
 21c:	4673      	mov	r3, lr
 21e:	46f4      	mov	ip, lr
 220:	bc80      	pop	{r7}
 222:	bc02      	pop	{r1}
 224:	f381 8800 	msr	CPSR_f, r1
 228:	470c      	bxns	r1
 22a:	46c0      	nop			; (mov r8, r8)
 22c:	00000000 	.word	0x00000000

00000230 <GetSystemCoreClock>:
 230:	b580      	push	{r7, lr}
 232:	af00      	add	r7, sp, #0
 234:	f241 53be 	movw	r3, #5566	; 0x15be
 238:	0018      	movs	r0, r3
 23a:	46bd      	mov	sp, r7
 23c:	4671      	mov	r1, lr
 23e:	4672      	mov	r2, lr
 240:	4673      	mov	r3, lr
 242:	46f4      	mov	ip, lr
 244:	bc80      	pop	{r7}
 246:	bc02      	pop	{r1}
 248:	f381 8800 	msr	CPSR_f, r1
 24c:	470c      	bxns	r1
 24e:	46c0      	nop			; (mov r8, r8)

00000250 <SysTick_Handler>:
 250:	b5b0      	push	{r4, r5, r7, lr}
 252:	af00      	add	r7, sp, #0
 254:	4b28      	ldr	r3, [pc, #160]	; (2f8 <SysTick_Handler+0xa8>)
 256:	681b      	ldr	r3, [r3, #0]
 258:	1c59      	adds	r1, r3, #1
 25a:	4a27      	ldr	r2, [pc, #156]	; (2f8 <SysTick_Handler+0xa8>)
 25c:	6011      	str	r1, [r2, #0]
 25e:	f240 122c 	movw	r2, #300	; 0x12c
 262:	4293      	cmp	r3, r2
 264:	d011      	beq.n	28a <SysTick_Handler+0x3a>
 266:	f240 122c 	movw	r2, #300	; 0x12c
 26a:	4293      	cmp	r3, r2
 26c:	d804      	bhi.n	278 <SysTick_Handler+0x28>
 26e:	2b00      	cmp	r3, #0
 270:	d037      	beq.n	2e2 <SysTick_Handler+0x92>
 272:	2bc8      	cmp	r3, #200	; 0xc8
 274:	d037      	beq.n	2e6 <SysTick_Handler+0x96>
 276:	e02a      	b.n	2ce <SysTick_Handler+0x7e>
 278:	f240 12f4 	movw	r2, #500	; 0x1f4
 27c:	4293      	cmp	r3, r2
 27e:	d013      	beq.n	2a8 <SysTick_Handler+0x58>
 280:	f240 2258 	movw	r2, #600	; 0x258
 284:	4293      	cmp	r3, r2
 286:	d01e      	beq.n	2c6 <SysTick_Handler+0x76>
 288:	e021      	b.n	2ce <SysTick_Handler+0x7e>
 28a:	4b1c      	ldr	r3, [pc, #112]	; (2fc <SysTick_Handler+0xac>)
 28c:	681b      	ldr	r3, [r3, #0]
 28e:	b363      	cbz	r3, 2ea <SysTick_Handler+0x9a>
 290:	4b1a      	ldr	r3, [pc, #104]	; (2fc <SysTick_Handler+0xac>)
 292:	681b      	ldr	r3, [r3, #0]
 294:	2001      	movs	r0, #1
 296:	001c      	movs	r4, r3
 298:	0864      	lsrs	r4, r4, #1
 29a:	0064      	lsls	r4, r4, #1
 29c:	0021      	movs	r1, r4
 29e:	0022      	movs	r2, r4
 2a0:	0023      	movs	r3, r4
 2a2:	f7ff fffe 	bl	0 <__gnu_cmse_nonsecure_call>
 2a6:	e020      	b.n	2ea <SysTick_Handler+0x9a>
 2a8:	4b15      	ldr	r3, [pc, #84]	; (300 <SysTick_Handler+0xb0>)
 2aa:	681b      	ldr	r3, [r3, #0]
 2ac:	b1fb      	cbz	r3, 2ee <SysTick_Handler+0x9e>
 2ae:	4b14      	ldr	r3, [pc, #80]	; (300 <SysTick_Handler+0xb0>)
 2b0:	681b      	ldr	r3, [r3, #0]
 2b2:	2001      	movs	r0, #1
 2b4:	001c      	movs	r4, r3
 2b6:	0864      	lsrs	r4, r4, #1
 2b8:	0064      	lsls	r4, r4, #1
 2ba:	0021      	movs	r1, r4
 2bc:	0022      	movs	r2, r4
 2be:	0023      	movs	r3, r4
 2c0:	f7ff fffe 	bl	0 <__gnu_cmse_nonsecure_call>
 2c4:	e013      	b.n	2ee <SysTick_Handler+0x9e>
 2c6:	4b0c      	ldr	r3, [pc, #48]	; (2f8 <SysTick_Handler+0xa8>)
 2c8:	2200      	movs	r2, #0
 2ca:	601a      	str	r2, [r3, #0]
 2cc:	e010      	b.n	2f0 <SysTick_Handler+0xa0>
 2ce:	4b0a      	ldr	r3, [pc, #40]	; (2f8 <SysTick_Handler+0xa8>)
 2d0:	681b      	ldr	r3, [r3, #0]
 2d2:	f240 2258 	movw	r2, #600	; 0x258
 2d6:	4293      	cmp	r3, r2
 2d8:	d90a      	bls.n	2f0 <SysTick_Handler+0xa0>
 2da:	4b07      	ldr	r3, [pc, #28]	; (2f8 <SysTick_Handler+0xa8>)
 2dc:	2200      	movs	r2, #0
 2de:	601a      	str	r2, [r3, #0]
 2e0:	e006      	b.n	2f0 <SysTick_Handler+0xa0>
 2e2:	46c0      	nop			; (mov r8, r8)
 2e4:	e004      	b.n	2f0 <SysTick_Handler+0xa0>
 2e6:	46c0      	nop			; (mov r8, r8)
 2e8:	e002      	b.n	2f0 <SysTick_Handler+0xa0>
 2ea:	46c0      	nop			; (mov r8, r8)
 2ec:	e000      	b.n	2f0 <SysTick_Handler+0xa0>
 2ee:	46c0      	nop			; (mov r8, r8)
 2f0:	46c0      	nop			; (mov r8, r8)
 2f2:	46bd      	mov	sp, r7
 2f4:	bdb0      	pop	{r4, r5, r7, pc}
 2f6:	46c0      	nop			; (mov r8, r8)
 2f8:	00000008 	.word	0x00000008
	...

00000304 <main>:
 304:	b590      	push	{r4, r7, lr}
 306:	b08b      	sub	sp, #44	; 0x2c
 308:	af00      	add	r7, sp, #0
 30a:	f7ff ff0b 	bl	124 <SYS_UnlockReg>
 30e:	f7ff fffe 	bl	440 <SYS_Init>
 312:	f7ff fffe 	bl	498 <UART0_Init>
 316:	f640 7295 	movw	r2, #3989	; 0xf95
 31a:	4b29      	ldr	r3, [pc, #164]	; (3c0 <main+0xbc>)
 31c:	0011      	movs	r1, r2
 31e:	0018      	movs	r0, r3
 320:	f7ff fffe 	bl	0 <printf>
 324:	4a27      	ldr	r2, [pc, #156]	; (3c4 <main+0xc0>)
 326:	4b28      	ldr	r3, [pc, #160]	; (3c8 <main+0xc4>)
 328:	0011      	movs	r1, r2
 32a:	0018      	movs	r0, r3
 32c:	f7ff fffe 	bl	0 <printf>
 330:	4b26      	ldr	r3, [pc, #152]	; (3cc <main+0xc8>)
 332:	6a9a      	ldr	r2, [r3, #40]	; 0x28
 334:	4b26      	ldr	r3, [pc, #152]	; (3d0 <main+0xcc>)
 336:	0011      	movs	r1, r2
 338:	0018      	movs	r0, r3
 33a:	f7ff fffe 	bl	0 <printf>
 33e:	f3ef 8308 	mrs	r3, MSP
 342:	001c      	movs	r4, r3
 344:	0023      	movs	r3, r4
 346:	627b      	str	r3, [r7, #36]	; 0x24
 348:	f3ef 8309 	mrs	r3, PSP
 34c:	001c      	movs	r4, r3
 34e:	0023      	movs	r3, r4
 350:	623b      	str	r3, [r7, #32]
 352:	6a3a      	ldr	r2, [r7, #32]
 354:	6a79      	ldr	r1, [r7, #36]	; 0x24
 356:	4b1f      	ldr	r3, [pc, #124]	; (3d4 <main+0xd0>)
 358:	0018      	movs	r0, r3
 35a:	f7ff fffe 	bl	0 <printf>
 35e:	4b1e      	ldr	r3, [pc, #120]	; (3d8 <main+0xd4>)
 360:	681b      	ldr	r3, [r3, #0]
 362:	61fb      	str	r3, [r7, #28]
 364:	69fb      	ldr	r3, [r7, #28]
 366:	f383 8888 	msr	MSP_NS, r3
 36a:	f3ef 8388 	mrs	r3, MSP_NS
 36e:	617b      	str	r3, [r7, #20]
 370:	697b      	ldr	r3, [r7, #20]
 372:	61bb      	str	r3, [r7, #24]
 374:	4b18      	ldr	r3, [pc, #96]	; (3d8 <main+0xd4>)
 376:	681b      	ldr	r3, [r3, #0]
 378:	613b      	str	r3, [r7, #16]
 37a:	693b      	ldr	r3, [r7, #16]
 37c:	f383 8889 	msr	PSP_NS, r3
 380:	f3ef 8389 	mrs	r3, PSP_NS
 384:	60bb      	str	r3, [r7, #8]
 386:	68bb      	ldr	r3, [r7, #8]
 388:	60fb      	str	r3, [r7, #12]
 38a:	68fa      	ldr	r2, [r7, #12]
 38c:	69b9      	ldr	r1, [r7, #24]
 38e:	4b13      	ldr	r3, [pc, #76]	; (3dc <main+0xd8>)
 390:	0018      	movs	r0, r3
 392:	f7ff fffe 	bl	0 <printf>
 396:	f7ff fffe 	bl	0 <SystemCoreClockUpdate>
 39a:	4b11      	ldr	r3, [pc, #68]	; (3e0 <main+0xdc>)
 39c:	0018      	movs	r0, r3
 39e:	f7ff fe9d 	bl	dc <SysTick_Config>
 3a2:	f7ff fffe 	bl	3e4 <Nonsecure_Init>
 3a6:	e000      	b.n	3aa <main+0xa6>
 3a8:	bf30      	wfi
 3aa:	2380      	movs	r3, #128	; 0x80
 3ac:	05db      	lsls	r3, r3, #23
 3ae:	681b      	ldr	r3, [r3, #0]
 3b0:	2b00      	cmp	r3, #0
 3b2:	d1f9      	bne.n	3a8 <main+0xa4>
 3b4:	2300      	movs	r3, #0
 3b6:	0018      	movs	r0, r3
 3b8:	46bd      	mov	sp, r7
 3ba:	b00b      	add	sp, #44	; 0x2c
 3bc:	bd90      	pop	{r4, r7, pc}
 3be:	46c0      	nop			; (mov r8, r8)
 3c0:	00000044 	.word	0x00000044
 3c4:	00000000 	.word	0x00000000
 3c8:	0000004c 	.word	0x0000004c
 3cc:	4002f000 	.word	0x4002f000
 3d0:	00000054 	.word	0x00000054
 3d4:	00000068 	.word	0x00000068
 3d8:	30010000 	.word	0x30010000
 3dc:	0000009c 	.word	0x0000009c
 3e0:	0001d4c0 	.word	0x0001d4c0

000003e4 <Nonsecure_Init>:
 3e4:	b590      	push	{r4, r7, lr}
 3e6:	b083      	sub	sp, #12
 3e8:	af00      	add	r7, sp, #0
 3ea:	4b13      	ldr	r3, [pc, #76]	; (438 <Nonsecure_Init+0x54>)
 3ec:	4a13      	ldr	r2, [pc, #76]	; (43c <Nonsecure_Init+0x58>)
 3ee:	609a      	str	r2, [r3, #8]
 3f0:	4b11      	ldr	r3, [pc, #68]	; (438 <Nonsecure_Init+0x54>)
 3f2:	689b      	ldr	r3, [r3, #8]
 3f4:	681b      	ldr	r3, [r3, #0]
 3f6:	603b      	str	r3, [r7, #0]
 3f8:	683b      	ldr	r3, [r7, #0]
 3fa:	f383 8888 	msr	MSP_NS, r3
 3fe:	4b0e      	ldr	r3, [pc, #56]	; (438 <Nonsecure_Init+0x54>)
 400:	689b      	ldr	r3, [r3, #8]
 402:	3304      	adds	r3, #4
 404:	681b      	ldr	r3, [r3, #0]
 406:	607b      	str	r3, [r7, #4]
 408:	687b      	ldr	r3, [r7, #4]
 40a:	2201      	movs	r2, #1
 40c:	4393      	bics	r3, r2
 40e:	607b      	str	r3, [r7, #4]
 410:	687b      	ldr	r3, [r7, #4]
 412:	2201      	movs	r2, #1
 414:	4013      	ands	r3, r2
 416:	b953      	cbnz	r3, 42e <Nonsecure_Init+0x4a>
 418:	687b      	ldr	r3, [r7, #4]
 41a:	2000      	movs	r0, #0
 41c:	001c      	movs	r4, r3
 41e:	0864      	lsrs	r4, r4, #1
 420:	0064      	lsls	r4, r4, #1
 422:	0021      	movs	r1, r4
 424:	0022      	movs	r2, r4
 426:	0023      	movs	r3, r4
 428:	f7ff fffe 	bl	0 <__gnu_cmse_nonsecure_call>
 42c:	e000      	b.n	430 <Nonsecure_Init+0x4c>
 42e:	e7fe      	b.n	42e <Nonsecure_Init+0x4a>
 430:	46bd      	mov	sp, r7
 432:	b003      	add	sp, #12
 434:	bd90      	pop	{r4, r7, pc}
 436:	46c0      	nop			; (mov r8, r8)
 438:	e002ed00 	.word	0xe002ed00
 43c:	10040000 	.word	0x10040000

00000440 <SYS_Init>:
 440:	b580      	push	{r7, lr}
 442:	af00      	add	r7, sp, #0
 444:	4b13      	ldr	r3, [pc, #76]	; (494 <SYS_Init+0x54>)
 446:	4a13      	ldr	r2, [pc, #76]	; (494 <SYS_Init+0x54>)
 448:	6812      	ldr	r2, [r2, #0]
 44a:	2101      	movs	r1, #1
 44c:	430a      	orrs	r2, r1
 44e:	601a      	str	r2, [r3, #0]
 450:	4b10      	ldr	r3, [pc, #64]	; (494 <SYS_Init+0x54>)
 452:	2200      	movs	r2, #0
 454:	611a      	str	r2, [r3, #16]
 456:	4b0f      	ldr	r3, [pc, #60]	; (494 <SYS_Init+0x54>)
 458:	4a0e      	ldr	r2, [pc, #56]	; (494 <SYS_Init+0x54>)
 45a:	6892      	ldr	r2, [r2, #8]
 45c:	21e0      	movs	r1, #224	; 0xe0
 45e:	02c9      	lsls	r1, r1, #11
 460:	430a      	orrs	r2, r1
 462:	609a      	str	r2, [r3, #8]
 464:	4b0b      	ldr	r3, [pc, #44]	; (494 <SYS_Init+0x54>)
 466:	4a0b      	ldr	r2, [pc, #44]	; (494 <SYS_Init+0x54>)
 468:	68d2      	ldr	r2, [r2, #12]
 46a:	2180      	movs	r1, #128	; 0x80
 46c:	05c9      	lsls	r1, r1, #23
 46e:	430a      	orrs	r2, r1
 470:	60da      	str	r2, [r3, #12]
 472:	4b08      	ldr	r3, [pc, #32]	; (494 <SYS_Init+0x54>)
 474:	22c0      	movs	r2, #192	; 0xc0
 476:	0492      	lsls	r2, r2, #18
 478:	615a      	str	r2, [r3, #20]
 47a:	2380      	movs	r3, #128	; 0x80
 47c:	05db      	lsls	r3, r3, #23
 47e:	22c0      	movs	r2, #192	; 0xc0
 480:	0592      	lsls	r2, r2, #22
 482:	661a      	str	r2, [r3, #96]	; 0x60
 484:	2380      	movs	r3, #128	; 0x80
 486:	05db      	lsls	r3, r3, #23
 488:	2203      	movs	r2, #3
 48a:	665a      	str	r2, [r3, #100]	; 0x64
 48c:	46c0      	nop			; (mov r8, r8)
 48e:	46bd      	mov	sp, r7
 490:	bd80      	pop	{r7, pc}
 492:	46c0      	nop			; (mov r8, r8)
 494:	40000200 	.word	0x40000200

00000498 <UART0_Init>:
 498:	b580      	push	{r7, lr}
 49a:	af00      	add	r7, sp, #0
 49c:	4b04      	ldr	r3, [pc, #16]	; (4b0 <UART0_Init+0x18>)
 49e:	4a05      	ldr	r2, [pc, #20]	; (4b4 <UART0_Init+0x1c>)
 4a0:	625a      	str	r2, [r3, #36]	; 0x24
 4a2:	4b03      	ldr	r3, [pc, #12]	; (4b0 <UART0_Init+0x18>)
 4a4:	2203      	movs	r2, #3
 4a6:	60da      	str	r2, [r3, #12]
 4a8:	46c0      	nop			; (mov r8, r8)
 4aa:	46bd      	mov	sp, r7
 4ac:	bd80      	pop	{r7, pc}
 4ae:	46c0      	nop			; (mov r8, r8)
 4b0:	50070000 	.word	0x50070000
 4b4:	30000066 	.word	0x30000066
