ARM GAS  C:\Users\CCMA\AppData\Local\Temp\ccBCHRX5.s 			page 1


   1              		.syntax unified
   2              		.arch armv8-m.base
   3              		.fpu softvfp
   4              		.eabi_attribute 20, 1
   5              		.eabi_attribute 21, 1
   6              		.eabi_attribute 23, 3
   7              		.eabi_attribute 24, 1
   8              		.eabi_attribute 25, 1
   9              		.eabi_attribute 26, 1
  10              		.eabi_attribute 30, 1
  11              		.eabi_attribute 34, 0
  12              		.eabi_attribute 18, 4
  13              		.thumb
  14              		.syntax unified
  15              		.file	"main.c"
  16              		.text
  17              	.Ltext0:
  18              		.cfi_sections	.debug_frame
  19              		.align	2
  20              		.global	Secure_LED_On
  21              		.global	__acle_se_Secure_LED_On
  22              		.code	16
  23              		.thumb_func
  24              		.type	__acle_se_Secure_LED_On, %function
  25              		.code	16
  26              		.thumb_func
  27              		.type	Secure_LED_On, %function
  28              	Secure_LED_On:
  29              	__acle_se_Secure_LED_On:
  30              	.LFB72:
  31              		.file 1 "src/main.c"
   1:src/main.c    **** /*----------------------------------------------------------------------------
   2:src/main.c    ****  * Name:    main_s.c
   3:src/main.c    ****  * Purpose: Main function secure mode
   4:src/main.c    ****  *----------------------------------------------------------------------------*/
   5:src/main.c    **** 
   6:src/main.c    **** #include <arm_cmse.h>
   7:src/main.c    **** #include <stdio.h>
   8:src/main.c    **** #include <stdlib.h>
   9:src/main.c    **** #include <string.h>
  10:src/main.c    **** #include "TC8234.h"                      /* Device header */
  11:src/main.c    **** #include "partition_TC8234.h"
  12:src/main.c    **** 
  13:src/main.c    **** /* typedef for NonSecure callback functions */
  14:src/main.c    **** typedef __attribute__((cmse_nonsecure_call)) int32_t (*NonSecure_funcptr)(uint32_t);
  15:src/main.c    **** 
  16:src/main.c    **** #define FMC_SECURE_BOUNDARY     0x40000UL
  17:src/main.c    **** #define NON_SECURE_BASE         (0x10000000ul+FMC_SECURE_BOUNDARY) /* Base Address of Non-secure Im
  18:src/main.c    **** #define SRAM_SECURE_BOUNDARY    0x10000UL
  19:src/main.c    **** #define NON_SECURE_SRAM_BASE    (0x30000000UL+SRAM_SECURE_BOUNDARY)/* Base Address of Non-secure SR
  20:src/main.c    **** 
  21:src/main.c    ****  
  22:src/main.c    **** /*----------------------------------------------------------------------------
  23:src/main.c    ****   NonSecure callback functions
  24:src/main.c    ****  *----------------------------------------------------------------------------*/
  25:src/main.c    **** extern NonSecure_funcptr pfNonSecure_LED_On;
  26:src/main.c    **** NonSecure_funcptr pfNonSecure_LED_On  = (NonSecure_funcptr)NULL;
ARM GAS  C:\Users\CCMA\AppData\Local\Temp\ccBCHRX5.s 			page 2


  27:src/main.c    **** extern NonSecure_funcptr pfNonSecure_LED_Off;
  28:src/main.c    **** NonSecure_funcptr pfNonSecure_LED_Off = (NonSecure_funcptr)NULL;
  29:src/main.c    **** 
  30:src/main.c    **** /*----------------------------------------------------------------------------
  31:src/main.c    ****   Secure functions exported to NonSecure application
  32:src/main.c    ****   Must place in Non-secure Callable
  33:src/main.c    ****  *----------------------------------------------------------------------------*/
  34:src/main.c    **** __attribute__((cmse_nonsecure_entry))
  35:src/main.c    **** int32_t Secure_LED_On(uint32_t num)
  36:src/main.c    **** {
  32              		.loc 1 36 0
  33              		.cfi_startproc
  34              		@ Non-secure entry function: called from non-secure code.
  35              		@ args = 0, pretend = 0, frame = 0
  36              		@ frame_needed = 0, uses_anonymous_args = 0
  37              	.LVL0:
  38 ???? 10B5     		push	{r4, lr}
  39              	.LCFI0:
  40              		.cfi_def_cfa_offset 8
  41              		.cfi_offset 4, -8
  42              		.cfi_offset 14, -4
  43 ???? 0400     		movs	r4, r0
  37:src/main.c    ****     printf("Secure LED ON call by secure\n");
  44              		.loc 1 37 0
  45 ???? 0648     		ldr	r0, .L2
  46              	.LVL1:
  47 ???? FFF7FEFF 		bl	puts
  48              	.LVL2:
  38:src/main.c    **** 
  39:src/main.c    ****     return num * 3;
  49              		.loc 1 39 0
  50 ???? 6000     		lsls	r0, r4, #1
  51 ???? 0019     		adds	r0, r0, r4
  40:src/main.c    **** }
  52              		.loc 1 40 0
  53              		@ sp needed
  54              	.LVL3:
  55 ???? 7146     		mov	r1, lr
  56 ???? 7246     		mov	r2, lr
  57 ???? 7346     		mov	r3, lr
  58 ???? F446     		mov	ip, lr
  59 ???? 10BC     		pop	{r4}
  60 ???? 02BC     		pop	{r1}
  61 ???? 81F30088 		msr	APSR_nzcvq, r1
  62 ???? 0C47     		bxns	r1
  63              	.L3:
  64              		.align	2
  65              	.L2:
  66 ???? 00000000 		.word	.LC0
  67              		.cfi_endproc
  68              	.LFE72:
  69              		.size	Secure_LED_On, .-Secure_LED_On
  70              		.align	2
  71              		.global	Secure_LED_Off
  72              		.global	__acle_se_Secure_LED_Off
  73              		.code	16
  74              		.thumb_func
ARM GAS  C:\Users\CCMA\AppData\Local\Temp\ccBCHRX5.s 			page 3


  75              		.type	__acle_se_Secure_LED_Off, %function
  76              		.code	16
  77              		.thumb_func
  78              		.type	Secure_LED_Off, %function
  79              	Secure_LED_Off:
  80              	__acle_se_Secure_LED_Off:
  81              	.LFB73:
  41:src/main.c    **** 
  42:src/main.c    **** __attribute__((cmse_nonsecure_entry))
  43:src/main.c    **** int32_t Secure_LED_Off(uint32_t num)
  44:src/main.c    **** {
  82              		.loc 1 44 0
  83              		.cfi_startproc
  84              		@ Non-secure entry function: called from non-secure code.
  85              		@ args = 0, pretend = 0, frame = 0
  86              		@ frame_needed = 0, uses_anonymous_args = 0
  87              	.LVL4:
  88 ???? 10B5     		push	{r4, lr}
  89              	.LCFI1:
  90              		.cfi_def_cfa_offset 8
  91              		.cfi_offset 4, -8
  92              		.cfi_offset 14, -4
  93 ???? 0400     		movs	r4, r0
  45:src/main.c    ****     printf("Secure LED OFF call by secure\n");
  94              		.loc 1 45 0
  95 ???? 0648     		ldr	r0, .L5
  96              	.LVL5:
  97 ???? FFF7FEFF 		bl	puts
  98              	.LVL6:
  46:src/main.c    ****     return num * 7;
  99              		.loc 1 46 0
 100 ???? E000     		lsls	r0, r4, #3
 101 ???? 001B     		subs	r0, r0, r4
  47:src/main.c    **** }
 102              		.loc 1 47 0
 103              		@ sp needed
 104              	.LVL7:
 105 ???? 7146     		mov	r1, lr
 106 ???? 7246     		mov	r2, lr
 107 ???? 7346     		mov	r3, lr
 108 ???? F446     		mov	ip, lr
 109 ???? 10BC     		pop	{r4}
 110 ???? 02BC     		pop	{r1}
 111 ???? 81F30088 		msr	APSR_nzcvq, r1
 112 ???? 0C47     		bxns	r1
 113              	.L6:
 114              		.align	2
 115              	.L5:
 116 ???? 20000000 		.word	.LC2
 117              		.cfi_endproc
 118              	.LFE73:
 119              		.size	Secure_LED_Off, .-Secure_LED_Off
 120              		.align	2
 121              		.global	Secure_LED_On_callback
 122              		.global	__acle_se_Secure_LED_On_callback
 123              		.code	16
 124              		.thumb_func
ARM GAS  C:\Users\CCMA\AppData\Local\Temp\ccBCHRX5.s 			page 4


 125              		.type	__acle_se_Secure_LED_On_callback, %function
 126              		.code	16
 127              		.thumb_func
 128              		.type	Secure_LED_On_callback, %function
 129              	Secure_LED_On_callback:
 130              	__acle_se_Secure_LED_On_callback:
 131              	.LFB74:
  48:src/main.c    **** 
  49:src/main.c    **** 
  50:src/main.c    **** /*----------------------------------------------------------------------------
  51:src/main.c    ****   Secure function for NonSecure callbacks exported to NonSecure application
  52:src/main.c    ****   Must place in Non-secure Callable
  53:src/main.c    ****  *----------------------------------------------------------------------------*/
  54:src/main.c    **** __attribute__((cmse_nonsecure_entry))
  55:src/main.c    **** int32_t Secure_LED_On_callback(NonSecure_funcptr *callback)
  56:src/main.c    **** {
 132              		.loc 1 56 0
 133              		.cfi_startproc
 134              		@ Non-secure entry function: called from non-secure code.
 135              		@ args = 0, pretend = 0, frame = 0
 136              		@ frame_needed = 0, uses_anonymous_args = 0
 137              		@ link register save eliminated.
 138              	.LVL8:
  57:src/main.c    ****     pfNonSecure_LED_On = (NonSecure_funcptr)cmse_nsfptr_create(callback);
 139              		.loc 1 57 0
 140 ???? 0123     		movs	r3, #1
 141 ???? 9843     		bics	r0, r3
 142              	.LVL9:
 143 ???? 044B     		ldr	r3, .L8
 144 ???? 1860     		str	r0, [r3]
  58:src/main.c    ****     return 0;
  59:src/main.c    **** }
 145              		.loc 1 59 0
 146 ???? 0020     		movs	r0, #0
 147              		@ sp needed
 148 ???? 7146     		mov	r1, lr
 149 ???? 7246     		mov	r2, lr
 150 ???? 7346     		mov	r3, lr
 151 ???? F446     		mov	ip, lr
 152 ???? 8EF30088 		msr	APSR_nzcvq, lr
 153 ???? 7447     		bxns	lr
 154              	.L9:
 155              		.align	2
 156              	.L8:
 157 ???? 00000000 		.word	.LANCHOR0
 158              		.cfi_endproc
 159              	.LFE74:
 160              		.size	Secure_LED_On_callback, .-Secure_LED_On_callback
 161              		.align	2
 162              		.global	Secure_LED_Off_callback
 163              		.global	__acle_se_Secure_LED_Off_callback
 164              		.code	16
 165              		.thumb_func
 166              		.type	__acle_se_Secure_LED_Off_callback, %function
 167              		.code	16
 168              		.thumb_func
 169              		.type	Secure_LED_Off_callback, %function
ARM GAS  C:\Users\CCMA\AppData\Local\Temp\ccBCHRX5.s 			page 5


 170              	Secure_LED_Off_callback:
 171              	__acle_se_Secure_LED_Off_callback:
 172              	.LFB75:
  60:src/main.c    **** 
  61:src/main.c    **** __attribute__((cmse_nonsecure_entry))
  62:src/main.c    **** int32_t Secure_LED_Off_callback(NonSecure_funcptr *callback)
  63:src/main.c    **** {
 173              		.loc 1 63 0
 174              		.cfi_startproc
 175              		@ Non-secure entry function: called from non-secure code.
 176              		@ args = 0, pretend = 0, frame = 0
 177              		@ frame_needed = 0, uses_anonymous_args = 0
 178              		@ link register save eliminated.
 179              	.LVL10:
  64:src/main.c    ****     pfNonSecure_LED_Off = (NonSecure_funcptr)cmse_nsfptr_create(callback);
 180              		.loc 1 64 0
 181 ???? 0123     		movs	r3, #1
 182 ???? 9843     		bics	r0, r3
 183              	.LVL11:
 184 ???? 044B     		ldr	r3, .L11
 185 ???? 5860     		str	r0, [r3, #4]
  65:src/main.c    ****     return 0;
  66:src/main.c    **** }
 186              		.loc 1 66 0
 187 ???? 0020     		movs	r0, #0
 188              		@ sp needed
 189 ???? 7146     		mov	r1, lr
 190 ???? 7246     		mov	r2, lr
 191 ???? 7346     		mov	r3, lr
 192 ???? F446     		mov	ip, lr
 193 ???? 8EF30088 		msr	APSR_nzcvq, lr
 194 ???? 7447     		bxns	lr
 195              	.L12:
 196              		.align	2
 197              	.L11:
 198 ???? 00000000 		.word	.LANCHOR0
 199              		.cfi_endproc
 200              	.LFE75:
 201              		.size	Secure_LED_Off_callback, .-Secure_LED_Off_callback
 202              		.align	2
 203              		.global	GetSystemCoreClock
 204              		.global	__acle_se_GetSystemCoreClock
 205              		.code	16
 206              		.thumb_func
 207              		.type	__acle_se_GetSystemCoreClock, %function
 208              		.code	16
 209              		.thumb_func
 210              		.type	GetSystemCoreClock, %function
 211              	GetSystemCoreClock:
 212              	__acle_se_GetSystemCoreClock:
 213              	.LFB76:
  67:src/main.c    **** 
  68:src/main.c    **** __attribute__((cmse_nonsecure_entry))
  69:src/main.c    **** uint32_t GetSystemCoreClock(void)
  70:src/main.c    **** {
 214              		.loc 1 70 0
 215              		.cfi_startproc
ARM GAS  C:\Users\CCMA\AppData\Local\Temp\ccBCHRX5.s 			page 6


 216              		@ Non-secure entry function: called from non-secure code.
 217              		@ args = 0, pretend = 0, frame = 0
 218              		@ frame_needed = 0, uses_anonymous_args = 0
 219              		@ link register save eliminated.
  71:src/main.c    ****     return 5566; //SystemCoreClock;
  72:src/main.c    **** }
 220              		.loc 1 72 0
 221 ???? 41F2BE50 		movw	r0, #5566
 222              		@ sp needed
 223 ???? 7146     		mov	r1, lr
 224 ???? 7246     		mov	r2, lr
 225 ???? 7346     		mov	r3, lr
 226 ???? F446     		mov	ip, lr
 227 ???? 8EF30088 		msr	APSR_nzcvq, lr
 228 ???? 7447     		bxns	lr
 229              		.cfi_endproc
 230              	.LFE76:
 231              		.size	GetSystemCoreClock, .-GetSystemCoreClock
 232 ???? C046     		.align	2
 233              		.global	SysTick_Handler
 234              		.code	16
 235              		.thumb_func
 236              		.type	SysTick_Handler, %function
 237              	SysTick_Handler:
 238              	.LFB77:
  73:src/main.c    **** 
  74:src/main.c    **** 
  75:src/main.c    **** 
  76:src/main.c    **** /*----------------------------------------------------------------------------
  77:src/main.c    ****   SysTick IRQ Handler
  78:src/main.c    ****  *----------------------------------------------------------------------------*/
  79:src/main.c    **** void SysTick_Handler(void)
  80:src/main.c    **** {
 239              		.loc 1 80 0
 240              		.cfi_startproc
 241              		@ args = 0, pretend = 0, frame = 0
 242              		@ frame_needed = 0, uses_anonymous_args = 0
 243 ???? 10B5     		push	{r4, lr}
 244              	.LCFI2:
 245              		.cfi_def_cfa_offset 8
 246              		.cfi_offset 4, -8
 247              		.cfi_offset 14, -4
  81:src/main.c    ****     static uint32_t ticks;
  82:src/main.c    **** 
  83:src/main.c    ****     switch(ticks++)
 248              		.loc 1 83 0
 249 ???? 1C4A     		ldr	r2, .L21
 250 ???? 9368     		ldr	r3, [r2, #8]
 251 ???? 591C     		adds	r1, r3, #1
 252 ???? 9160     		str	r1, [r2, #8]
 253 ???? 40F22C12 		movw	r2, #300
 254 ???? 9342     		cmp	r3, r2
 255 ???? 0CD0     		beq	.L16
 256 ???? 03D8     		bhi	.L17
 257 ???? 6BB3     		cbz	r3, .L14
 258 ???? C82B     		cmp	r3, #200
 259 ???? 2BD0     		beq	.L14
ARM GAS  C:\Users\CCMA\AppData\Local\Temp\ccBCHRX5.s 			page 7


 260 ???? 23E0     		b	.L15
 261              	.L17:
 262 ???? 40F2F412 		movw	r2, #500
 263 ???? 9342     		cmp	r3, r2
 264 ???? 0FD0     		beq	.L19
 265 ???? 6432     		adds	r2, r2, #100
 266 ???? 9342     		cmp	r3, r2
 267 ???? 18D0     		beq	.L20
 268 ???? 1BE0     		b	.L15
 269              	.L16:
  84:src/main.c    ****     {
  85:src/main.c    ****         case   0:
  86:src/main.c    ****             //LED_On (0u);
  87:src/main.c    ****             //printf("Secure LED On in secure systick\n");
  88:src/main.c    ****             break;
  89:src/main.c    ****         case 200:
  90:src/main.c    ****             //LED_Off(0u);
  91:src/main.c    ****             //printf("Secure LED Off in secure systick\n");
  92:src/main.c    ****             break;
  93:src/main.c    ****         case 300:
  94:src/main.c    ****             if(pfNonSecure_LED_On != NULL)
 270              		.loc 1 94 0
 271 ???? 114B     		ldr	r3, .L21
 272 ???? 1C68     		ldr	r4, [r3]
 273 ???? FCB1     		cbz	r4, .L14
  95:src/main.c    ****             {
  96:src/main.c    ****                 pfNonSecure_LED_On(1u);
 274              		.loc 1 96 0
 275 ???? 0120     		movs	r0, #1
 276 ???? 6408     		lsrs	r4, r4, #1
 277 ???? 6400     		lsls	r4, r4, #1
 278 ???? 2100     		movs	r1, r4
 279 ???? 2200     		movs	r2, r4
 280 ???? 2300     		movs	r3, r4
 281 ???? FFF7FEFF 		bl	__gnu_cmse_nonsecure_call
 282              	.LVL12:
 283 ???? 16E0     		b	.L14
 284              	.L19:
  97:src/main.c    ****             }
  98:src/main.c    ****             break;
  99:src/main.c    ****         case 500:
 100:src/main.c    ****             if(pfNonSecure_LED_Off != NULL)
 285              		.loc 1 100 0
 286 ???? 0B4B     		ldr	r3, .L21
 287 ???? 5C68     		ldr	r4, [r3, #4]
 288 ???? 9CB1     		cbz	r4, .L14
 101:src/main.c    ****             {
 102:src/main.c    ****                 pfNonSecure_LED_Off(1u);
 289              		.loc 1 102 0
 290 ???? 0120     		movs	r0, #1
 291 ???? 6408     		lsrs	r4, r4, #1
 292 ???? 6400     		lsls	r4, r4, #1
 293 ???? 2100     		movs	r1, r4
 294 ???? 2200     		movs	r2, r4
 295 ???? 2300     		movs	r3, r4
 296 ???? FFF7FEFF 		bl	__gnu_cmse_nonsecure_call
 297              	.LVL13:
ARM GAS  C:\Users\CCMA\AppData\Local\Temp\ccBCHRX5.s 			page 8


 298 ???? 0AE0     		b	.L14
 299              	.L20:
 103:src/main.c    ****             }
 104:src/main.c    ****             break;
 105:src/main.c    ****         case 600:
 106:src/main.c    ****             ticks = 0;
 300              		.loc 1 106 0
 301 ???? 0022     		movs	r2, #0
 302 ???? 054B     		ldr	r3, .L21
 303 ???? 9A60     		str	r2, [r3, #8]
 107:src/main.c    ****             break;
 304              		.loc 1 107 0
 305 ???? 06E0     		b	.L14
 306              	.L15:
 108:src/main.c    **** 
 109:src/main.c    ****         default:
 110:src/main.c    ****             if(ticks > 600)
 307              		.loc 1 110 0
 308 ???? 40F25823 		movw	r3, #600
 309 ???? 9942     		cmp	r1, r3
 310 ???? 02D9     		bls	.L14
 111:src/main.c    ****             {
 112:src/main.c    ****                 ticks = 0;
 311              		.loc 1 112 0
 312 ???? 0022     		movs	r2, #0
 313 ???? 014B     		ldr	r3, .L21
 314 ???? 9A60     		str	r2, [r3, #8]
 315              	.L14:
 113:src/main.c    ****             }
 114:src/main.c    ****     }
 115:src/main.c    **** }
 316              		.loc 1 115 0
 317              		@ sp needed
 318 ???? 10BD     		pop	{r4, pc}
 319              	.L22:
 320              		.align	2
 321              	.L21:
 322 ???? 00000000 		.word	.LANCHOR0
 323              		.cfi_endproc
 324              	.LFE77:
 325              		.size	SysTick_Handler, .-SysTick_Handler
 326              		.align	2
 327              		.global	Nonsecure_Init
 328              		.code	16
 329              		.thumb_func
 330              		.type	Nonsecure_Init, %function
 331              	Nonsecure_Init:
 332              	.LFB79:
 116:src/main.c    **** 
 117:src/main.c    **** extern void SecureAttrib(void);
 118:src/main.c    **** 
 119:src/main.c    **** void SYS_Init(void);
 120:src/main.c    **** void UART0_Init(void);
 121:src/main.c    **** void Nonsecure_Init(void);
 122:src/main.c    **** 
 123:src/main.c    **** /*----------------------------------------------------------------------------
 124:src/main.c    ****   Main function
ARM GAS  C:\Users\CCMA\AppData\Local\Temp\ccBCHRX5.s 			page 9


 125:src/main.c    ****  *----------------------------------------------------------------------------
 126:src/main.c    ****   
 127:src/main.c    **** Secure Region Config of the Template:
 128:src/main.c    ****   [0x00000000:0x00003FFF] Secure. APROM for Secure. (16KB)
 129:src/main.c    ****   [0x00004000:0x0003FFFF] Secure Nonsecure Callable. APROM for secure & API (240KB)
 130:src/main.c    ****   [0x00800000:0x00807BFF] Secure. MKROM (31KB)
 131:src/main.c    ****   [0x00807C00:0x00807FFF] Secure Nonsecure Callable. API table of MKROM (1KB)
 132:src/main.c    ****   [0x10040000:0x1007FFFF] Nonsecure. APROM for Nonsecure (256KB)
 133:src/main.c    ****   [0x20000000:0x2000FBFF] Secure. SRAM (63KB)
 134:src/main.c    ****   [0x2000FC00:0x2000FFFF] Secure Nonesecure Callable. SRAM for NSC API (1KB)
 135:src/main.c    ****   [0x30010000:0x3001FFFF] Nonsecure. SRAM for Nonsecure.
 136:src/main.c    ****   [0x40000000:0x00000000] Secure. For Secure IP.
 137:src/main.c    ****   [0x50000000:0x00000000] Nonsecure. For Nonsecure IP.
 138:src/main.c    **** 
 139:src/main.c    **** FMC.NSCBOND must be 0x40000 (256KB). The code will set it to 0x40000.
 140:src/main.c    **** (NOTE: It don't do erase, thus the setting may fail if NSCBOND!=0xffffffff)
 141:src/main.c    **** 
 142:src/main.c    **** SRAM secure setting in SCU must be 64KB secure/64KB nonsecure
 143:src/main.c    **** 
 144:src/main.c    **** All secure settings is located in partition_TC8234.h, except FMC.NSCBOND.
 145:src/main.c    **** 
 146:src/main.c    **** 
 147:src/main.c    **** 
 148:src/main.c    **** SecureAttrib() could be used to show all region settings of SAU and IDAU.
 149:src/main.c    **** 
 150:src/main.c    **** The secure code will call nonsecure code by callback function.
 151:src/main.c    **** The secure code will keep secure systick timer interrupt, even the nonsecure code is running.
 152:src/main.c    **** The Secure Nonsecure Callable API will be located at SRAM 0x2000FC00 by scatter loading file.
 153:src/main.c    **** The secure code will execute nonsecure code.
 154:src/main.c    **** The nonsecure code will do a while loop and show messages.
 155:src/main.c    **** The nonsecure code will call secure funcitons by NSC at SRAM.
 156:src/main.c    **** 
 157:src/main.c    **** UART0 is configured as Nonsecure for debug message in both secure and nonsecure.
 158:src/main.c    **** 
 159:src/main.c    **** The flash download algorithm of keil for secure is "TC8234 8M Flash"
 160:src/main.c    **** The flash download algorithm of keil for nonsecure is "TC8234_NS 8M Flash"
 161:src/main.c    **** 
 162:src/main.c    **** Build & Debug flow:
 163:src/main.c    ****  1. Build secure project
 164:src/main.c    ****  2. Build nonsecure project
 165:src/main.c    ****  3. Download nonsecure code
 166:src/main.c    ****  4. Do debug with ICE in secure project. Both secure & nonsecure code can be debug. 
 167:src/main.c    **** 
 168:src/main.c    **** 
 169:src/main.c    **** 
 170:src/main.c    **** *----------------------------------------------------------------------------*/
 171:src/main.c    **** 		char *tests1, tests2[10]="bblala", tests3[10]="cchaha";
 172:src/main.c    **** static const int atest=3989 ;
 173:src/main.c    **** char testc;
 174:src/main.c    **** 
 175:src/main.c    **** int main(void)
 176:src/main.c    **** {
 177:src/main.c    ****     uint32_t u32MSP_s, u32PSP_s;
 178:src/main.c    ****     uint32_t u32MSP_ns, u32PSP_ns;
 179:src/main.c    ****     volatile uint32_t NonSecure_ResetHandler;
 180:src/main.c    ****     NonSecure_funcptr fp;
 181:src/main.c    **** 
ARM GAS  C:\Users\CCMA\AppData\Local\Temp\ccBCHRX5.s 			page 10


 182:src/main.c    **** 	
 183:src/main.c    **** 		//int testnum, test2;
 184:src/main.c    **** 	
 185:src/main.c    ****     SYS_UnlockReg();
 186:src/main.c    ****     SYS_Init();
 187:src/main.c    **** 
 188:src/main.c    ****     /* UART0 is configured as Nonsecure for debug in both secure and nonsecure region */
 189:src/main.c    ****     UART0_Init();
 190:src/main.c    **** 
 191:src/main.c    **** 		//goto JMPADDR;
 192:src/main.c    **** 		asm("ldr r3, =JMPADDR");
 193:src/main.c    **** 		asm(".label JMPADDR");
 194:src/main.c    **** 	
 195:src/main.c    **** //JMPADDR:
 196:src/main.c    **** //		asm("ldr r3, =JMPADDR"
 197:src/main.c    **** //				"bx r3"
 198:src/main.c    **** //		"JMPADDR:");
 199:src/main.c    **** 			
 200:src/main.c    **** 		printf("4 %x\n", tests2);
 201:src/main.c    **** 		tests1 = strcpy(tests2, tests3);
 202:src/main.c    **** 		
 203:src/main.c    **** 	  testc = getchar();
 204:src/main.c    **** 		printf("1 %c \n", testc);
 205:src/main.c    **** 		testc = getchar();
 206:src/main.c    **** 		printf("2 %c \n", testc);
 207:src/main.c    **** 	
 208:src/main.c    **** 		printf("1 %s\n", tests2);
 209:src/main.c    **** 		scanf("2 %s\n", tests2);
 210:src/main.c    **** 		printf("3 %s\n", tests2);
 211:src/main.c    **** 		printf("4 %x\n", tests2);
 212:src/main.c    **** //		printf("3 %x\n", tests3);
 213:src/main.c    **** //	
 214:src/main.c    **** //    strcpy (tests1, "abc:def:ghi:jkl:haha");
 215:src/main.c    **** //    strcpy (tests2,  strtok(tests1, ":"));
 216:src/main.c    **** //    strcpy (tests2,  strtok(NULL, ":"));
 217:src/main.c    **** //    strcpy (tests2,  strtok(NULL, ":"));
 218:src/main.c    **** //    strcpy (tests2,  strtok(NULL, ":"));
 219:src/main.c    **** //		strcpy (tests1, "abc:def:ghi:jkl:haha");
 220:src/main.c    **** //    strcpy (tests2,  "ghi");
 221:src/main.c    **** //    strcpy (tests3,  strstr(tests1, tests2));
 222:src/main.c    **** //    strcpy (tests3,  tests3);
 223:src/main.c    ****     
 224:src/main.c    ****     //scanf("%s %d %x", teststring, &testnum, &test2);
 225:src/main.c    ****     //printf("%s, %d, %d\n", teststring, testnum, test2);
 226:src/main.c    ****     /* The setting of FNSADDR must be the same as SAU setting. If it is different to SAU,
 227:src/main.c    ****        We need to set FMC NSCBOND configuration */
 228:src/main.c    ****     printf("FNSADDR = 0x%08x\n", SCU->FNSADDR);
 229:src/main.c    ****     /* Check the non-secure settting of FMC */
 230:src/main.c    **** #if 0
 231:src/main.c    ****     if(SCU->FNSADDR > FMC_SECURE_BOUNDARY)
 232:src/main.c    ****     {
 233:src/main.c    ****         //printf("Set NSCBOND to 0x40000\n");
 234:src/main.c    ****         FMC->ISPCTL = 0x7d;
 235:src/main.c    ****         FMC->ISPADDR = 0x200800; /* Non-secure boundary config */
 236:src/main.c    ****         FMC->ISPDAT = FMC_SECURE_BOUNDARY;
 237:src/main.c    ****         FMC->ISPCMD = 0x21; /* Word program */
 238:src/main.c    ****         FMC->ISPTRG = 1;   
ARM GAS  C:\Users\CCMA\AppData\Local\Temp\ccBCHRX5.s 			page 11


 239:src/main.c    ****         while(FMC->ISPTRG);
 240:src/main.c    **** 
 241:src/main.c    ****         printf("Press any key to reboot ...\n");
 242:src/main.c    ****         getchar();
 243:src/main.c    ****         SYS->IPRST0 = 1;
 244:src/main.c    ****     }
 245:src/main.c    **** #endif
 246:src/main.c    **** 
 247:src/main.c    **** #if 1 /* Scan all SAU & IDAU region and read/write attribution by TT instruction. */
 248:src/main.c    ****     SecureAttrib();
 249:src/main.c    ****     while(1);
 250:src/main.c    **** #endif
 251:src/main.c    **** 
 252:src/main.c    ****     /* exercise some core register from Secure Mode */
 253:src/main.c    ****     u32MSP_s = __get_MSP();
 254:src/main.c    ****     u32PSP_s = __get_PSP();
 255:src/main.c    **** 
 256:src/main.c    ****     printf("Secure Region Code Stack: MSP(0x%08x) PSP(0x%08x)\n", u32MSP_s, u32PSP_s);
 257:src/main.c    **** 
 258:src/main.c    ****     /* Get the stack of Non-secure region */
 259:src/main.c    ****     __TZ_set_MSP_NS(M32(NON_SECURE_SRAM_BASE));
 260:src/main.c    ****     u32MSP_ns = __TZ_get_MSP_NS();
 261:src/main.c    ****     __TZ_set_PSP_NS(M32(NON_SECURE_SRAM_BASE));
 262:src/main.c    ****     u32PSP_ns = __TZ_get_PSP_NS();
 263:src/main.c    **** 
 264:src/main.c    ****     printf("Non-secure Region Code Stack: MSP(0x%08x) PSP(0x%08x)\n", u32MSP_ns, u32PSP_ns);
 265:src/main.c    **** 
 266:src/main.c    ****     SystemCoreClockUpdate();
 267:src/main.c    ****     //SysTick_Config(SystemCoreClock / 100); /* Generate interrupt each 10 ms */
 268:src/main.c    **** 	SysTick_Config(120000); /* Generate interrupt each 10 ms */
 269:src/main.c    ****     
 270:src/main.c    **** 	Nonsecure_Init();
 271:src/main.c    ****     while(SYS->PDID)__WFI();
 272:src/main.c    **** 
 273:src/main.c    ****     return 0;
 274:src/main.c    **** }
 275:src/main.c    **** 
 276:src/main.c    **** 
 277:src/main.c    **** void Nonsecure_Init(void)
 278:src/main.c    **** {
 333              		.loc 1 278 0
 334              		.cfi_startproc
 335              		@ args = 0, pretend = 0, frame = 0
 336              		@ frame_needed = 0, uses_anonymous_args = 0
 337 ???? 10B5     		push	{r4, lr}
 338              	.LCFI3:
 339              		.cfi_def_cfa_offset 8
 340              		.cfi_offset 4, -8
 341              		.cfi_offset 14, -4
 279:src/main.c    **** 	NonSecure_funcptr fp;
 280:src/main.c    **** 
 281:src/main.c    ****     /* SCB_NS.VTOR points to the Non-secure vector table base address. */
 282:src/main.c    ****     SCB_NS->VTOR = NON_SECURE_BASE;
 342              		.loc 1 282 0
 343 ???? 0A4B     		ldr	r3, .L24
 344 ???? 0A4A     		ldr	r2, .L24+4
 345 ???? 9A60     		str	r2, [r3, #8]
ARM GAS  C:\Users\CCMA\AppData\Local\Temp\ccBCHRX5.s 			page 12


 283:src/main.c    **** 
 284:src/main.c    ****     /* 1st Entry in the vector table is the Non-secure Main Stack Pointer. */
 285:src/main.c    ****     __TZ_set_MSP_NS(*((uint32_t *)SCB_NS->VTOR));      /* Set up MSP in Non-secure code */
 346              		.loc 1 285 0
 347 ???? 9A68     		ldr	r2, [r3, #8]
 348              	.LVL14:
 349              	.LBB6:
 350              	.LBB7:
 351              		.file 2 "src/cmsis_gcc.h"
   1:src/cmsis_gcc.h **** /**************************************************************************//**
   2:src/cmsis_gcc.h ****  * @file     cmsis_gcc.h
   3:src/cmsis_gcc.h ****  * @brief    CMSIS Cortex-M Core Function/Instruction Header File
   4:src/cmsis_gcc.h ****  * @version  V4.30
   5:src/cmsis_gcc.h ****  * @date     20. October 2015
   6:src/cmsis_gcc.h ****  ******************************************************************************/
   7:src/cmsis_gcc.h **** /* Copyright (c) 2009 - 2015 ARM LIMITED
   8:src/cmsis_gcc.h **** 
   9:src/cmsis_gcc.h ****    All rights reserved.
  10:src/cmsis_gcc.h ****    Redistribution and use in source and binary forms, with or without
  11:src/cmsis_gcc.h ****    modification, are permitted provided that the following conditions are met:
  12:src/cmsis_gcc.h ****    - Redistributions of source code must retain the above copyright
  13:src/cmsis_gcc.h ****      notice, this list of conditions and the following disclaimer.
  14:src/cmsis_gcc.h ****    - Redistributions in binary form must reproduce the above copyright
  15:src/cmsis_gcc.h ****      notice, this list of conditions and the following disclaimer in the
  16:src/cmsis_gcc.h ****      documentation and/or other materials provided with the distribution.
  17:src/cmsis_gcc.h ****    - Neither the name of ARM nor the names of its contributors may be used
  18:src/cmsis_gcc.h ****      to endorse or promote products derived from this software without
  19:src/cmsis_gcc.h ****      specific prior written permission.
  20:src/cmsis_gcc.h ****    *
  21:src/cmsis_gcc.h ****    THIS SOFTWARE IS PROVIDED BY THE COPYRIGHT HOLDERS AND CONTRIBUTORS "AS IS"
  22:src/cmsis_gcc.h ****    AND ANY EXPRESS OR IMPLIED WARRANTIES, INCLUDING, BUT NOT LIMITED TO, THE
  23:src/cmsis_gcc.h ****    IMPLIED WARRANTIES OF MERCHANTABILITY AND FITNESS FOR A PARTICULAR PURPOSE
  24:src/cmsis_gcc.h ****    ARE DISCLAIMED. IN NO EVENT SHALL COPYRIGHT HOLDERS AND CONTRIBUTORS BE
  25:src/cmsis_gcc.h ****    LIABLE FOR ANY DIRECT, INDIRECT, INCIDENTAL, SPECIAL, EXEMPLARY, OR
  26:src/cmsis_gcc.h ****    CONSEQUENTIAL DAMAGES (INCLUDING, BUT NOT LIMITED TO, PROCUREMENT OF
  27:src/cmsis_gcc.h ****    SUBSTITUTE GOODS OR SERVICES; LOSS OF USE, DATA, OR PROFITS; OR BUSINESS
  28:src/cmsis_gcc.h ****    INTERRUPTION) HOWEVER CAUSED AND ON ANY THEORY OF LIABILITY, WHETHER IN
  29:src/cmsis_gcc.h ****    CONTRACT, STRICT LIABILITY, OR TORT (INCLUDING NEGLIGENCE OR OTHERWISE)
  30:src/cmsis_gcc.h ****    ARISING IN ANY WAY OUT OF THE USE OF THIS SOFTWARE, EVEN IF ADVISED OF THE
  31:src/cmsis_gcc.h ****    POSSIBILITY OF SUCH DAMAGE.
  32:src/cmsis_gcc.h ****    ---------------------------------------------------------------------------*/
  33:src/cmsis_gcc.h **** 
  34:src/cmsis_gcc.h **** 
  35:src/cmsis_gcc.h **** #ifndef __CMSIS_GCC_H
  36:src/cmsis_gcc.h **** #define __CMSIS_GCC_H
  37:src/cmsis_gcc.h **** 
  38:src/cmsis_gcc.h **** /* ignore some GCC warnings */
  39:src/cmsis_gcc.h **** #if defined ( __GNUC__ )
  40:src/cmsis_gcc.h **** #pragma GCC diagnostic push
  41:src/cmsis_gcc.h **** #pragma GCC diagnostic ignored "-Wsign-conversion"
  42:src/cmsis_gcc.h **** #pragma GCC diagnostic ignored "-Wconversion"
  43:src/cmsis_gcc.h **** #pragma GCC diagnostic ignored "-Wunused-parameter"
  44:src/cmsis_gcc.h **** #pragma GCC diagnostic ignored "-Wmissing-field-initializers"
  45:src/cmsis_gcc.h **** #pragma GCC diagnostic ignored "-Wmissing-braces"
  46:src/cmsis_gcc.h **** #endif
  47:src/cmsis_gcc.h **** 
  48:src/cmsis_gcc.h **** 
ARM GAS  C:\Users\CCMA\AppData\Local\Temp\ccBCHRX5.s 			page 13


  49:src/cmsis_gcc.h **** /* ###########################  Core Function Access  ########################### */
  50:src/cmsis_gcc.h **** /** \ingroup  CMSIS_Core_FunctionInterface
  51:src/cmsis_gcc.h ****     \defgroup CMSIS_Core_RegAccFunctions CMSIS Core Register Access Functions
  52:src/cmsis_gcc.h ****   @{
  53:src/cmsis_gcc.h ****  */
  54:src/cmsis_gcc.h **** 
  55:src/cmsis_gcc.h **** /**
  56:src/cmsis_gcc.h ****   \brief   Enable IRQ Interrupts
  57:src/cmsis_gcc.h ****   \details Enables IRQ interrupts by clearing the I-bit in the CPSR.
  58:src/cmsis_gcc.h ****            Can only be executed in Privileged modes.
  59:src/cmsis_gcc.h ****  */
  60:src/cmsis_gcc.h **** __attribute__( ( always_inline ) ) __STATIC_INLINE void __enable_irq(void)
  61:src/cmsis_gcc.h **** {
  62:src/cmsis_gcc.h ****   __ASM volatile ("cpsie i" : : : "memory");
  63:src/cmsis_gcc.h **** }
  64:src/cmsis_gcc.h **** 
  65:src/cmsis_gcc.h **** 
  66:src/cmsis_gcc.h **** /**
  67:src/cmsis_gcc.h ****   \brief   Disable IRQ Interrupts
  68:src/cmsis_gcc.h ****   \details Disables IRQ interrupts by setting the I-bit in the CPSR.
  69:src/cmsis_gcc.h ****   Can only be executed in Privileged modes.
  70:src/cmsis_gcc.h ****  */
  71:src/cmsis_gcc.h **** __attribute__( ( always_inline ) ) __STATIC_INLINE void __disable_irq(void)
  72:src/cmsis_gcc.h **** {
  73:src/cmsis_gcc.h ****   __ASM volatile ("cpsid i" : : : "memory");
  74:src/cmsis_gcc.h **** }
  75:src/cmsis_gcc.h **** 
  76:src/cmsis_gcc.h **** 
  77:src/cmsis_gcc.h **** /**
  78:src/cmsis_gcc.h ****   \brief   Get Control Register
  79:src/cmsis_gcc.h ****   \details Returns the content of the Control Register.
  80:src/cmsis_gcc.h ****   \return               Control Register value
  81:src/cmsis_gcc.h ****  */
  82:src/cmsis_gcc.h **** __attribute__( ( always_inline ) ) __STATIC_INLINE uint32_t __get_CONTROL(void)
  83:src/cmsis_gcc.h **** {
  84:src/cmsis_gcc.h ****   uint32_t result;
  85:src/cmsis_gcc.h **** 
  86:src/cmsis_gcc.h ****   __ASM volatile ("MRS %0, control" : "=r" (result) );
  87:src/cmsis_gcc.h ****   return(result);
  88:src/cmsis_gcc.h **** }
  89:src/cmsis_gcc.h **** 
  90:src/cmsis_gcc.h **** 
  91:src/cmsis_gcc.h **** __attribute__((always_inline)) __STATIC_INLINE void __TZ_set_MSP_NS(uint32_t topOfMainStack)
  92:src/cmsis_gcc.h **** {
  93:src/cmsis_gcc.h ****   __ASM volatile ("MSR msp_ns, %0\n" : : "r" (topOfMainStack) : "sp");
 352              		.loc 2 93 0
 353 ???? 1268     		ldr	r2, [r2]
 354              	.LVL15:
 355              		.syntax divided
 356              	@ 93 "src/cmsis_gcc.h" 1
 357 ???? 82F38888 		MSR msp_ns, r2
 358              	
 359              	@ 0 "" 2
 360              	.LVL16:
 361              		.thumb
 362              		.syntax unified
 363              	.LBE7:
ARM GAS  C:\Users\CCMA\AppData\Local\Temp\ccBCHRX5.s 			page 14


 364              	.LBE6:
 286:src/main.c    **** 
 287:src/main.c    ****     /* 2nd entry contains the address of the Reset_Handler (CMSIS-CORE) function */
 288:src/main.c    ****     fp = ((NonSecure_funcptr)(*(((uint32_t *)SCB_NS->VTOR) + 1)));
 365              		.loc 1 288 0
 366 ???? 9B68     		ldr	r3, [r3, #8]
 367              	.LVL17:
 289:src/main.c    **** 
 290:src/main.c    ****     /* Clear the LSB of the function address to indicate the function-call
 291:src/main.c    ****        will cause a state switch from Secure to Non-secure */
 292:src/main.c    ****     fp = cmse_nsfptr_create(fp);
 293:src/main.c    **** 
 294:src/main.c    ****     /* Check if the Reset_Handler address is in Non-secure space */
 295:src/main.c    ****     if(cmse_is_nsfptr(fp))
 296:src/main.c    ****     {
 297:src/main.c    ****         fp(0);                             /* Non-secure function call */
 368              		.loc 1 297 0
 369 ???? 5C68     		ldr	r4, [r3, #4]
 370 ???? 0123     		movs	r3, #1
 371              	.LVL18:
 372 ???? 9C43     		bics	r4, r3
 373              	.LVL19:
 374 ???? 0020     		movs	r0, #0
 375 ???? 6408     		lsrs	r4, r4, #1
 376 ???? 6400     		lsls	r4, r4, #1
 377 ???? 2100     		movs	r1, r4
 378 ???? 2200     		movs	r2, r4
 379 ???? 2300     		movs	r3, r4
 380 ???? FFF7FEFF 		bl	__gnu_cmse_nonsecure_call
 381              	.LVL20:
 298:src/main.c    ****     }
 299:src/main.c    ****     else
 300:src/main.c    ****     {
 301:src/main.c    ****         /* Something went wrong */
 302:src/main.c    ****         while(1);
 303:src/main.c    ****     }
 304:src/main.c    **** }
 382              		.loc 1 304 0
 383              		@ sp needed
 384 ???? 10BD     		pop	{r4, pc}
 385              	.L25:
 386 ???? C046     		.align	2
 387              	.L24:
 388 ???? 00ED02E0 		.word	-536679168
 389 ???? 00000410 		.word	268697600
 390              		.cfi_endproc
 391              	.LFE79:
 392              		.size	Nonsecure_Init, .-Nonsecure_Init
 393              		.align	2
 394              		.global	SYS_Init
 395              		.code	16
 396              		.thumb_func
 397              		.type	SYS_Init, %function
 398              	SYS_Init:
 399              	.LFB80:
 305:src/main.c    **** 
 306:src/main.c    **** 
ARM GAS  C:\Users\CCMA\AppData\Local\Temp\ccBCHRX5.s 			page 15


 307:src/main.c    **** 
 308:src/main.c    **** void SYS_Init(void)
 309:src/main.c    **** {
 400              		.loc 1 309 0
 401              		.cfi_startproc
 402              		@ args = 0, pretend = 0, frame = 0
 403              		@ frame_needed = 0, uses_anonymous_args = 0
 404              		@ link register save eliminated.
 310:src/main.c    ****     int32_t i;
 311:src/main.c    ****     /*---------------------------------------------------------------------------------------------
 312:src/main.c    ****     /* Init System Clock                                                                           
 313:src/main.c    ****     /*---------------------------------------------------------------------------------------------
 314:src/main.c    **** 
 315:src/main.c    ****     /* Enable External XTAL (4~24 MHz) */
 316:src/main.c    ****     CLK->PWRCTL |= CLK_PWRCTL_HXTEN_Msk;
 405              		.loc 1 316 0
 406 ???? 0C4B     		ldr	r3, .L27
 407 ???? 1968     		ldr	r1, [r3]
 408 ???? 0122     		movs	r2, #1
 409 ???? 0A43     		orrs	r2, r1
 410 ???? 1A60     		str	r2, [r3]
 317:src/main.c    **** 
 318:src/main.c    ****     //CLK->PLLCTL = PLLCON_SETTING;
 319:src/main.c    **** 
 320:src/main.c    ****     /* Waiting for clock ready */
 321:src/main.c    **** //    i = 2200; // For timeout
 322:src/main.c    **** //    while(i-- > 0)
 323:src/main.c    **** //    {
 324:src/main.c    **** //        if((CLK->STATUS & (CLK_STATUS_PLLSTB_Msk | CLK_STATUS_HXTSTB_Msk)) ==
 325:src/main.c    **** //                (CLK_STATUS_PLLSTB_Msk | CLK_STATUS_HXTSTB_Msk))
 326:src/main.c    **** //            break;
 327:src/main.c    **** //    }
 328:src/main.c    **** 
 329:src/main.c    ****     /* Switch HCLK clock source to PLL */
 330:src/main.c    ****     CLK->CLKSEL0 = CLK_CLKSEL0_HCLKSEL_HXT;
 411              		.loc 1 330 0
 412 ???? 0022     		movs	r2, #0
 413 ???? 1A61     		str	r2, [r3, #16]
 331:src/main.c    **** 
 332:src/main.c    ****     /* Enable IP clock */
 333:src/main.c    ****     CLK->APBCLK0 |= CLK_APBCLK0_UART0CKEN_Msk | CLK_APBCLK0_UART1CKEN_Msk | CLK_APBCLK0_UART2CKEN_M
 414              		.loc 1 333 0
 415 ???? 9A68     		ldr	r2, [r3, #8]
 416 ???? E021     		movs	r1, #224
 417 ???? C902     		lsls	r1, r1, #11
 418 ???? 0A43     		orrs	r2, r1
 419 ???? 9A60     		str	r2, [r3, #8]
 334:src/main.c    ****     CLK->APBCLK1 |= CLK_APBCLK1_OPACKEN_Msk;
 420              		.loc 1 334 0
 421 ???? D968     		ldr	r1, [r3, #12]
 422 ???? 8022     		movs	r2, #128
 423 ???? D205     		lsls	r2, r2, #23
 424 ???? 1143     		orrs	r1, r2
 425 ???? D960     		str	r1, [r3, #12]
 335:src/main.c    **** 
 336:src/main.c    ****     /* Select IP clock source */
 337:src/main.c    ****     CLK->CLKSEL1 = CLK_CLKSEL1_UART0SEL_HIRC;//CLK_CLKSEL1_UARTSEL_HXT;
ARM GAS  C:\Users\CCMA\AppData\Local\Temp\ccBCHRX5.s 			page 16


 426              		.loc 1 337 0
 427 ???? C021     		movs	r1, #192
 428 ???? 8904     		lsls	r1, r1, #18
 429 ???? 5961     		str	r1, [r3, #20]
 338:src/main.c    **** 
 339:src/main.c    ****     /* Update System Core Clock */
 340:src/main.c    ****     /* User can use SystemCoreClockUpdate() to calculate PllClock, SystemCoreClock and CycylesPerUs
 341:src/main.c    ****     //SystemCoreClockUpdate();
 342:src/main.c    ****     //PllClock        = 12000000;            // PLL
 343:src/main.c    ****     //SystemCoreClock = 12000000 / 1;        // HCLK
 344:src/main.c    ****     //CyclesPerUs     = 12000000 / 1000000;  // For SYS_SysTickDelay()
 345:src/main.c    **** 
 346:src/main.c    ****     /*---------------------------------------------------------------------------------------------
 347:src/main.c    ****     /* Init I/O Multi-function                                                                     
 348:src/main.c    ****     /*---------------------------------------------------------------------------------------------
 349:src/main.c    ****     /* Set P3 multi-function pins for UART0 RXD and TXD */
 350:src/main.c    ****     //SYS->GPD_MFPL = SYS_GPD_MFPL_PD0MFP_UART0_RXD | SYS_GPD_MFPL_PD1MFP_UART0_TXD;
 351:src/main.c    ****     //SYS->GPA_MFPL = SYS_GPA_MFPL_PA1MFP_UART1_RXD | SYS_GPA_MFPL_PA0MFP_UART1_TXD;
 352:src/main.c    ****     //SYS->GPA_MFPH = SYS_GPA_MFPH_PA12MFP_UART2_RXD | SYS_GPA_MFPH_PA13MFP_UART2_TXD;
 353:src/main.c    ****     //SYS->GPA_MFPH = SYS_GPA_MFPH_PA12MFP_UART1_RXD | SYS_GPA_MFPH_PA13MFP_UART1_TXD;
 354:src/main.c    ****     //SYS->GPE_MFPL = SYS_GPE_MFPH_PE8MFP_UART1_TXD | SYS_GPE_MFPH_PE9MFP_UART1_RXD;
 355:src/main.c    ****     
 356:src/main.c    ****     /* 
 357:src/main.c    ****        UART0 I/O
 358:src/main.c    ****        PG7 - UART0_RXD - CON37.39, 
 359:src/main.c    ****        PG8 - UART0_TXD - CON37.15 
 360:src/main.c    ****     */
 361:src/main.c    ****     SYS->GPG_MFPL = 0x30000000;
 430              		.loc 1 361 0
 431 ???? C023     		movs	r3, #192
 432 ???? 9B05     		lsls	r3, r3, #22
 433 ???? 1366     		str	r3, [r2, #96]
 362:src/main.c    ****     SYS->GPG_MFPH = 0x00000003;
 434              		.loc 1 362 0
 435 ???? 0323     		movs	r3, #3
 436 ???? 5366     		str	r3, [r2, #100]
 363:src/main.c    **** 
 364:src/main.c    **** }
 437              		.loc 1 364 0
 438              		@ sp needed
 439 ???? 7047     		bx	lr
 440              	.L28:
 441              		.align	2
 442              	.L27:
 443 ???? 00020040 		.word	1073742336
 444              		.cfi_endproc
 445              	.LFE80:
 446              		.size	SYS_Init, .-SYS_Init
 447              		.align	2
 448              		.global	UART0_Init
 449              		.code	16
 450              		.thumb_func
 451              		.type	UART0_Init, %function
 452              	UART0_Init:
 453              	.LFB81:
 365:src/main.c    **** 
 366:src/main.c    **** void UART0_Init(void)
ARM GAS  C:\Users\CCMA\AppData\Local\Temp\ccBCHRX5.s 			page 17


 367:src/main.c    **** {
 454              		.loc 1 367 0
 455              		.cfi_startproc
 456              		@ args = 0, pretend = 0, frame = 0
 457              		@ frame_needed = 0, uses_anonymous_args = 0
 458              		@ link register save eliminated.
 368:src/main.c    ****     /*---------------------------------------------------------------------------------------------
 369:src/main.c    ****     /* Init UART                                                                                   
 370:src/main.c    ****     /*---------------------------------------------------------------------------------------------
 371:src/main.c    ****     /* Reset IP */
 372:src/main.c    **** 
 373:src/main.c    ****     /* Configure UART0 and set UART0 Baudrate */
 374:src/main.c    ****     UART0_NS->BAUD = UART_BAUD_MODE2 | UART_BAUD_MODE2_DIVIDER(__HXT, 115200);
 459              		.loc 1 374 0
 460 ???? 024B     		ldr	r3, .L30
 461 ???? 034A     		ldr	r2, .L30+4
 462 ???? 5A62     		str	r2, [r3, #36]
 375:src/main.c    ****     UART0_NS->LINE = UART_WORD_LEN_8 | UART_PARITY_NONE | UART_STOP_BIT_1;
 463              		.loc 1 375 0
 464 ???? 0322     		movs	r2, #3
 465 ???? DA60     		str	r2, [r3, #12]
 376:src/main.c    **** }
 466              		.loc 1 376 0
 467              		@ sp needed
 468 ???? 7047     		bx	lr
 469              	.L31:
 470              		.align	2
 471              	.L30:
 472 ???? 00000750 		.word	1342636032
 473 ???? 66000030 		.word	805306470
 474              		.cfi_endproc
 475              	.LFE81:
 476              		.size	UART0_Init, .-UART0_Init
 477              		.align	2
 478              		.global	main
 479              		.code	16
 480              		.thumb_func
 481              		.type	main, %function
 482              	main:
 483              	.LFB78:
 176:src/main.c    ****     uint32_t u32MSP_s, u32PSP_s;
 484              		.loc 1 176 0
 485              		.cfi_startproc
 486              		@ Volatile: function does not return.
 487              		@ args = 0, pretend = 0, frame = 0
 488              		@ frame_needed = 0, uses_anonymous_args = 0
 489 ???? 70B5     		push	{r4, r5, r6, lr}
 490              	.LCFI4:
 491              		.cfi_def_cfa_offset 16
 492              		.cfi_offset 4, -16
 493              		.cfi_offset 5, -12
 494              		.cfi_offset 6, -8
 495              		.cfi_offset 14, -4
 496              	.LBB8:
 497              	.LBB9:
 498              		.file 3 "src/sys.h"
   1:src/sys.h     **** /**************************************************************************//**
ARM GAS  C:\Users\CCMA\AppData\Local\Temp\ccBCHRX5.s 			page 18


   2:src/sys.h     ****  * @file     SYS.h
   3:src/sys.h     ****  * @version  V3
   4:src/sys.h     ****  * $Revision: 4 $
   5:src/sys.h     ****  * $Date: 16/08/09 7:54p $
   6:src/sys.h     ****  * @brief    M0564 series System Manager (SYS) driver header file
   7:src/sys.h     ****  *
   8:src/sys.h     ****  * @note
   9:src/sys.h     ****  * Copyright (C) 2016 Nuvoton Technology Corp. All rights reserved.
  10:src/sys.h     ****  *
  11:src/sys.h     ****  ******************************************************************************/
  12:src/sys.h     **** #ifndef __SYS_H__
  13:src/sys.h     **** #define __SYS_H__
  14:src/sys.h     **** 
  15:src/sys.h     **** 
  16:src/sys.h     **** #ifdef __cplusplus
  17:src/sys.h     **** extern "C"
  18:src/sys.h     **** {
  19:src/sys.h     **** #endif
  20:src/sys.h     **** 
  21:src/sys.h     **** /** @addtogroup Standard_Driver Standard Driver
  22:src/sys.h     ****   @{
  23:src/sys.h     **** */
  24:src/sys.h     **** 
  25:src/sys.h     **** /** @addtogroup SYS_Driver SYS Driver
  26:src/sys.h     ****   @{
  27:src/sys.h     **** */
  28:src/sys.h     **** 
  29:src/sys.h     **** /** @addtogroup SYS_EXPORTED_CONSTANTS SYS Exported Constants
  30:src/sys.h     ****   @{
  31:src/sys.h     **** */
  32:src/sys.h     **** 
  33:src/sys.h     **** /*-------------------------------------------------------------------------------------------------
  34:src/sys.h     **** /*  Module Reset Control Resister constant definitions.                                            
  35:src/sys.h     **** /*-------------------------------------------------------------------------------------------------
  36:src/sys.h     **** #define PDMA0_RST   ((0x0<<24)|SYS_IPRST0_PDMA0RST_Pos)     /*!< PDMA0 reset is one of the SYS_Rese
  37:src/sys.h     **** #define EBI_RST     ((0x0<<24)|SYS_IPRST0_EBIRST_Pos)       /*!< EBI reset is one of the SYS_ResetM
  38:src/sys.h     **** #define SDH0_RST    ((0x0<<24)|SYS_IPRST0_SDH0RST_Pos)      /*!< SDH0 reset is one of the SYS_Reset
  39:src/sys.h     **** #define CRC_RST     ((0x0<<24)|SYS_IPRST0_CRCRST_Pos)       /*!< CRC reset is one of the SYS_ResetM
  40:src/sys.h     **** #define CRYPTO_RST  ((0x0<<24)|SYS_IPRST0_CRYPTORST_Pos)    /*!< CRYPTO reset is one of the SYS_Res
  41:src/sys.h     **** #define SDH1_RST    ((0x0<<24)|SYS_IPRST0_SDH1RST_Pos)      /*!< SDH1 reset is one of the SYS_Reset
  42:src/sys.h     **** #define PDMA1_RST   ((0x0<<24)|SYS_IPRST0_PDMA1RST_Pos)     /*!< PDMA1 reset is one of the SYS_Rese
  43:src/sys.h     **** 
  44:src/sys.h     **** #define GPIO_RST    ((0x4<<24)|SYS_IPRST1_GPIORST_Pos)      /*!< GPIO reset is one of the SYS_Reset
  45:src/sys.h     **** #define TMR0_RST    ((0x4<<24)|SYS_IPRST1_TMR0RST_Pos)      /*!< TMR0 reset is one of the SYS_Reset
  46:src/sys.h     **** #define TMR1_RST    ((0x4<<24)|SYS_IPRST1_TMR1RST_Pos)      /*!< TMR1 reset is one of the SYS_Reset
  47:src/sys.h     **** #define TMR2_RST    ((0x4<<24)|SYS_IPRST1_TMR2RST_Pos)      /*!< TMR2 reset is one of the SYS_Reset
  48:src/sys.h     **** #define TMR3_RST    ((0x4<<24)|SYS_IPRST1_TMR3RST_Pos)      /*!< TMR3 reset is one of the SYS_Reset
  49:src/sys.h     **** #define SPI4_RST    ((0x4<<24)|SYS_IPRST1_SPI4RST_Pos)      /*!< SPI4 reset is one of the SYS_Reset
  50:src/sys.h     **** #define ACMP01_RST  ((0x4<<24)|SYS_IPRST1_ACMP01RST_Pos)    /*!< ACMP01 reset is one of the SYS_Res
  51:src/sys.h     **** #define I2C0_RST    ((0x4<<24)|SYS_IPRST1_I2C0RST_Pos)      /*!< I2C0 reset is one of the SYS_Reset
  52:src/sys.h     **** #define I2C1_RST    ((0x4<<24)|SYS_IPRST1_I2C1RST_Pos)      /*!< I2C1 reset is one of the SYS_Reset
  53:src/sys.h     **** #define I2C2_RST    ((0x4<<24)|SYS_IPRST1_I2C2RST_Pos)      /*!< I2C2 reset is one of the SYS_Reset
  54:src/sys.h     **** #define SPI0_RST    ((0x4<<24)|SYS_IPRST1_SPI0RST_Pos)      /*!< SPI0 reset is one of the SYS_Reset
  55:src/sys.h     **** #define SPI1_RST    ((0x4<<24)|SYS_IPRST1_SPI1RST_Pos)      /*!< SPI1 reset is one of the SYS_Reset
  56:src/sys.h     **** #define SPI2_RST    ((0x4<<24)|SYS_IPRST1_SPI2RST_Pos)      /*!< SPI2 reset is one of the SYS_Reset
  57:src/sys.h     **** #define SPI3_RST    ((0x4<<24)|SYS_IPRST1_SPI3RST_Pos)      /*!< SPI3 reset is one of the SYS_Reset
  58:src/sys.h     **** #define UART0_RST   ((0x4<<24)|SYS_IPRST1_UART0RST_Pos)     /*!< UART0 reset is one of the SYS_Rese
ARM GAS  C:\Users\CCMA\AppData\Local\Temp\ccBCHRX5.s 			page 19


  59:src/sys.h     **** #define UART1_RST   ((0x4<<24)|SYS_IPRST1_UART1RST_Pos)     /*!< UART1 reset is one of the SYS_Rese
  60:src/sys.h     **** #define UART2_RST   ((0x4<<24)|SYS_IPRST1_UART2RST_Pos)     /*!< UART2 reset is one of the SYS_Rese
  61:src/sys.h     **** #define UART3_RST   ((0x4<<24)|SYS_IPRST1_UART3RST_Pos)     /*!< UART3 reset is one of the SYS_Rese
  62:src/sys.h     **** #define UART4_RST   ((0x4<<24)|SYS_IPRST1_UART4RST_Pos)     /*!< UART4 reset is one of the SYS_Rese
  63:src/sys.h     **** #define UART5_RST   ((0x4<<24)|SYS_IPRST1_UART5RST_Pos)     /*!< UART5 reset is one of the SYS_Rese
  64:src/sys.h     **** #define SPI5_RST    ((0x4<<24)|SYS_IPRST1_SPI5RST_Pos)      /*!< SPI5 reset is one of the SYS_Reset
  65:src/sys.h     **** #define CAN0_RST    ((0x4<<24)|SYS_IPRST1_CAN0RST_Pos)      /*!< SCAN0 reset is one of the SYS_Rese
  66:src/sys.h     **** #define USBD_RST    ((0x4<<24)|SYS_IPRST1_USBDRST_Pos)      /*!< USBD reset is one of the SYS_Reset
  67:src/sys.h     **** #define EADC_RST    ((0x4<<24)|SYS_IPRST1_EADCRST_Pos)      /*!< EADC reset is one of the SYS_Reset
  68:src/sys.h     **** #define I2S0_RST    ((0x4<<24)|SYS_IPRST1_I2S0RST_Pos)      /*!< I2S0 reset is one of the SYS_Reset
  69:src/sys.h     **** 
  70:src/sys.h     **** #define SC0_RST     ((0x8<<24)|SYS_IPRST2_SC0RST_Pos)       /*!< SC0 reset is one of the SYS_ResetM
  71:src/sys.h     **** #define SC1_RST     ((0x8<<24)|SYS_IPRST2_SC1RST_Pos)       /*!< SC1 reset is one of the SYS_ResetM
  72:src/sys.h     **** #define SC2_RST     ((0x8<<24)|SYS_IPRST2_SC1RST_Pos)       /*!< SC2 reset is one of the SYS_ResetM
  73:src/sys.h     **** //#define SPI4_RST    ((0x8<<24)|SYS_IPRST2_SPI4RST_Pos)      /*!< SPI4 reset is one of the SYS_Res
  74:src/sys.h     **** #define USCI0_RST   ((0x8<<24)|SYS_IPRST2_USCI0RST_Pos)     /*!< USCI0 reset is one of the SYS_Rese
  75:src/sys.h     **** #define USCI1_RST   ((0x8<<24)|SYS_IPRST2_USCI1RST_Pos)     /*!< USCI1 reset is one of the SYS_Rese
  76:src/sys.h     **** #define PWM0_RST    ((0x8<<24)|SYS_IPRST2_PWM0RST_Pos)      /*!< PWM0 reset is one of the SYS_Reset
  77:src/sys.h     **** #define PWM1_RST    ((0x8<<24)|SYS_IPRST2_PWM1RST_Pos)      /*!< PWM1 reset is one of the SYS_Reset
  78:src/sys.h     **** #define BPWM0_RST   ((0x8<<24)|SYS_IPRST2_BPWM0RST_Pos)     /*!< BPWM0 reset is one of the SYS_Rese
  79:src/sys.h     **** #define BPWM1_RST   ((0x8<<24)|SYS_IPRST2_BPWM1RST_Pos)     /*!< BPWM1 reset is one of the SYS_Rese
  80:src/sys.h     **** #define QEI0_RST    ((0x8<<24)|SYS_IPRST2_QEI0RST_Pos)      /*!< QEI0 reset is one of the SYS_Reset
  81:src/sys.h     **** #define QEI1_RST    ((0x8<<24)|SYS_IPRST2_QEI1RST_Pos)      /*!< QEI1 reset is one of the SYS_Reset
  82:src/sys.h     **** #define ECAP0_RST   ((0x8<<24)|SYS_IPRST2_ECAP0RST_Pos)     /*!< ECAP0 reset is one of the SYS_Rese
  83:src/sys.h     **** #define ECAP1_RST   ((0x8<<24)|SYS_IPRST2_ECAP1RST_Pos)     /*!< ECAP1 reset is one of the SYS_Rese
  84:src/sys.h     **** #define OPA_RST     ((0x8<<24)|SYS_IPRST2_OPA1RST_Pos)      /*!< OPA reset is one of the SYS_ResetM
  85:src/sys.h     **** 
  86:src/sys.h     **** 
  87:src/sys.h     **** /*-------------------------------------------------------------------------------------------------
  88:src/sys.h     **** /*  Brown Out Detector Threshold Voltage Selection constant definitions.                           
  89:src/sys.h     **** /*-------------------------------------------------------------------------------------------------
  90:src/sys.h     **** #define SYS_BODCTL_BOD_RST_EN           (1UL<<SYS_BODCTL_BODRSTEN_Pos)    /*!< Brown-out Reset Enab
  91:src/sys.h     **** #define SYS_BODCTL_BOD_INTERRUPT_EN     (0UL<<SYS_BODCTL_BODRSTEN_Pos)    /*!< Brown-out Interrupt 
  92:src/sys.h     **** #define SYS_BODCTL_BODVL_3_0V           (7UL<<SYS_BODCTL_BODVL_Pos)       /*!< Setting Brown Out De
  93:src/sys.h     **** #define SYS_BODCTL_BODVL_2_8V           (6UL<<SYS_BODCTL_BODVL_Pos)       /*!< Setting Brown Out De
  94:src/sys.h     **** #define SYS_BODCTL_BODVL_2_6V           (5UL<<SYS_BODCTL_BODVL_Pos)       /*!< Setting Brown Out De
  95:src/sys.h     **** #define SYS_BODCTL_BODVL_2_4V           (4UL<<SYS_BODCTL_BODVL_Pos)       /*!< Setting Brown Out De
  96:src/sys.h     **** #define SYS_BODCTL_BODVL_2_2V           (3UL<<SYS_BODCTL_BODVL_Pos)       /*!< Setting Brown Out De
  97:src/sys.h     **** #define SYS_BODCTL_BODVL_2_0V           (2UL<<SYS_BODCTL_BODVL_Pos)       /*!< Setting Brown Out De
  98:src/sys.h     **** #define SYS_BODCTL_BODVL_1_8V           (1UL<<SYS_BODCTL_BODVL_Pos)       /*!< Setting Brown Out De
  99:src/sys.h     **** #define SYS_BODCTL_BODVL_1_6V           (0UL<<SYS_BODCTL_BODVL_Pos)       /*!< Setting Brown Out De
 100:src/sys.h     **** 
 101:src/sys.h     **** 
 102:src/sys.h     **** /*-------------------------------------------------------------------------------------------------
 103:src/sys.h     **** /*  VREFCTL constant definitions. (Write-Protection Register)                                      
 104:src/sys.h     **** /*-------------------------------------------------------------------------------------------------
 105:src/sys.h     **** #define SYS_VREFCTL_VREF_PIN        (0x0UL<<SYS_VREFCTL_VREFCTL_Pos)    /*!< Vref = Vref pin */
 106:src/sys.h     **** #define SYS_VREFCTL_VREF_1_6V       (0x3UL<<SYS_VREFCTL_VREFCTL_Pos)    /*!< Vref = 1.6V */
 107:src/sys.h     **** #define SYS_VREFCTL_VREF_2_0V       (0x7UL<<SYS_VREFCTL_VREFCTL_Pos)    /*!< Vref = 2.0V */
 108:src/sys.h     **** #define SYS_VREFCTL_VREF_2_5V       (0xBUL<<SYS_VREFCTL_VREFCTL_Pos)    /*!< Vref = 2.5V */
 109:src/sys.h     **** #define SYS_VREFCTL_VREF_3_0V       (0xFUL<<SYS_VREFCTL_VREFCTL_Pos)    /*!< Vref = 3.0V */
 110:src/sys.h     **** #define SYS_VREFCTL_VREF_AVDD       (0x10UL<<SYS_VREFCTL_VREFCTL_Pos)   /*!< Vref = AVDD */
 111:src/sys.h     **** 
 112:src/sys.h     **** 
 113:src/sys.h     **** /*-------------------------------------------------------------------------------------------------
 114:src/sys.h     **** /*  USBPHY constant definitions. (Write-Protection Register)                                       
 115:src/sys.h     **** /*-------------------------------------------------------------------------------------------------
ARM GAS  C:\Users\CCMA\AppData\Local\Temp\ccBCHRX5.s 			page 20


 116:src/sys.h     **** #define SYS_USBPHY_USBROLE_STD_USBD   (0x0UL<<SYS_USBPHY_USBROLE_Pos)   /*!< Standard USB device */
 117:src/sys.h     **** #define SYS_USBPHY_USBROLE_STD_USBH   (0x1UL<<SYS_USBPHY_USBROLE_Pos)   /*!< Standard USB host */
 118:src/sys.h     **** #define SYS_USBPHY_USBROLE_ID_DEPH    (0x2UL<<SYS_USBPHY_USBROLE_Pos)   /*!< ID dependent device */
 119:src/sys.h     **** 
 120:src/sys.h     **** 
 121:src/sys.h     **** /*-------------------------------------------------------------------------------------------------
 122:src/sys.h     **** /*  Multi-Function constant definitions.                                                           
 123:src/sys.h     **** /*-------------------------------------------------------------------------------------------------
 124:src/sys.h     **** 
 125:src/sys.h     **** /* How to use below #define?
 126:src/sys.h     **** 
 127:src/sys.h     **** Example: If user want to set PA.2 as UART0_TXD and PA.3 as UART0_RXD in initial function,
 128:src/sys.h     ****          user can issue following command to achieve it.
 129:src/sys.h     **** 
 130:src/sys.h     ****          SYS->GPA_MFPL = (SYS->GPA_MFPL & (~SYS_GPA_MFPL_PA2MFP_Msk)) | SYS_GPA_MFPL_PA2MFP_UART0_T
 131:src/sys.h     ****          SYS->GPA_MFPL = (SYS->GPA_MFPL & (~SYS_GPA_MFPL_PA3MFP_Msk)) | SYS_GPA_MFPL_PA3MFP_UART0_R
 132:src/sys.h     **** */
 133:src/sys.h     **** 
 134:src/sys.h     **** //PA.0 MFP
 135:src/sys.h     **** #define SYS_GPA_MFPL_PA0MFP_GPIO            (0x0UL<<SYS_GPA_MFPL_PA0MFP_Pos)    /*!< GPA_MFPL PA0 s
 136:src/sys.h     **** #define SYS_GPA_MFPL_PA0MFP_UART1_nCTS      (0x1UL<<SYS_GPA_MFPL_PA0MFP_Pos)    /*!< GPA_MFPL PA0 s
 137:src/sys.h     **** #define SYS_GPA_MFPL_PA0MFP_I2C2_SCL        (0x2UL<<SYS_GPA_MFPL_PA0MFP_Pos)    /*!< GPA_MFPL PA0 s
 138:src/sys.h     **** #define SYS_GPA_MFPL_PA0MFP_UART1_TXD       (0x3UL<<SYS_GPA_MFPL_PA0MFP_Pos)    /*!< GPA_MFPL PA0 s
 139:src/sys.h     **** #define SYS_GPA_MFPL_PA0MFP_CAN0_RXD        (0x4UL<<SYS_GPA_MFPL_PA0MFP_Pos)    /*!< GPA_MFPL PA0 s
 140:src/sys.h     **** #define SYS_GPA_MFPL_PA0MFP_SC0_CLK         (0x5UL<<SYS_GPA_MFPL_PA0MFP_Pos)    /*!< GPA_MFPL PA0 s
 141:src/sys.h     **** #define SYS_GPA_MFPL_PA0MFP_PWM1_CH5        (0x6UL<<SYS_GPA_MFPL_PA0MFP_Pos)    /*!< GPA_MFPL PA0 s
 142:src/sys.h     **** #define SYS_GPA_MFPL_PA0MFP_EBI_AD0         (0x7UL<<SYS_GPA_MFPL_PA0MFP_Pos)    /*!< GPA_MFPL PA0 s
 143:src/sys.h     **** #define SYS_GPA_MFPL_PA0MFP_INT0            (0x8UL<<SYS_GPA_MFPL_PA0MFP_Pos)    /*!< GPA_MFPL PA0 s
 144:src/sys.h     **** #define SYS_GPA_MFPL_PA0MFP_SPI3_MISO       (0x9UL<<SYS_GPA_MFPL_PA0MFP_Pos)    /*!< GPA_MFPL PA0 s
 145:src/sys.h     **** #define SYS_GPA_MFPL_PA0MFP_SPI1_I2SMCLK    (0xAUL<<SYS_GPA_MFPL_PA0MFP_Pos)    /*!< GPA_MFPL PA0 s
 146:src/sys.h     **** #define SYS_GPA_MFPL_PA0MFP_USCI1_CTL0      (0xCUL<<SYS_GPA_MFPL_PA0MFP_Pos)    /*!< GPA_MFPL PA0 s
 147:src/sys.h     **** #define SYS_GPA_MFPL_PA0MFP_USB_VBUS_EN     (0xDUL<<SYS_GPA_MFPL_PA0MFP_Pos)    /*!< GPA_MFPL PA0 s
 148:src/sys.h     **** #define SYS_GPA_MFPL_PA0MFP_SPI5_MISO       (0xFUL<<SYS_GPA_MFPL_PA0MFP_Pos)    /*!< GPA_MFPL PA0 s
 149:src/sys.h     **** #define SYS_GPA_MFPL_PA0MFP_ECAP0_IC0       (0xEUL<<SYS_GPA_MFPL_PA0MFP_Pos)    /*!< GPA_MFPL PA0 s
 150:src/sys.h     **** 
 151:src/sys.h     **** //PA.1 MFP
 152:src/sys.h     **** #define SYS_GPA_MFPL_PA1MFP_GPIO            (0x0UL<<SYS_GPA_MFPL_PA1MFP_Pos)    /*!< GPA_MFPL PA1 s
 153:src/sys.h     **** #define SYS_GPA_MFPL_PA1MFP_UART1_nRTS      (0x1UL<<SYS_GPA_MFPL_PA1MFP_Pos)    /*!< GPA_MFPL PA1 s
 154:src/sys.h     **** #define SYS_GPA_MFPL_PA1MFP_I2C2_SDA        (0x2UL<<SYS_GPA_MFPL_PA1MFP_Pos)    /*!< GPA_MFPL PA1 s
 155:src/sys.h     **** #define SYS_GPA_MFPL_PA1MFP_UART1_RXD       (0x3UL<<SYS_GPA_MFPL_PA1MFP_Pos)    /*!< GPA_MFPL PA1 s
 156:src/sys.h     **** #define SYS_GPA_MFPL_PA1MFP_CAN0_TXD        (0x4UL<<SYS_GPA_MFPL_PA1MFP_Pos)    /*!< GPA_MFPL PA1 s
 157:src/sys.h     **** #define SYS_GPA_MFPL_PA1MFP_SC0_DAT         (0x5UL<<SYS_GPA_MFPL_PA1MFP_Pos)    /*!< GPA_MFPL PA1 s
 158:src/sys.h     **** #define SYS_GPA_MFPL_PA1MFP_PWM1_CH4        (0x6UL<<SYS_GPA_MFPL_PA1MFP_Pos)    /*!< GPA_MFPL PA1 s
 159:src/sys.h     **** #define SYS_GPA_MFPL_PA1MFP_EBI_AD1         (0x7UL<<SYS_GPA_MFPL_PA1MFP_Pos)    /*!< GPA_MFPL PA1 s
 160:src/sys.h     **** #define SYS_GPA_MFPL_PA1MFP_SPI3_CLK        (0x9UL<<SYS_GPA_MFPL_PA1MFP_Pos)    /*!< GPA_MFPL PA1 s
 161:src/sys.h     **** #define SYS_GPA_MFPL_PA1MFP_EADC0_ST        (0xAUL<<SYS_GPA_MFPL_PA1MFP_Pos)    /*!< GPA_MFPL PA1 s
 162:src/sys.h     **** #define SYS_GPA_MFPL_PA1MFP_LCD_DH2         (0xBUL<<SYS_GPA_MFPL_PA1MFP_Pos)    /*!< GPA_MFPL PA1 s
 163:src/sys.h     **** #define SYS_GPA_MFPL_PA1MFP_USCI1_DAT1      (0xCUL<<SYS_GPA_MFPL_PA1MFP_Pos)    /*!< GPA_MFPL PA1 s
 164:src/sys.h     **** #define SYS_GPA_MFPL_PA1MFP_ECAP0_IC1       (0xEUL<<SYS_GPA_MFPL_PA1MFP_Pos)    /*!< GPA_MFPL PA1 s
 165:src/sys.h     **** #define SYS_GPA_MFPL_PA1MFP_SPI5_MOSI       (0xFUL<<SYS_GPA_MFPL_PA1MFP_Pos)    /*!< GPA_MFPL PA1 s
 166:src/sys.h     **** 
 167:src/sys.h     **** //PA.2 MFP
 168:src/sys.h     **** #define SYS_GPA_MFPL_PA2MFP_GPIO            (0x0UL<<SYS_GPA_MFPL_PA2MFP_Pos)    /*!< GPA_MFPL PA2 s
 169:src/sys.h     **** #define SYS_GPA_MFPL_PA2MFP_UART0_TXD       (0x2UL<<SYS_GPA_MFPL_PA2MFP_Pos)    /*!< GPA_MFPL PA2 s
 170:src/sys.h     **** #define SYS_GPA_MFPL_PA2MFP_UART0_nCTS      (0x3UL<<SYS_GPA_MFPL_PA2MFP_Pos)    /*!< GPA_MFPL PA2 s
 171:src/sys.h     **** #define SYS_GPA_MFPL_PA2MFP_I2C0_SDA        (0x4UL<<SYS_GPA_MFPL_PA2MFP_Pos)    /*!< GPA_MFPL PA2 s
 172:src/sys.h     **** #define SYS_GPA_MFPL_PA2MFP_SC0_RST         (0x5UL<<SYS_GPA_MFPL_PA2MFP_Pos)    /*!< GPA_MFPL PA2 s
ARM GAS  C:\Users\CCMA\AppData\Local\Temp\ccBCHRX5.s 			page 21


 173:src/sys.h     **** #define SYS_GPA_MFPL_PA2MFP_PWM1_CH3        (0x6UL<<SYS_GPA_MFPL_PA2MFP_Pos)    /*!< GPA_MFPL PA2 s
 174:src/sys.h     **** #define SYS_GPA_MFPL_PA2MFP_EBI_AD2         (0x7UL<<SYS_GPA_MFPL_PA2MFP_Pos)    /*!< GPA_MFPL PA2 s
 175:src/sys.h     **** #define SYS_GPA_MFPL_PA2MFP_I2S0_MCLK       (0x8UL<<SYS_GPA_MFPL_PA2MFP_Pos)    /*!< GPA_MFPL PA2 s
 176:src/sys.h     **** #define SYS_GPA_MFPL_PA2MFP_SPI3_SS         (0x9UL<<SYS_GPA_MFPL_PA2MFP_Pos)    /*!< GPA_MFPL PA2 s
 177:src/sys.h     **** #define SYS_GPA_MFPL_PA2MFP_LCD_DH1         (0xBUL<<SYS_GPA_MFPL_PA2MFP_Pos)    /*!< GPA_MFPL PA2 s
 178:src/sys.h     **** #define SYS_GPA_MFPL_PA2MFP_USCI1_DAT0      (0xCUL<<SYS_GPA_MFPL_PA2MFP_Pos)    /*!< GPA_MFPL PA2 s
 179:src/sys.h     **** #define SYS_GPA_MFPL_PA2MFP_BPWM1_CH3       (0xDUL<<SYS_GPA_MFPL_PA2MFP_Pos)    /*!< GPA_MFPL PA2 s
 180:src/sys.h     **** #define SYS_GPA_MFPL_PA2MFP_ECAP0_IC2       (0xEUL<<SYS_GPA_MFPL_PA2MFP_Pos)    /*!< GPA_MFPL PA2 s
 181:src/sys.h     **** #define SYS_GPA_MFPL_PA2MFP_SPI5_SS         (0xFUL<<SYS_GPA_MFPL_PA2MFP_Pos)    /*!< GPA_MFPL PA2 s
 182:src/sys.h     **** 
 183:src/sys.h     **** //PA.3 MFP
 184:src/sys.h     **** #define SYS_GPA_MFPL_PA3MFP_GPIO            (0x0UL<<SYS_GPA_MFPL_PA3MFP_Pos)    /*!< GPA_MFPL PA3 s
 185:src/sys.h     **** #define SYS_GPA_MFPL_PA3MFP_UART0_RXD       (0x2UL<<SYS_GPA_MFPL_PA3MFP_Pos)    /*!< GPA_MFPL PA3 s
 186:src/sys.h     **** #define SYS_GPA_MFPL_PA3MFP_UART0_nRTS      (0x3UL<<SYS_GPA_MFPL_PA3MFP_Pos)    /*!< GPA_MFPL PA3 s
 187:src/sys.h     **** #define SYS_GPA_MFPL_PA3MFP_I2C0_SCL        (0x4UL<<SYS_GPA_MFPL_PA3MFP_Pos)    /*!< GPA_MFPL PA3 s
 188:src/sys.h     **** #define SYS_GPA_MFPL_PA3MFP_SC0_PWR         (0x5UL<<SYS_GPA_MFPL_PA3MFP_Pos)    /*!< GPA_MFPL PA3 s
 189:src/sys.h     **** #define SYS_GPA_MFPL_PA3MFP_PWM1_CH2        (0x6UL<<SYS_GPA_MFPL_PA3MFP_Pos)    /*!< GPA_MFPL PA3 s
 190:src/sys.h     **** #define SYS_GPA_MFPL_PA3MFP_EBI_AD3         (0x7UL<<SYS_GPA_MFPL_PA3MFP_Pos)    /*!< GPA_MFPL PA3 s
 191:src/sys.h     **** #define SYS_GPA_MFPL_PA3MFP_SPI3_MOSI       (0x9UL<<SYS_GPA_MFPL_PA3MFP_Pos)    /*!< GPA_MFPL PA3 s
 192:src/sys.h     **** #define SYS_GPA_MFPL_PA3MFP_USCI1_CLK       (0xCUL<<SYS_GPA_MFPL_PA3MFP_Pos)    /*!< GPA_MFPL PA3 s
 193:src/sys.h     **** #define SYS_GPA_MFPL_PA3MFP_BPWM1_CH2       (0xDUL<<SYS_GPA_MFPL_PA3MFP_Pos)    /*!< GPA_MFPL PA3 s
 194:src/sys.h     **** #define SYS_GPA_MFPL_PA3MFP_SPI5_CLK        (0xFUL<<SYS_GPA_MFPL_PA3MFP_Pos)    /*!< GPA_MFPL PA3 s
 195:src/sys.h     **** 
 196:src/sys.h     **** //PA.4 MFP
 197:src/sys.h     **** #define SYS_GPA_MFPL_PA4MFP_GPIO            (0x0UL<<SYS_GPA_MFPL_PA4MFP_Pos)    /*!< GPA_MFPL PA4 s
 198:src/sys.h     **** #define SYS_GPA_MFPL_PA4MFP_SPI1_SS         (0x2UL<<SYS_GPA_MFPL_PA4MFP_Pos)    /*!< GPA_MFPL PA4 s
 199:src/sys.h     **** #define SYS_GPA_MFPL_PA4MFP_EBI_AD4         (0x7UL<<SYS_GPA_MFPL_PA4MFP_Pos)    /*!< GPA_MFPL PA4 s
 200:src/sys.h     **** #define SYS_GPA_MFPL_PA4MFP_ECAP1_IC0       (0xEUL<<SYS_GPA_MFPL_PA4MFP_Pos)    /*!< GPA_MFPL PA4 s
 201:src/sys.h     **** #define SYS_GPA_MFPL_PA4MFP_LCD_SEG29       (0xFUL<<SYS_GPA_MFPL_PA4MFP_Pos)    /*!< GPA_MFPL PA4 s
 202:src/sys.h     **** 
 203:src/sys.h     **** //PA.5 MFP
 204:src/sys.h     **** #define SYS_GPA_MFPL_PA5MFP_GPIO            (0x0UL<<SYS_GPA_MFPL_PA5MFP_Pos)    /*!< GPA_MFPL PA5 s
 205:src/sys.h     **** #define SYS_GPA_MFPL_PA5MFP_SPI1_MOSI       (0x2UL<<SYS_GPA_MFPL_PA5MFP_Pos)    /*!< GPA_MFPL PA5 s
 206:src/sys.h     **** #define SYS_GPA_MFPL_PA5MFP_TM2_EXT         (0x3UL<<SYS_GPA_MFPL_PA5MFP_Pos)    /*!< GPA_MFPL PA5 s
 207:src/sys.h     **** #define SYS_GPA_MFPL_PA5MFP_EBI_AD5         (0x7UL<<SYS_GPA_MFPL_PA5MFP_Pos)    /*!< GPA_MFPL PA5 s
 208:src/sys.h     **** #define SYS_GPA_MFPL_PA5MFP_ECAP1_IC1       (0xEUL<<SYS_GPA_MFPL_PA5MFP_Pos)    /*!< GPA_MFPL PA5 s
 209:src/sys.h     **** #define SYS_GPA_MFPL_PA5MFP_LCD_COM7_SEG43  (0xFUL<<SYS_GPA_MFPL_PA5MFP_Pos)    /*!< GPA_MFPL PA5 s
 210:src/sys.h     **** 
 211:src/sys.h     **** //PA.6 MFP
 212:src/sys.h     **** #define SYS_GPA_MFPL_PA6MFP_GPIO            (0x0UL<<SYS_GPA_MFPL_PA6MFP_Pos)    /*!< GPA_MFPL PA6 s
 213:src/sys.h     **** #define SYS_GPA_MFPL_PA6MFP_SPI1_MISO       (0x2UL<<SYS_GPA_MFPL_PA6MFP_Pos)    /*!< GPA_MFPL PA6 s
 214:src/sys.h     **** #define SYS_GPA_MFPL_PA6MFP_TM1_EXT         (0x3UL<<SYS_GPA_MFPL_PA6MFP_Pos)    /*!< GPA_MFPL PA6 s
 215:src/sys.h     **** #define SYS_GPA_MFPL_PA6MFP_EBI_AD6         (0x7UL<<SYS_GPA_MFPL_PA6MFP_Pos)    /*!< GPA_MFPL PA6 s
 216:src/sys.h     **** #define SYS_GPA_MFPL_PA6MFP_ECAP1_IC2       (0xEUL<<SYS_GPA_MFPL_PA6MFP_Pos)    /*!< GPA_MFPL PA6 s
 217:src/sys.h     **** #define SYS_GPA_MFPL_PA6MFP_LCD_COM6_SEG42  (0xFUL<<SYS_GPA_MFPL_PA6MFP_Pos)    /*!< GPA_MFPL PA6 s
 218:src/sys.h     **** 
 219:src/sys.h     **** //PA.7 MFP
 220:src/sys.h     **** #define SYS_GPA_MFPL_PA7MFP_GPIO            (0x0UL<<SYS_GPA_MFPL_PA7MFP_Pos)    /*!< GPA_MFPL PA7 s
 221:src/sys.h     **** #define SYS_GPA_MFPL_PA7MFP_SPI1_CLK        (0x2UL<<SYS_GPA_MFPL_PA7MFP_Pos)    /*!< GPA_MFPL PA7 s
 222:src/sys.h     **** #define SYS_GPA_MFPL_PA7MFP_TM0_EXT         (0x3UL<<SYS_GPA_MFPL_PA7MFP_Pos)    /*!< GPA_MFPL PA7 s
 223:src/sys.h     **** #define SYS_GPA_MFPL_PA7MFP_EBI_AD7         (0x7UL<<SYS_GPA_MFPL_PA7MFP_Pos)    /*!< GPA_MFPL PA7 s
 224:src/sys.h     **** #define SYS_GPA_MFPL_PA7MFP_DSRC_WAKEUP     (0xCUL<<SYS_GPA_MFPL_PA7MFP_Pos)    /*!< GPA_MFPL PA7 s
 225:src/sys.h     **** #define SYS_GPA_MFPL_PA7MFP_LCD_COM5_SEG41  (0xFUL<<SYS_GPA_MFPL_PA7MFP_Pos)    /*!< GPA_MFPL PA7 s
 226:src/sys.h     **** 
 227:src/sys.h     **** //PA.8 MFP
 228:src/sys.h     **** #define SYS_GPA_MFPH_PA8MFP_GPIO            (0x0UL<<SYS_GPA_MFPH_PA8MFP_Pos)    /*!< GPA_MFPH PA8 s
 229:src/sys.h     **** #define SYS_GPA_MFPH_PA8MFP_UART3_TXD       (0x3UL<<SYS_GPA_MFPH_PA8MFP_Pos)    /*!< GPA_MFPH PA8 s
ARM GAS  C:\Users\CCMA\AppData\Local\Temp\ccBCHRX5.s 			page 22


 230:src/sys.h     **** #define SYS_GPA_MFPH_PA8MFP_SD1_CLK         (0xBUL<<SYS_GPA_MFPH_PA8MFP_Pos)    /*!< GPA_MFPH PA8 s
 231:src/sys.h     **** #define SYS_GPA_MFPH_PA8MFP_DSRC_TXON       (0xCUL<<SYS_GPA_MFPH_PA8MFP_Pos)    /*!< GPA_MFPH PA8 s
 232:src/sys.h     **** #define SYS_GPA_MFPH_PA8MFP_LCD_COM0        (0xFUL<<SYS_GPA_MFPH_PA8MFP_Pos)    /*!< GPA_MFPH PA8 s
 233:src/sys.h     **** 
 234:src/sys.h     **** //PA.9 MFP
 235:src/sys.h     **** #define SYS_GPA_MFPH_PA9MFP_GPIO            (0x0UL<<SYS_GPA_MFPH_PA9MFP_Pos)    /*!< GPA_MFPH PA9 s
 236:src/sys.h     **** #define SYS_GPA_MFPH_PA9MFP_UART3_RXD       (0x3UL<<SYS_GPA_MFPH_PA9MFP_Pos)    /*!< GPA_MFPH PA9 s
 237:src/sys.h     **** #define SYS_GPA_MFPH_PA9MFP_SD1_DAT3        (0xBUL<<SYS_GPA_MFPH_PA9MFP_Pos)    /*!< GPA_MFPH PA9 s
 238:src/sys.h     **** #define SYS_GPA_MFPH_PA9MFP_DSRC_RXON       (0xCUL<<SYS_GPA_MFPH_PA9MFP_Pos)    /*!< GPA_MFPH PA9 s
 239:src/sys.h     **** #define SYS_GPA_MFPH_PA9MFP_LCD_COM1        (0xFUL<<SYS_GPA_MFPH_PA9MFP_Pos)    /*!< GPA_MFPH PA9 s
 240:src/sys.h     **** 
 241:src/sys.h     **** //PA.10 MFP
 242:src/sys.h     **** #define SYS_GPA_MFPH_PA10MFP_GPIO           (0x0UL<<SYS_GPA_MFPH_PA10MFP_Pos)   /*!< GPA_MFPH PA10 
 243:src/sys.h     **** #define SYS_GPA_MFPH_PA10MFP_UART3_nCTS     (0x3UL<<SYS_GPA_MFPH_PA10MFP_Pos)   /*!< GPA_MFPH PA10 
 244:src/sys.h     **** #define SYS_GPA_MFPH_PA10MFP_SD1_DAT2       (0xBUL<<SYS_GPA_MFPH_PA10MFP_Pos)   /*!< GPA_MFPH PA10 
 245:src/sys.h     **** #define SYS_GPA_MFPH_PA10MFP_LCD_COM2       (0xFUL<<SYS_GPA_MFPH_PA10MFP_Pos)   /*!< GPA_MFPH PA10 
 246:src/sys.h     **** 
 247:src/sys.h     **** //PA.11 MFP
 248:src/sys.h     **** #define SYS_GPA_MFPH_PA11MFP_GPIO           (0x0UL<<SYS_GPA_MFPH_PA11MFP_Pos)   /*!< GPA_MFPH PA11 
 249:src/sys.h     **** #define SYS_GPA_MFPH_PA11MFP_UART3_nRTS     (0x3UL<<SYS_GPA_MFPH_PA11MFP_Pos)   /*!< GPA_MFPH PA11 
 250:src/sys.h     **** #define SYS_GPA_MFPH_PA11MFP_SD1_DAT1       (0xBUL<<SYS_GPA_MFPH_PA11MFP_Pos)   /*!< GPA_MFPH PA11 
 251:src/sys.h     **** #define SYS_GPA_MFPH_PA11MFP_LCD_COM3       (0xFUL<<SYS_GPA_MFPH_PA11MFP_Pos)   /*!< GPA_MFPH PA11 
 252:src/sys.h     **** 
 253:src/sys.h     **** //PA.12 MFP
 254:src/sys.h     **** #define SYS_GPA_MFPH_PA12MFP_GPIO           (0x0UL<<SYS_GPA_MFPH_PA12MFP_Pos)   /*!< GPA_MFPH PA12 
 255:src/sys.h     **** #define SYS_GPA_MFPH_PA12MFP_SPI1_I2SMCLK   (0x2UL<<SYS_GPA_MFPH_PA12MFP_Pos)   /*!< GPA_MFPH PA12 
 256:src/sys.h     **** #define SYS_GPA_MFPH_PA12MFP_UART2_RXD      (0x3UL<<SYS_GPA_MFPH_PA12MFP_Pos)   /*!< GPA_MFPH PA12 
 257:src/sys.h     **** #define SYS_GPA_MFPH_PA12MFP_CAN0_TXD       (0x4UL<<SYS_GPA_MFPH_PA12MFP_Pos)   /*!< GPA_MFPH PA12 
 258:src/sys.h     **** #define SYS_GPA_MFPH_PA12MFP_EBI_ADR8       (0x7UL<<SYS_GPA_MFPH_PA12MFP_Pos)   /*!< GPA_MFPH PA12 
 259:src/sys.h     **** #define SYS_GPA_MFPH_PA12MFP_I2S0_DO        (0x8UL<<SYS_GPA_MFPH_PA12MFP_Pos)   /*!< GPA_MFPH PA12 
 260:src/sys.h     **** #define SYS_GPA_MFPH_PA12MFP_SC2_PWR        (0x9UL<<SYS_GPA_MFPH_PA12MFP_Pos)   /*!< GPA_MFPH PA12 
 261:src/sys.h     **** #define SYS_GPA_MFPH_PA12MFP_SPI3_I2SMCLK   (0xAUL<<SYS_GPA_MFPH_PA12MFP_Pos)   /*!< GPA_MFPH PA12 
 262:src/sys.h     **** #define SYS_GPA_MFPH_PA12MFP_DSRC_WAKEUP    (0xCUL<<SYS_GPA_MFPH_PA12MFP_Pos)   /*!< GPA_MFPH PA12 
 263:src/sys.h     **** #define SYS_GPA_MFPH_PA12MFP_BPWM0_CH5      (0xDUL<<SYS_GPA_MFPH_PA12MFP_Pos)   /*!< GPA_MFPH PA12 
 264:src/sys.h     **** #define SYS_GPA_MFPH_PA12MFP_QEI1_INDEX     (0xEUL<<SYS_GPA_MFPH_PA12MFP_Pos)   /*!< GPA_MFPH PA12 
 265:src/sys.h     **** #define SYS_GPA_MFPH_PA12MFP_SPI2_I2SMCLK   (0xFUL<<SYS_GPA_MFPH_PA12MFP_Pos)   /*!< GPA_MFPH PA12 
 266:src/sys.h     **** 
 267:src/sys.h     **** //PA.13 MFP
 268:src/sys.h     **** #define SYS_GPA_MFPH_PA13MFP_GPIO           (0x0UL<<SYS_GPA_MFPH_PA13MFP_Pos)   /*!< GPA_MFPH PA13 
 269:src/sys.h     **** #define SYS_GPA_MFPH_PA13MFP_UART2_TXD      (0x3UL<<SYS_GPA_MFPH_PA13MFP_Pos)   /*!< GPA_MFPH PA13 
 270:src/sys.h     **** #define SYS_GPA_MFPH_PA13MFP_CAN0_RXD       (0x4UL<<SYS_GPA_MFPH_PA13MFP_Pos)   /*!< GPA_MFPH PA13 
 271:src/sys.h     **** #define SYS_GPA_MFPH_PA13MFP_EBI_ADR7       (0x7UL<<SYS_GPA_MFPH_PA13MFP_Pos)   /*!< GPA_MFPH PA13 
 272:src/sys.h     **** #define SYS_GPA_MFPH_PA13MFP_I2S0_DI        (0x8UL<<SYS_GPA_MFPH_PA13MFP_Pos)   /*!< GPA_MFPH PA13 
 273:src/sys.h     **** #define SYS_GPA_MFPH_PA13MFP_SC2_RST        (0x9UL<<SYS_GPA_MFPH_PA13MFP_Pos)   /*!< GPA_MFPH PA13 
 274:src/sys.h     **** #define SYS_GPA_MFPH_PA13MFP_SPI1_CLK       (0xAUL<<SYS_GPA_MFPH_PA13MFP_Pos)   /*!< GPA_MFPH PA13 
 275:src/sys.h     **** #define SYS_GPA_MFPH_PA13MFP_USB_VBUS_EN    (0xBUL<<SYS_GPA_MFPH_PA13MFP_Pos)   /*!< GPA_MFPH PA13 
 276:src/sys.h     **** #define SYS_GPA_MFPH_PA13MFP_QEI1_A         (0xEUL<<SYS_GPA_MFPH_PA13MFP_Pos)   /*!< GPA_MFPH PA13 
 277:src/sys.h     **** #define SYS_GPA_MFPH_PA13MFP_DSRC_TXON      (0xCUL<<SYS_GPA_MFPH_PA13MFP_Pos)   /*!< GPA_MFPH PA13 
 278:src/sys.h     **** #define SYS_GPA_MFPH_PA13MFP_LCD_V3         (0xFUL<<SYS_GPA_MFPH_PA13MFP_Pos)   /*!< GPA_MFPH PA13 
 279:src/sys.h     **** 
 280:src/sys.h     **** //PA.14 MFP
 281:src/sys.h     **** #define SYS_GPA_MFPH_PA14MFP_GPIO           (0x0UL<<SYS_GPA_MFPH_PA14MFP_Pos)   /*!< GPA_MFPH PA14 
 282:src/sys.h     **** #define SYS_GPA_MFPH_PA14MFP_UART2_nCTS     (0x3UL<<SYS_GPA_MFPH_PA14MFP_Pos)   /*!< GPA_MFPH PA14 
 283:src/sys.h     **** #define SYS_GPA_MFPH_PA14MFP_I2C0_SMBAL     (0x4UL<<SYS_GPA_MFPH_PA14MFP_Pos)   /*!< GPA_MFPH PA14 
 284:src/sys.h     **** #define SYS_GPA_MFPH_PA14MFP_EBI_ADR6       (0x7UL<<SYS_GPA_MFPH_PA14MFP_Pos)   /*!< GPA_MFPH PA14 
 285:src/sys.h     **** #define SYS_GPA_MFPH_PA14MFP_I2S0_BCLK      (0x8UL<<SYS_GPA_MFPH_PA14MFP_Pos)   /*!< GPA_MFPH PA14 
 286:src/sys.h     **** #define SYS_GPA_MFPH_PA14MFP_SC2_CLK        (0x9UL<<SYS_GPA_MFPH_PA14MFP_Pos)   /*!< GPA_MFPH PA14 
ARM GAS  C:\Users\CCMA\AppData\Local\Temp\ccBCHRX5.s 			page 23


 287:src/sys.h     **** #define SYS_GPA_MFPH_PA14MFP_SPI1_MISO      (0xAUL<<SYS_GPA_MFPH_PA14MFP_Pos)   /*!< GPA_MFPH PA14 
 288:src/sys.h     **** #define SYS_GPA_MFPH_PA14MFP_DSRC_RXON      (0xCUL<<SYS_GPA_MFPH_PA14MFP_Pos)   /*!< GPA_MFPH PA14 
 289:src/sys.h     **** #define SYS_GPA_MFPH_PA14MFP_QEI1_B         (0xEUL<<SYS_GPA_MFPH_PA14MFP_Pos)   /*!< GPA_MFPH PA14 
 290:src/sys.h     **** #define SYS_GPA_MFPH_PA14MFP_BPWM1_CH0      (0xDUL<<SYS_GPA_MFPH_PA14MFP_Pos)   /*!< GPA_MFPH PA14 
 291:src/sys.h     **** #define SYS_GPA_MFPH_PA14MFP_LCD_V2         (0xFUL<<SYS_GPA_MFPH_PA14MFP_Pos)   /*!< GPA_MFPH PA14 
 292:src/sys.h     **** 
 293:src/sys.h     **** //PA.15 MFP
 294:src/sys.h     **** #define SYS_GPA_MFPH_PA15MFP_GPIO           (0x0UL<<SYS_GPA_MFPH_PA15MFP_Pos)   /*!< GPA_MFPH PA15 
 295:src/sys.h     **** #define SYS_GPA_MFPH_PA15MFP_UART2_nRTS     (0x3UL<<SYS_GPA_MFPH_PA15MFP_Pos)   /*!< GPA_MFPH PA15 
 296:src/sys.h     **** #define SYS_GPA_MFPH_PA15MFP_I2C0_SMBSUS    (0x4UL<<SYS_GPA_MFPH_PA15MFP_Pos)   /*!< GPA_MFPH PA15 
 297:src/sys.h     **** #define SYS_GPA_MFPH_PA15MFP_PWM1_CH0       (0x6UL<<SYS_GPA_MFPH_PA15MFP_Pos)   /*!< GPA_MFPH PA15 
 298:src/sys.h     **** #define SYS_GPA_MFPH_PA15MFP_EBI_ADR5       (0x7UL<<SYS_GPA_MFPH_PA15MFP_Pos)   /*!< GPA_MFPH PA15 
 299:src/sys.h     **** #define SYS_GPA_MFPH_PA15MFP_I2S0_LRCK      (0x8UL<<SYS_GPA_MFPH_PA15MFP_Pos)   /*!< GPA_MFPH PA15 
 300:src/sys.h     **** #define SYS_GPA_MFPH_PA15MFP_SC2_DAT        (0x9UL<<SYS_GPA_MFPH_PA15MFP_Pos)   /*!< GPA_MFPH PA15 
 301:src/sys.h     **** #define SYS_GPA_MFPH_PA15MFP_SPI1_MOSI      (0xAUL<<SYS_GPA_MFPH_PA15MFP_Pos)   /*!< GPA_MFPH PA15 
 302:src/sys.h     **** #define SYS_GPA_MFPH_PA15MFP_BPWM1_CH1      (0xDUL<<SYS_GPA_MFPH_PA15MFP_Pos)   /*!< GPA_MFPH PA15 
 303:src/sys.h     **** #define SYS_GPA_MFPH_PA15MFP_LCD_V1         (0xFUL<<SYS_GPA_MFPH_PA15MFP_Pos)   /*!< GPA_MFPH PA15 
 304:src/sys.h     **** 
 305:src/sys.h     **** //PB.0 MFP
 306:src/sys.h     **** #define SYS_GPB_MFPL_PB0MFP_GPIO            (0x0UL<<SYS_GPB_MFPL_PB0MFP_Pos)    /*!< GPB_MFPL PB0 s
 307:src/sys.h     **** #define SYS_GPB_MFPL_PB0MFP_EADC0_CH0       (0x1UL<<SYS_GPB_MFPL_PB0MFP_Pos)    /*!< GPB_MFPL PB0 s
 308:src/sys.h     **** #define SYS_GPB_MFPL_PB0MFP_SPI0_MOSI1      (0x2UL<<SYS_GPB_MFPL_PB0MFP_Pos)    /*!< GPB_MFPL PB0 s
 309:src/sys.h     **** #define SYS_GPB_MFPL_PB0MFP_UART2_RXD       (0x3UL<<SYS_GPB_MFPL_PB0MFP_Pos)    /*!< GPB_MFPL PB0 s
 310:src/sys.h     **** #define SYS_GPB_MFPL_PB0MFP_TM2             (0x4UL<<SYS_GPB_MFPL_PB0MFP_Pos)    /*!< GPB_MFPL PB0 s
 311:src/sys.h     **** #define SYS_GPB_MFPL_PB0MFP_DAC0_OUT        (0x5UL<<SYS_GPB_MFPL_PB0MFP_Pos)    /*!< GPB_MFPL PB0 s
 312:src/sys.h     **** #define SYS_GPB_MFPL_PB0MFP_PWM1_CH5        (0x6UL<<SYS_GPB_MFPL_PB0MFP_Pos)    /*!< GPB_MFPL PB0 s
 313:src/sys.h     **** #define SYS_GPB_MFPL_PB0MFP_EBI_nWRL        (0x7UL<<SYS_GPB_MFPL_PB0MFP_Pos)    /*!< GPB_MFPL PB0 s
 314:src/sys.h     **** #define SYS_GPB_MFPL_PB0MFP_INT1            (0x8UL<<SYS_GPB_MFPL_PB0MFP_Pos)    /*!< GPB_MFPL PB0 s
 315:src/sys.h     **** #define SYS_GPB_MFPL_PB0MFP_I2C2_SDA        (0x9UL<<SYS_GPB_MFPL_PB0MFP_Pos)    /*!< GPB_MFPL PB0 s
 316:src/sys.h     **** #define SYS_GPB_MFPL_PB0MFP_SC1_RST         (0xAUL<<SYS_GPB_MFPL_PB0MFP_Pos)    /*!< GPB_MFPL PB0 s
 317:src/sys.h     **** #define SYS_GPB_MFPL_PB0MFP_SC0_DAT         (0xBUL<<SYS_GPB_MFPL_PB0MFP_Pos)    /*!< GPB_MFPL PB0 s
 318:src/sys.h     **** #define SYS_GPB_MFPL_PB0MFP_USCI1_CTL1      (0xCUL<<SYS_GPB_MFPL_PB0MFP_Pos)    /*!< GPB_MFPL PB0 s
 319:src/sys.h     **** #define SYS_GPB_MFPL_PB0MFP_DSRC_WAKEUP     (0xDUL<<SYS_GPB_MFPL_PB0MFP_Pos)    /*!< GPB_MFPL PB0 s
 320:src/sys.h     **** #define SYS_GPB_MFPL_PB0MFP_SPI1_SS         (0xEUL<<SYS_GPB_MFPL_PB0MFP_Pos)    /*!< GPB_MFPL PB0 s
 321:src/sys.h     **** 
 322:src/sys.h     **** //PB.1 MFP
 323:src/sys.h     **** #define SYS_GPB_MFPL_PB1MFP_GPIO            (0x0UL<<SYS_GPB_MFPL_PB1MFP_Pos)    /*!< GPB_MFPL PB1 s
 324:src/sys.h     **** #define SYS_GPB_MFPL_PB1MFP_EADC0_CH1       (0x1UL<<SYS_GPB_MFPL_PB1MFP_Pos)    /*!< GPB_MFPL PB1 s
 325:src/sys.h     **** #define SYS_GPB_MFPL_PB1MFP_SPI0_MISO1      (0x2UL<<SYS_GPB_MFPL_PB1MFP_Pos)    /*!< GPB_MFPL PB1 s
 326:src/sys.h     **** #define SYS_GPB_MFPL_PB1MFP_UART2_TXD       (0x3UL<<SYS_GPB_MFPL_PB1MFP_Pos)    /*!< GPB_MFPL PB1 s
 327:src/sys.h     **** #define SYS_GPB_MFPL_PB1MFP_TM3             (0x4UL<<SYS_GPB_MFPL_PB1MFP_Pos)    /*!< GPB_MFPL PB1 s
 328:src/sys.h     **** #define SYS_GPB_MFPL_PB1MFP_SC0_RST         (0x5UL<<SYS_GPB_MFPL_PB1MFP_Pos)    /*!< GPB_MFPL PB1 s
 329:src/sys.h     **** #define SYS_GPB_MFPL_PB1MFP_PWM0_SYNC_OUT   (0x6UL<<SYS_GPB_MFPL_PB1MFP_Pos)    /*!< GPB_MFPL PB1 s
 330:src/sys.h     **** #define SYS_GPB_MFPL_PB1MFP_EBI_nWRH        (0x7UL<<SYS_GPB_MFPL_PB1MFP_Pos)    /*!< GPB_MFPL PB1 s
 331:src/sys.h     **** #define SYS_GPB_MFPL_PB1MFP_DAC1_OUT        (0x8UL<<SYS_GPB_MFPL_PB1MFP_Pos)    /*!< GPB_MFPL PB1 s
 332:src/sys.h     **** #define SYS_GPB_MFPL_PB1MFP_I2C2_SCL        (0x9UL<<SYS_GPB_MFPL_PB1MFP_Pos)    /*!< GPB_MFPL PB1 s
 333:src/sys.h     **** #define SYS_GPB_MFPL_PB1MFP_SC1_PWR         (0xAUL<<SYS_GPB_MFPL_PB1MFP_Pos)    /*!< GPB_MFPL PB1 s
 334:src/sys.h     **** #define SYS_GPB_MFPL_PB1MFP_SC2_nCD         (0xBUL<<SYS_GPB_MFPL_PB1MFP_Pos)    /*!< GPB_MFPL PB1 s
 335:src/sys.h     **** #define SYS_GPB_MFPL_PB1MFP_USCI1_DAT1      (0xCUL<<SYS_GPB_MFPL_PB1MFP_Pos)    /*!< GPB_MFPL PB1 s
 336:src/sys.h     **** #define SYS_GPB_MFPL_PB1MFP_DSRC_TXON       (0xDUL<<SYS_GPB_MFPL_PB1MFP_Pos)    /*!< GPB_MFPL PB1 s
 337:src/sys.h     **** #define SYS_GPB_MFPL_PB1MFP_SPI1_MOSI       (0xEUL<<SYS_GPB_MFPL_PB1MFP_Pos)    /*!< GPB_MFPL PB1 s
 338:src/sys.h     **** 
 339:src/sys.h     **** //PB.2 MFP
 340:src/sys.h     **** #define SYS_GPB_MFPL_PB2MFP_GPIO            (0x0UL<<SYS_GPB_MFPL_PB2MFP_Pos)    /*!< GPB_MFPL PB2 s
 341:src/sys.h     **** #define SYS_GPB_MFPL_PB2MFP_EADC0_CH2       (0x1UL<<SYS_GPB_MFPL_PB2MFP_Pos)    /*!< GPB_MFPL PB2 s
 342:src/sys.h     **** #define SYS_GPB_MFPL_PB2MFP_SPI0_CLK        (0x2UL<<SYS_GPB_MFPL_PB2MFP_Pos)    /*!< GPB_MFPL PB2 s
 343:src/sys.h     **** #define SYS_GPB_MFPL_PB2MFP_SPI1_CLK        (0x3UL<<SYS_GPB_MFPL_PB2MFP_Pos)    /*!< GPB_MFPL PB2 s
ARM GAS  C:\Users\CCMA\AppData\Local\Temp\ccBCHRX5.s 			page 24


 344:src/sys.h     **** #define SYS_GPB_MFPL_PB2MFP_UART1_RXD       (0x4UL<<SYS_GPB_MFPL_PB2MFP_Pos)    /*!< GPB_MFPL PB2 s
 345:src/sys.h     **** #define SYS_GPB_MFPL_PB2MFP_SC0_nCD         (0x5UL<<SYS_GPB_MFPL_PB2MFP_Pos)    /*!< GPB_MFPL PB2 s
 346:src/sys.h     **** #define SYS_GPB_MFPL_PB2MFP_PWM1_CH4        (0x6UL<<SYS_GPB_MFPL_PB2MFP_Pos)    /*!< GPB_MFPL PB2 s
 347:src/sys.h     **** #define SYS_GPB_MFPL_PB2MFP_EBI_ADR16       (0x7UL<<SYS_GPB_MFPL_PB2MFP_Pos)    /*!< GPB_MFPL PB2 s
 348:src/sys.h     **** #define SYS_GPB_MFPL_PB2MFP_I2C2_SMBAL      (0x8UL<<SYS_GPB_MFPL_PB2MFP_Pos)    /*!< GPB_MFPL PB2 s
 349:src/sys.h     **** #define SYS_GPB_MFPL_PB2MFP_UART3_RXD       (0x9UL<<SYS_GPB_MFPL_PB2MFP_Pos)    /*!< GPB_MFPL PB2 s
 350:src/sys.h     **** #define SYS_GPB_MFPL_PB2MFP_SC1_CLK         (0xAUL<<SYS_GPB_MFPL_PB2MFP_Pos)    /*!< GPB_MFPL PB2 s
 351:src/sys.h     **** #define SYS_GPB_MFPL_PB2MFP_TM2_EXT         (0xBUL<<SYS_GPB_MFPL_PB2MFP_Pos)    /*!< GPB_MFPL PB2 s
 352:src/sys.h     **** #define SYS_GPB_MFPL_PB2MFP_USCI1_DAT0      (0xCUL<<SYS_GPB_MFPL_PB2MFP_Pos)    /*!< GPB_MFPL PB2 s
 353:src/sys.h     **** #define SYS_GPB_MFPL_PB2MFP_USB_VBUS_ST     (0xDUL<<SYS_GPB_MFPL_PB2MFP_Pos)    /*!< GPB_MFPL PB2 s
 354:src/sys.h     **** #define SYS_GPB_MFPL_PB2MFP_DSRC_RXON       (0xEUL<<SYS_GPB_MFPL_PB2MFP_Pos)    /*!< GPB_MFPL PB2 s
 355:src/sys.h     **** 
 356:src/sys.h     **** //PB.3 MFP
 357:src/sys.h     **** #define SYS_GPB_MFPL_PB3MFP_GPIO            (0x0UL<<SYS_GPB_MFPL_PB3MFP_Pos)    /*!< GPB_MFPL PB3 s
 358:src/sys.h     **** #define SYS_GPB_MFPL_PB3MFP_EADC0_CH3       (0x1UL<<SYS_GPB_MFPL_PB3MFP_Pos)    /*!< GPB_MFPL PB3 s
 359:src/sys.h     **** #define SYS_GPB_MFPL_PB3MFP_SPI0_MISO0      (0x2UL<<SYS_GPB_MFPL_PB3MFP_Pos)    /*!< GPB_MFPL PB3 s
 360:src/sys.h     **** #define SYS_GPB_MFPL_PB3MFP_SPI1_MISO       (0x3UL<<SYS_GPB_MFPL_PB3MFP_Pos)    /*!< GPB_MFPL PB3 s
 361:src/sys.h     **** #define SYS_GPB_MFPL_PB3MFP_UART1_TXD       (0x4UL<<SYS_GPB_MFPL_PB3MFP_Pos)    /*!< GPB_MFPL PB3 s
 362:src/sys.h     **** #define SYS_GPB_MFPL_PB3MFP_PWM0_BRAKE0     (0x5UL<<SYS_GPB_MFPL_PB3MFP_Pos)    /*!< GPB_MFPL PB3 s
 363:src/sys.h     **** #define SYS_GPB_MFPL_PB3MFP_PWM1_CH3        (0x6UL<<SYS_GPB_MFPL_PB3MFP_Pos)    /*!< GPB_MFPL PB3 s
 364:src/sys.h     **** #define SYS_GPB_MFPL_PB3MFP_EBI_ADR17       (0x7UL<<SYS_GPB_MFPL_PB3MFP_Pos)    /*!< GPB_MFPL PB3 s
 365:src/sys.h     **** #define SYS_GPB_MFPL_PB3MFP_I2C2_SMBSUS     (0x8UL<<SYS_GPB_MFPL_PB3MFP_Pos)    /*!< GPB_MFPL PB3 s
 366:src/sys.h     **** #define SYS_GPB_MFPL_PB3MFP_UART3_TXD       (0x9UL<<SYS_GPB_MFPL_PB3MFP_Pos)    /*!< GPB_MFPL PB3 s
 367:src/sys.h     **** #define SYS_GPB_MFPL_PB3MFP_SC1_nCD         (0xAUL<<SYS_GPB_MFPL_PB3MFP_Pos)    /*!< GPB_MFPL PB3 s
 368:src/sys.h     **** #define SYS_GPB_MFPL_PB3MFP_TM0_EXT         (0xBUL<<SYS_GPB_MFPL_PB3MFP_Pos)    /*!< GPB_MFPL PB3 s
 369:src/sys.h     **** #define SYS_GPB_MFPL_PB3MFP_USCI1_DAT1      (0xCUL<<SYS_GPB_MFPL_PB3MFP_Pos)    /*!< GPB_MFPL PB3 s
 370:src/sys.h     **** #define SYS_GPB_MFPL_PB3MFP_USB_VBUS_EN     (0xDUL<<SYS_GPB_MFPL_PB3MFP_Pos)    /*!< GPB_MFPL PB3 s
 371:src/sys.h     **** #define SYS_GPB_MFPL_PB3MFP_ACMP0_WLAT      (0xEUL<<SYS_GPB_MFPL_PB3MFP_Pos)    /*!< GPB_MFPL PB3 s
 372:src/sys.h     **** 
 373:src/sys.h     **** //PB.4 MFP
 374:src/sys.h     **** #define SYS_GPB_MFPL_PB4MFP_GPIO            (0x0UL<<SYS_GPB_MFPL_PB4MFP_Pos)    /*!< GPB_MFPL PB4 s
 375:src/sys.h     **** #define SYS_GPB_MFPL_PB4MFP_EADC0_CH4       (0x1UL<<SYS_GPB_MFPL_PB4MFP_Pos)    /*!< GPB_MFPL PB4 s
 376:src/sys.h     **** #define SYS_GPB_MFPL_PB4MFP_SPI0_SS         (0x2UL<<SYS_GPB_MFPL_PB4MFP_Pos)    /*!< GPB_MFPL PB4 s
 377:src/sys.h     **** #define SYS_GPB_MFPL_PB4MFP_SPI1_SS         (0x3UL<<SYS_GPB_MFPL_PB4MFP_Pos)    /*!< GPB_MFPL PB4 s
 378:src/sys.h     **** #define SYS_GPB_MFPL_PB4MFP_UART1_nCTS      (0x4UL<<SYS_GPB_MFPL_PB4MFP_Pos)    /*!< GPB_MFPL PB4 s
 379:src/sys.h     **** #define SYS_GPB_MFPL_PB4MFP_ACMP0_N         (0x5UL<<SYS_GPB_MFPL_PB4MFP_Pos)    /*!< GPB_MFPL PB4 s
 380:src/sys.h     **** #define SYS_GPB_MFPL_PB4MFP_PWM1_CH2        (0x6UL<<SYS_GPB_MFPL_PB4MFP_Pos)    /*!< GPB_MFPL PB4 s
 381:src/sys.h     **** #define SYS_GPB_MFPL_PB4MFP_EBI_AD7         (0x7UL<<SYS_GPB_MFPL_PB4MFP_Pos)    /*!< GPB_MFPL PB4 s
 382:src/sys.h     **** #define SYS_GPB_MFPL_PB4MFP_UART4_TXD       (0x8UL<<SYS_GPB_MFPL_PB4MFP_Pos)    /*!< GPB_MFPL PB4 s
 383:src/sys.h     **** #define SYS_GPB_MFPL_PB4MFP_UART2_TXD       (0x9UL<<SYS_GPB_MFPL_PB4MFP_Pos)    /*!< GPB_MFPL PB4 s
 384:src/sys.h     **** #define SYS_GPB_MFPL_PB4MFP_SC1_DAT         (0xAUL<<SYS_GPB_MFPL_PB4MFP_Pos)    /*!< GPB_MFPL PB4 s
 385:src/sys.h     **** #define SYS_GPB_MFPL_PB4MFP_TM1_EXT         (0xBUL<<SYS_GPB_MFPL_PB4MFP_Pos)    /*!< GPB_MFPL PB4 s
 386:src/sys.h     **** #define SYS_GPB_MFPL_PB4MFP_USCI1_CLK       (0xCUL<<SYS_GPB_MFPL_PB4MFP_Pos)    /*!< GPB_MFPL PB4 s
 387:src/sys.h     **** #define SYS_GPB_MFPL_PB4MFP_SPI4_CLK        (0xDUL<<SYS_GPB_MFPL_PB4MFP_Pos)    /*!< GPB_MFPL PB4 s
 388:src/sys.h     **** #define SYS_GPB_MFPL_PB4MFP_ECAP1_IC0       (0xEUL<<SYS_GPB_MFPL_PB4MFP_Pos)    /*!< GPB_MFPL PB4 s
 389:src/sys.h     **** 
 390:src/sys.h     **** //PB.5 MFP
 391:src/sys.h     **** #define SYS_GPB_MFPL_PB5MFP_GPIO            (0x0UL<<SYS_GPB_MFPL_PB5MFP_Pos)    /*!< GPB_MFPL PB5 s
 392:src/sys.h     **** #define SYS_GPB_MFPL_PB5MFP_EADC0_CH13      (0x1UL<<SYS_GPB_MFPL_PB5MFP_Pos)    /*!< GPB_MFPL PB5 s
 393:src/sys.h     **** #define SYS_GPB_MFPL_PB5MFP_SPI0_MOSI0      (0x2UL<<SYS_GPB_MFPL_PB5MFP_Pos)    /*!< GPB_MFPL PB5 s
 394:src/sys.h     **** #define SYS_GPB_MFPL_PB5MFP_SPI1_MOSI       (0x3UL<<SYS_GPB_MFPL_PB5MFP_Pos)    /*!< GPB_MFPL PB5 s
 395:src/sys.h     **** #define SYS_GPB_MFPL_PB5MFP_UART5_TXD       (0x4UL<<SYS_GPB_MFPL_PB5MFP_Pos)    /*!< GPB_MFPL PB5 s
 396:src/sys.h     **** #define SYS_GPB_MFPL_PB5MFP_ACMP0_P2        (0x5UL<<SYS_GPB_MFPL_PB5MFP_Pos)    /*!< GPB_MFPL PB5 s
 397:src/sys.h     **** #define SYS_GPB_MFPL_PB5MFP_PWM0_BRAKE1     (0x6UL<<SYS_GPB_MFPL_PB5MFP_Pos)    /*!< GPB_MFPL PB5 s
 398:src/sys.h     **** #define SYS_GPB_MFPL_PB5MFP_EBI_AD6         (0x7UL<<SYS_GPB_MFPL_PB5MFP_Pos)    /*!< GPB_MFPL PB5 s
 399:src/sys.h     **** #define SYS_GPB_MFPL_PB5MFP_OPA0_O          (0x8UL<<SYS_GPB_MFPL_PB5MFP_Pos)    /*!< GPB_MFPL PB5 s
 400:src/sys.h     **** #define SYS_GPB_MFPL_PB5MFP_UART2_RXD       (0x9UL<<SYS_GPB_MFPL_PB5MFP_Pos)    /*!< GPB_MFPL PB5 s
ARM GAS  C:\Users\CCMA\AppData\Local\Temp\ccBCHRX5.s 			page 25


 401:src/sys.h     **** #define SYS_GPB_MFPL_PB5MFP_SC1_RST         (0xBUL<<SYS_GPB_MFPL_PB5MFP_Pos)    /*!< GPB_MFPL PB5 s
 402:src/sys.h     **** #define SYS_GPB_MFPL_PB5MFP_SD1_DAT3        (0xEUL<<SYS_GPB_MFPL_PB5MFP_Pos)    /*!< GPB_MFPL PB5 s
 403:src/sys.h     **** 
 404:src/sys.h     **** //PB.6 MFP
 405:src/sys.h     **** #define SYS_GPB_MFPL_PB6MFP_GPIO            (0x0UL<<SYS_GPB_MFPL_PB6MFP_Pos)    /*!< GPB_MFPL PB6 s
 406:src/sys.h     **** #define SYS_GPB_MFPL_PB6MFP_EADC0_CH14      (0x1UL<<SYS_GPB_MFPL_PB6MFP_Pos)    /*!< GPB_MFPL PB6 s
 407:src/sys.h     **** #define SYS_GPB_MFPL_PB6MFP_SPI0_MISO0      (0x2UL<<SYS_GPB_MFPL_PB6MFP_Pos)    /*!< GPB_MFPL PB6 s
 408:src/sys.h     **** #define SYS_GPB_MFPL_PB6MFP_SPI1_MISO       (0x3UL<<SYS_GPB_MFPL_PB6MFP_Pos)    /*!< GPB_MFPL PB6 s
 409:src/sys.h     **** #define SYS_GPB_MFPL_PB6MFP_UART4_TXD       (0x4UL<<SYS_GPB_MFPL_PB6MFP_Pos)    /*!< GPB_MFPL PB6 s
 410:src/sys.h     **** #define SYS_GPB_MFPL_PB6MFP_ACMP0_P1        (0x5UL<<SYS_GPB_MFPL_PB6MFP_Pos)    /*!< GPB_MFPL PB6 s
 411:src/sys.h     **** #define SYS_GPB_MFPL_PB6MFP_PWM1_CH0        (0x6UL<<SYS_GPB_MFPL_PB6MFP_Pos)    /*!< GPB_MFPL PB6 s
 412:src/sys.h     **** #define SYS_GPB_MFPL_PB6MFP_EBI_AD5         (0x7UL<<SYS_GPB_MFPL_PB6MFP_Pos)    /*!< GPB_MFPL PB6 s
 413:src/sys.h     **** #define SYS_GPB_MFPL_PB6MFP_OPA0_N          (0x8UL<<SYS_GPB_MFPL_PB6MFP_Pos)    /*!< GPB_MFPL PB6 s
 414:src/sys.h     **** #define SYS_GPB_MFPL_PB6MFP_SC1_CLK         (0xBUL<<SYS_GPB_MFPL_PB6MFP_Pos)    /*!< GPB_MFPL PB6 s
 415:src/sys.h     **** #define SYS_GPB_MFPL_PB6MFP_USCI0_DAT0      (0xCUL<<SYS_GPB_MFPL_PB6MFP_Pos)    /*!< GPB_MFPL PB6 s
 416:src/sys.h     **** #define SYS_GPB_MFPL_PB6MFP_BPWM0_CH0       (0xDUL<<SYS_GPB_MFPL_PB6MFP_Pos)    /*!< GPB_MFPL PB6 s
 417:src/sys.h     **** #define SYS_GPB_MFPL_PB6MFP_SD1_DAT2        (0xEUL<<SYS_GPB_MFPL_PB6MFP_Pos)    /*!< GPB_MFPL PB6 s
 418:src/sys.h     **** 
 419:src/sys.h     **** //PB.7 MFP
 420:src/sys.h     **** #define SYS_GPB_MFPL_PB7MFP_GPIO            (0x0UL<<SYS_GPB_MFPL_PB7MFP_Pos)    /*!< GPB_MFPL PB7 s
 421:src/sys.h     **** #define SYS_GPB_MFPL_PB7MFP_EADC0_CH15      (0x1UL<<SYS_GPB_MFPL_PB7MFP_Pos)    /*!< GPB_MFPL PB7 s
 422:src/sys.h     **** #define SYS_GPB_MFPL_PB7MFP_SPI0_CLK        (0x2UL<<SYS_GPB_MFPL_PB7MFP_Pos)    /*!< GPB_MFPL PB7 s
 423:src/sys.h     **** #define SYS_GPB_MFPL_PB7MFP_SPI1_CLK        (0x3UL<<SYS_GPB_MFPL_PB7MFP_Pos)    /*!< GPB_MFPL PB7 s
 424:src/sys.h     **** #define SYS_GPB_MFPL_PB7MFP_UART4_RXD       (0x4UL<<SYS_GPB_MFPL_PB7MFP_Pos)    /*!< GPB_MFPL PB7 s
 425:src/sys.h     **** #define SYS_GPB_MFPL_PB7MFP_ACMP0_P0        (0x5UL<<SYS_GPB_MFPL_PB7MFP_Pos)    /*!< GPB_MFPL PB7 s
 426:src/sys.h     **** #define SYS_GPB_MFPL_PB7MFP_PWM1_CH1        (0x6UL<<SYS_GPB_MFPL_PB7MFP_Pos)    /*!< GPB_MFPL PB7 s
 427:src/sys.h     **** #define SYS_GPB_MFPL_PB7MFP_EBI_AD4         (0x7UL<<SYS_GPB_MFPL_PB7MFP_Pos)    /*!< GPB_MFPL PB7 s
 428:src/sys.h     **** #define SYS_GPB_MFPL_PB7MFP_OPA0_P          (0x8UL<<SYS_GPB_MFPL_PB7MFP_Pos)    /*!< GPB_MFPL PB7 s
 429:src/sys.h     **** #define SYS_GPB_MFPL_PB7MFP_SC0_PWR         (0x9UL<<SYS_GPB_MFPL_PB7MFP_Pos)    /*!< GPB_MFPL PB7 s
 430:src/sys.h     **** #define SYS_GPB_MFPL_PB7MFP_EADC0_ST        (0xAUL<<SYS_GPB_MFPL_PB7MFP_Pos)    /*!< GPB_MFPL PB7 s
 431:src/sys.h     **** #define SYS_GPB_MFPL_PB7MFP_SC1_DAT         (0xBUL<<SYS_GPB_MFPL_PB7MFP_Pos)    /*!< GPB_MFPL PB7 s
 432:src/sys.h     **** #define SYS_GPB_MFPL_PB7MFP_BPWM0_CH1       (0xDUL<<SYS_GPB_MFPL_PB7MFP_Pos)    /*!< GPB_MFPL PB7 s
 433:src/sys.h     **** #define SYS_GPB_MFPL_PB7MFP_USCI0_DAT1      (0xCUL<<SYS_GPB_MFPL_PB7MFP_Pos)    /*!< GPB_MFPL PB7 s
 434:src/sys.h     **** #define SYS_GPB_MFPL_PB7MFP_SD1_DAT1        (0xEUL<<SYS_GPB_MFPL_PB7MFP_Pos)    /*!< GPB_MFPL PB7 s
 435:src/sys.h     **** 
 436:src/sys.h     **** //PB.8 MFP
 437:src/sys.h     **** #define SYS_GPB_MFPH_PB8MFP_GPIO            (0x0UL<<SYS_GPB_MFPH_PB8MFP_Pos)    /*!< GPB_MFPH PB8 s
 438:src/sys.h     **** #define SYS_GPB_MFPH_PB8MFP_EADC0_CH5       (0x1UL<<SYS_GPB_MFPH_PB8MFP_Pos)    /*!< GPB_MFPH PB8 s
 439:src/sys.h     **** #define SYS_GPB_MFPH_PB8MFP_SPI4_SS         (0x2UL<<SYS_GPB_MFPH_PB8MFP_Pos)    /*!< GPB_MFPH PB8 s
 440:src/sys.h     **** #define SYS_GPB_MFPH_PB8MFP_UART1_nRTS      (0x4UL<<SYS_GPB_MFPH_PB8MFP_Pos)    /*!< GPB_MFPH PB8 s
 441:src/sys.h     **** #define SYS_GPB_MFPH_PB8MFP_PWM0_CH2        (0x6UL<<SYS_GPB_MFPH_PB8MFP_Pos)    /*!< GPB_MFPH PB8 s
 442:src/sys.h     **** #define SYS_GPB_MFPH_PB8MFP_EBI_AD8         (0x7UL<<SYS_GPB_MFPH_PB8MFP_Pos)    /*!< GPB_MFPH PB8 s
 443:src/sys.h     **** #define SYS_GPB_MFPH_PB8MFP_UART4_RXD       (0x8UL<<SYS_GPB_MFPH_PB8MFP_Pos)    /*!< GPB_MFPH PB8 s
 444:src/sys.h     **** #define SYS_GPB_MFPH_PB8MFP_ECAP1_IC1       (0xEUL<<SYS_GPB_MFPH_PB8MFP_Pos)    /*!< GPB_MFPH PB8 s
 445:src/sys.h     **** 
 446:src/sys.h     **** //PB.9 MFP
 447:src/sys.h     **** #define SYS_GPB_MFPH_PB9MFP_GPIO            (0x0UL<<SYS_GPB_MFPH_PB9MFP_Pos)    /*!< GPB_MFPH PB9 s
 448:src/sys.h     **** #define SYS_GPB_MFPH_PB9MFP_EADC0_CH6       (0x1UL<<SYS_GPB_MFPH_PB9MFP_Pos)    /*!< GPB_MFPH PB9 s
 449:src/sys.h     **** #define SYS_GPB_MFPH_PB9MFP_SPI4_I2SMCLK    (0x2UL<<SYS_GPB_MFPH_PB9MFP_Pos)    /*!< GPB_MFPH PB9 s
 450:src/sys.h     **** #define SYS_GPB_MFPH_PB9MFP_UART5_nRTS      (0x4UL<<SYS_GPB_MFPH_PB9MFP_Pos)    /*!< GPB_MFPH PB9 s
 451:src/sys.h     **** #define SYS_GPB_MFPH_PB9MFP_EBI_AD9         (0x7UL<<SYS_GPB_MFPH_PB9MFP_Pos)    /*!< GPB_MFPH PB9 s
 452:src/sys.h     **** 
 453:src/sys.h     **** //PB.10 MFP
 454:src/sys.h     **** #define SYS_GPB_MFPH_PB10MFP_GPIO           (0x0UL<<SYS_GPB_MFPH_PB10MFP_Pos)   /*!< GPB_MFPH PB10 
 455:src/sys.h     **** #define SYS_GPB_MFPH_PB10MFP_EADC0_CH7      (0x1UL<<SYS_GPB_MFPH_PB10MFP_Pos)   /*!< GPB_MFPH PB10 
 456:src/sys.h     **** #define SYS_GPB_MFPH_PB10MFP_SPI4_CLK       (0x2UL<<SYS_GPB_MFPH_PB10MFP_Pos)   /*!< GPB_MFPH PB10 
 457:src/sys.h     **** #define SYS_GPB_MFPH_PB10MFP_UART5_nCTS     (0x4UL<<SYS_GPB_MFPH_PB10MFP_Pos)   /*!< GPB_MFPH PB10 
ARM GAS  C:\Users\CCMA\AppData\Local\Temp\ccBCHRX5.s 			page 26


 458:src/sys.h     **** #define SYS_GPB_MFPH_PB10MFP_EBI_AD10       (0x7UL<<SYS_GPB_MFPH_PB10MFP_Pos)   /*!< GPB_MFPH PB10 
 459:src/sys.h     **** 
 460:src/sys.h     **** //PB.11 MFP
 461:src/sys.h     **** #define SYS_GPB_MFPH_PB11MFP_GPIO           (0x0UL<<SYS_GPB_MFPH_PB11MFP_Pos)   /*!< GPB_MFPH PB11 
 462:src/sys.h     **** #define SYS_GPB_MFPH_PB11MFP_EADC0_CH8      (0x1UL<<SYS_GPB_MFPH_PB11MFP_Pos)   /*!< GPB_MFPH PB11 
 463:src/sys.h     **** #define SYS_GPB_MFPH_PB11MFP_SPI4_MISO      (0x2UL<<SYS_GPB_MFPH_PB11MFP_Pos)   /*!< GPB_MFPH PB11 
 464:src/sys.h     **** #define SYS_GPB_MFPH_PB11MFP_UART5_TXD      (0x4UL<<SYS_GPB_MFPH_PB11MFP_Pos)   /*!< GPB_MFPH PB11 
 465:src/sys.h     **** #define SYS_GPB_MFPH_PB11MFP_EBI_ADR18      (0x7UL<<SYS_GPB_MFPH_PB11MFP_Pos)   /*!< GPB_MFPH PB11 
 466:src/sys.h     **** #define SYS_GPB_MFPH_PB11MFP_UART4_nCTS     (0x8UL<<SYS_GPB_MFPH_PB11MFP_Pos)   /*!< GPB_MFPH PB11 
 467:src/sys.h     **** #define SYS_GPB_MFPH_PB11MFP_ECAP1_IC2      (0xEUL<<SYS_GPB_MFPH_PB11MFP_Pos)   /*!< GPB_MFPH PB11 
 468:src/sys.h     **** 
 469:src/sys.h     **** //PB.12 MFP
 470:src/sys.h     **** #define SYS_GPB_MFPH_PB12MFP_GPIO           (0x0UL<<SYS_GPB_MFPH_PB12MFP_Pos)   /*!< GPB_MFPH PB12 
 471:src/sys.h     **** #define SYS_GPB_MFPH_PB12MFP_EADC0_CH9      (0x1UL<<SYS_GPB_MFPH_PB12MFP_Pos)   /*!< GPB_MFPH PB12 
 472:src/sys.h     **** #define SYS_GPB_MFPH_PB12MFP_SPI4_MOSI      (0x2UL<<SYS_GPB_MFPH_PB12MFP_Pos)   /*!< GPB_MFPH PB12 
 473:src/sys.h     **** #define SYS_GPB_MFPH_PB12MFP_UART5_RXD      (0x4UL<<SYS_GPB_MFPH_PB12MFP_Pos)   /*!< GPB_MFPH PB12 
 474:src/sys.h     **** #define SYS_GPB_MFPH_PB12MFP_EBI_ADR19      (0x7UL<<SYS_GPB_MFPH_PB12MFP_Pos)   /*!< GPB_MFPH PB12 
 475:src/sys.h     **** #define SYS_GPB_MFPH_PB12MFP_UART4_nRTS     (0x8UL<<SYS_GPB_MFPH_PB12MFP_Pos)   /*!< GPB_MFPH PB12 
 476:src/sys.h     **** 
 477:src/sys.h     **** //PB.13 MFP
 478:src/sys.h     **** #define SYS_GPB_MFPH_PB13MFP_GPIO           (0x0UL<<SYS_GPB_MFPH_PB13MFP_Pos)   /*!< GPB_MFPH PB13 
 479:src/sys.h     **** #define SYS_GPB_MFPH_PB13MFP_EADC0_CH10     (0x1UL<<SYS_GPB_MFPH_PB13MFP_Pos)   /*!< GPB_MFPH PB13 
 480:src/sys.h     **** #define SYS_GPB_MFPH_PB13MFP_EBI_ADR9       (0x7UL<<SYS_GPB_MFPH_PB13MFP_Pos)   /*!< GPB_MFPH PB13 
 481:src/sys.h     **** 
 482:src/sys.h     **** //PB.14 MFP
 483:src/sys.h     **** #define SYS_GPB_MFPH_PB14MFP_GPIO           (0x0UL<<SYS_GPB_MFPH_PB14MFP_Pos)   /*!< GPB_MFPH PB14 
 484:src/sys.h     **** #define SYS_GPB_MFPH_PB14MFP_EADC0_CH11     (0x1UL<<SYS_GPB_MFPH_PB14MFP_Pos)   /*!< GPB_MFPH PB14 
 485:src/sys.h     **** #define SYS_GPB_MFPH_PB14MFP_EBI_ADR8       (0x7UL<<SYS_GPB_MFPH_PB14MFP_Pos)   /*!< GPB_MFPH PB14 
 486:src/sys.h     **** 
 487:src/sys.h     **** //PB.15 MFP
 488:src/sys.h     **** #define SYS_GPB_MFPH_PB15MFP_GPIO           (0x0UL<<SYS_GPB_MFPH_PB15MFP_Pos)   /*!< GPB_MFPH PB15 
 489:src/sys.h     **** #define SYS_GPB_MFPH_PB15MFP_EADC0_CH12     (0x1UL<<SYS_GPB_MFPH_PB15MFP_Pos)   /*!< GPB_MFPH PB15 
 490:src/sys.h     **** #define SYS_GPB_MFPH_PB15MFP_SPI1_SS        (0x3UL<<SYS_GPB_MFPH_PB15MFP_Pos)   /*!< GPB_MFPH PB15 
 491:src/sys.h     **** #define SYS_GPB_MFPH_PB15MFP_UART5_RXD      (0x4UL<<SYS_GPB_MFPH_PB15MFP_Pos)   /*!< GPB_MFPH PB15 
 492:src/sys.h     **** #define SYS_GPB_MFPH_PB15MFP_ACMP0_P3       (0x5UL<<SYS_GPB_MFPH_PB15MFP_Pos)   /*!< GPB_MFPH PB15 
 493:src/sys.h     **** #define SYS_GPB_MFPH_PB15MFP_EBI_nCS1       (0x7UL<<SYS_GPB_MFPH_PB15MFP_Pos)   /*!< GPB_MFPH PB15 
 494:src/sys.h     **** #define SYS_GPB_MFPH_PB15MFP_SC1_PWR        (0xBUL<<SYS_GPB_MFPH_PB15MFP_Pos)   /*!< GPB_MFPH PB15 
 495:src/sys.h     **** 
 496:src/sys.h     **** //PC.0 MFP
 497:src/sys.h     **** #define SYS_GPC_MFPL_PC0MFP_GPIO            (0x0UL<<SYS_GPC_MFPL_PC0MFP_Pos)    /*!< GPC_MFPL PC0 s
 498:src/sys.h     **** #define SYS_GPC_MFPL_PC0MFP_SPI0_MISO1      (0x1UL<<SYS_GPC_MFPL_PC0MFP_Pos)    /*!< GPC_MFPL PC0 s
 499:src/sys.h     **** #define SYS_GPC_MFPL_PC0MFP_SPI2_CLK        (0x2UL<<SYS_GPC_MFPL_PC0MFP_Pos)    /*!< GPC_MFPL PC0 s
 500:src/sys.h     **** #define SYS_GPC_MFPL_PC0MFP_UART2_nCTS      (0x3UL<<SYS_GPC_MFPL_PC0MFP_Pos)    /*!< GPC_MFPL PC0 s
 501:src/sys.h     **** #define SYS_GPC_MFPL_PC0MFP_CAN0_TXD        (0x4UL<<SYS_GPC_MFPL_PC0MFP_Pos)    /*!< GPC_MFPL PC0 s
 502:src/sys.h     **** #define SYS_GPC_MFPL_PC0MFP_TM3_EXT         (0x5UL<<SYS_GPC_MFPL_PC0MFP_Pos)    /*!< GPC_MFPL PC0 s
 503:src/sys.h     **** #define SYS_GPC_MFPL_PC0MFP_PWM0_CH0        (0x6UL<<SYS_GPC_MFPL_PC0MFP_Pos)    /*!< GPC_MFPL PC0 s
 504:src/sys.h     **** #define SYS_GPC_MFPL_PC0MFP_EBI_AD8         (0x7UL<<SYS_GPC_MFPL_PC0MFP_Pos)    /*!< GPC_MFPL PC0 s
 505:src/sys.h     **** #define SYS_GPC_MFPL_PC0MFP_INT2            (0x8UL<<SYS_GPC_MFPL_PC0MFP_Pos)    /*!< GPC_MFPL PC0 s
 506:src/sys.h     **** #define SYS_GPC_MFPL_PC0MFP_UART3_TXD       (0x9UL<<SYS_GPC_MFPL_PC0MFP_Pos)    /*!< GPC_MFPL PC0 s
 507:src/sys.h     **** #define SYS_GPC_MFPL_PC0MFP_I2S0_LRCK       (0xAUL<<SYS_GPC_MFPL_PC0MFP_Pos)    /*!< GPC_MFPL PC0 s
 508:src/sys.h     **** #define SYS_GPC_MFPL_PC0MFP_SD0_CLK         (0xBUL<<SYS_GPC_MFPL_PC0MFP_Pos)    /*!< GPC_MFPL PC0 s
 509:src/sys.h     **** #define SYS_GPC_MFPL_PC0MFP_USCI0_CLK       (0xCUL<<SYS_GPC_MFPL_PC0MFP_Pos)    /*!< GPC_MFPL PC0 s
 510:src/sys.h     **** #define SYS_GPC_MFPL_PC0MFP_TRACE_CLK       (0xDUL<<SYS_GPC_MFPL_PC0MFP_Pos)    /*!< GPC_MFPL PC0 s
 511:src/sys.h     **** #define SYS_GPC_MFPL_PC0MFP_LCD_SEG16       (0xEUL<<SYS_GPC_MFPL_PC0MFP_Pos)    /*!< GPC_MFPL PC0 s
 512:src/sys.h     **** #define SYS_GPC_MFPL_PC0MFP_DSRC_TXON       (0xFUL<<SYS_GPC_MFPL_PC0MFP_Pos)    /*!< GPC_MFPL PC0 s
 513:src/sys.h     **** 
 514:src/sys.h     **** //PC.1 MFP
ARM GAS  C:\Users\CCMA\AppData\Local\Temp\ccBCHRX5.s 			page 27


 515:src/sys.h     **** #define SYS_GPC_MFPL_PC1MFP_GPIO            (0x0UL<<SYS_GPC_MFPL_PC1MFP_Pos)    /*!< GPC_MFPL PC1 s
 516:src/sys.h     **** #define SYS_GPC_MFPL_PC1MFP_CLKO            (0x1UL<<SYS_GPC_MFPL_PC1MFP_Pos)    /*!< GPC_MFPL PC1 s
 517:src/sys.h     **** #define SYS_GPC_MFPL_PC1MFP_DAC0_ST         (0x2UL<<SYS_GPC_MFPL_PC1MFP_Pos)    /*!< GPC_MFPL PC1 s
 518:src/sys.h     **** #define SYS_GPC_MFPL_PC1MFP_UART2_nRTS      (0x3UL<<SYS_GPC_MFPL_PC1MFP_Pos)    /*!< GPC_MFPL PC1 s
 519:src/sys.h     **** #define SYS_GPC_MFPL_PC1MFP_CAN0_RXD        (0x4UL<<SYS_GPC_MFPL_PC1MFP_Pos)    /*!< GPC_MFPL PC1 s
 520:src/sys.h     **** #define SYS_GPC_MFPL_PC1MFP_SPI2_I2SMCLK    (0x5UL<<SYS_GPC_MFPL_PC1MFP_Pos)    /*!< GPC_MFPL PC1 s
 521:src/sys.h     **** #define SYS_GPC_MFPL_PC1MFP_PWM0_CH1        (0x6UL<<SYS_GPC_MFPL_PC1MFP_Pos)    /*!< GPC_MFPL PC1 s
 522:src/sys.h     **** #define SYS_GPC_MFPL_PC1MFP_EBI_AD9         (0x7UL<<SYS_GPC_MFPL_PC1MFP_Pos)    /*!< GPC_MFPL PC1 s
 523:src/sys.h     **** #define SYS_GPC_MFPL_PC1MFP_SPI0_MOSI1      (0x8UL<<SYS_GPC_MFPL_PC1MFP_Pos)    /*!< GPC_MFPL PC1 s
 524:src/sys.h     **** #define SYS_GPC_MFPL_PC1MFP_UART3_RXD       (0x9UL<<SYS_GPC_MFPL_PC1MFP_Pos)    /*!< GPC_MFPL PC1 s
 525:src/sys.h     **** #define SYS_GPC_MFPL_PC1MFP_I2S0_DO         (0xAUL<<SYS_GPC_MFPL_PC1MFP_Pos)    /*!< GPC_MFPL PC1 s
 526:src/sys.h     **** #define SYS_GPC_MFPL_PC1MFP_SD0_DAT3        (0xBUL<<SYS_GPC_MFPL_PC1MFP_Pos)    /*!< GPC_MFPL PC1 s
 527:src/sys.h     **** #define SYS_GPC_MFPL_PC1MFP_USCI0_DAT0      (0xCUL<<SYS_GPC_MFPL_PC1MFP_Pos)    /*!< GPC_MFPL PC1 s
 528:src/sys.h     **** #define SYS_GPC_MFPL_PC1MFP_TRACE_DATA0     (0xDUL<<SYS_GPC_MFPL_PC1MFP_Pos)    /*!< GPC_MFPL PC1 s
 529:src/sys.h     **** #define SYS_GPC_MFPL_PC1MFP_LCD_SEG17       (0xEUL<<SYS_GPC_MFPL_PC1MFP_Pos)    /*!< GPC_MFPL PC1 s
 530:src/sys.h     **** #define SYS_GPC_MFPL_PC1MFP_DSRC_RXON       (0xFUL<<SYS_GPC_MFPL_PC1MFP_Pos)    /*!< GPC_MFPL PC1 s
 531:src/sys.h     **** 
 532:src/sys.h     **** //PC.2 MFP
 533:src/sys.h     **** #define SYS_GPC_MFPL_PC2MFP_GPIO            (0x0UL<<SYS_GPC_MFPL_PC2MFP_Pos)    /*!< GPC_MFPL PC2 s
 534:src/sys.h     **** #define SYS_GPC_MFPL_PC2MFP_SPI2_SS         (0x2UL<<SYS_GPC_MFPL_PC2MFP_Pos)    /*!< GPC_MFPL PC2 s
 535:src/sys.h     **** #define SYS_GPC_MFPL_PC2MFP_UART2_TXD       (0x3UL<<SYS_GPC_MFPL_PC2MFP_Pos)    /*!< GPC_MFPL PC2 s
 536:src/sys.h     **** #define SYS_GPC_MFPL_PC2MFP_TM3             (0x4UL<<SYS_GPC_MFPL_PC2MFP_Pos)    /*!< GPC_MFPL PC2 s
 537:src/sys.h     **** #define SYS_GPC_MFPL_PC2MFP_ACMP1_O         (0x5UL<<SYS_GPC_MFPL_PC2MFP_Pos)    /*!< GPC_MFPL PC2 s
 538:src/sys.h     **** #define SYS_GPC_MFPL_PC2MFP_PWM0_CH2        (0x6UL<<SYS_GPC_MFPL_PC2MFP_Pos)    /*!< GPC_MFPL PC2 s
 539:src/sys.h     **** #define SYS_GPC_MFPL_PC2MFP_EBI_AD10        (0x7UL<<SYS_GPC_MFPL_PC2MFP_Pos)    /*!< GPC_MFPL PC2 s
 540:src/sys.h     **** #define SYS_GPC_MFPL_PC2MFP_SPI0_MISO0      (0x8UL<<SYS_GPC_MFPL_PC2MFP_Pos)    /*!< GPC_MFPL PC2 s
 541:src/sys.h     **** #define SYS_GPC_MFPL_PC2MFP_I2S0_MCLK       (0xAUL<<SYS_GPC_MFPL_PC2MFP_Pos)    /*!< GPC_MFPL PC2 s
 542:src/sys.h     **** #define SYS_GPC_MFPL_PC2MFP_SD0_DAT2        (0xBUL<<SYS_GPC_MFPL_PC2MFP_Pos)    /*!< GPC_MFPL PC2 s
 543:src/sys.h     **** #define SYS_GPC_MFPL_PC2MFP_USCI0_DAT1      (0xCUL<<SYS_GPC_MFPL_PC2MFP_Pos)    /*!< GPC_MFPL PC2 s
 544:src/sys.h     **** #define SYS_GPC_MFPL_PC2MFP_TRACE_DATA1     (0xDUL<<SYS_GPC_MFPL_PC2MFP_Pos)    /*!< GPC_MFPL PC2 s
 545:src/sys.h     **** #define SYS_GPC_MFPL_PC2MFP_LCD_SEG18       (0xEUL<<SYS_GPC_MFPL_PC2MFP_Pos)    /*!< GPC_MFPL PC2 s
 546:src/sys.h     **** #define SYS_GPC_MFPL_PC2MFP_SPI5_MISO       (0xFUL<<SYS_GPC_MFPL_PC2MFP_Pos)    /*!< GPC_MFPL PC2 s
 547:src/sys.h     **** 
 548:src/sys.h     **** //PC.3 MFP
 549:src/sys.h     **** #define SYS_GPC_MFPL_PC3MFP_GPIO            (0x0UL<<SYS_GPC_MFPL_PC3MFP_Pos)    /*!< GPC_MFPL PC3 s
 550:src/sys.h     **** #define SYS_GPC_MFPL_PC3MFP_SPI2_MOSI       (0x2UL<<SYS_GPC_MFPL_PC3MFP_Pos)    /*!< GPC_MFPL PC3 s
 551:src/sys.h     **** #define SYS_GPC_MFPL_PC3MFP_UART2_RXD       (0x3UL<<SYS_GPC_MFPL_PC3MFP_Pos)    /*!< GPC_MFPL PC3 s
 552:src/sys.h     **** #define SYS_GPC_MFPL_PC3MFP_PWM0_CH3        (0x6UL<<SYS_GPC_MFPL_PC3MFP_Pos)    /*!< GPC_MFPL PC3 s
 553:src/sys.h     **** #define SYS_GPC_MFPL_PC3MFP_EBI_AD11        (0x7UL<<SYS_GPC_MFPL_PC3MFP_Pos)    /*!< GPC_MFPL PC3 s
 554:src/sys.h     **** #define SYS_GPC_MFPL_PC3MFP_SPI0_MOSI0      (0x8UL<<SYS_GPC_MFPL_PC3MFP_Pos)    /*!< GPC_MFPL PC3 s
 555:src/sys.h     **** #define SYS_GPC_MFPL_PC3MFP_I2S0_BCLK       (0xAUL<<SYS_GPC_MFPL_PC3MFP_Pos)    /*!< GPC_MFPL PC3 s
 556:src/sys.h     **** #define SYS_GPC_MFPL_PC3MFP_SD0_DAT1        (0xBUL<<SYS_GPC_MFPL_PC3MFP_Pos)    /*!< GPC_MFPL PC3 s
 557:src/sys.h     **** #define SYS_GPC_MFPL_PC3MFP_USCI0_CTL0      (0xCUL<<SYS_GPC_MFPL_PC3MFP_Pos)    /*!< GPC_MFPL PC3 s
 558:src/sys.h     **** #define SYS_GPC_MFPL_PC3MFP_TRACE_DATA2     (0xDUL<<SYS_GPC_MFPL_PC3MFP_Pos)    /*!< GPC_MFPL PC3 s
 559:src/sys.h     **** #define SYS_GPC_MFPL_PC3MFP_LCD_SEG19       (0xEUL<<SYS_GPC_MFPL_PC3MFP_Pos)    /*!< GPC_MFPL PC3 s
 560:src/sys.h     **** #define SYS_GPC_MFPL_PC3MFP_SPI5_MOSI       (0xFUL<<SYS_GPC_MFPL_PC3MFP_Pos)    /*!< GPC_MFPL PC3 s
 561:src/sys.h     **** 
 562:src/sys.h     **** //PC.4 MFP
 563:src/sys.h     **** #define SYS_GPC_MFPL_PC4MFP_GPIO            (0x0UL<<SYS_GPC_MFPL_PC4MFP_Pos)    /*!< GPC_MFPL PC4 s
 564:src/sys.h     **** #define SYS_GPC_MFPL_PC4MFP_I2C1_SCL        (0x3UL<<SYS_GPC_MFPL_PC4MFP_Pos)    /*!< GPC_MFPL PC4 s
 565:src/sys.h     **** #define SYS_GPC_MFPL_PC4MFP_I2S0_DI         (0xAUL<<SYS_GPC_MFPL_PC4MFP_Pos)    /*!< GPC_MFPL PC4 s
 566:src/sys.h     **** #define SYS_GPC_MFPL_PC4MFP_LCD_SEG20       (0xEUL<<SYS_GPC_MFPL_PC4MFP_Pos)    /*!< GPC_MFPL PC4 s
 567:src/sys.h     **** #define SYS_GPC_MFPL_PC4MFP_PWM0_CH4        (0x6UL<<SYS_GPC_MFPL_PC4MFP_Pos)    /*!< GPC_MFPL PC4 s
 568:src/sys.h     **** #define SYS_GPC_MFPL_PC4MFP_SC0_PWR         (0x1UL<<SYS_GPC_MFPL_PC4MFP_Pos)    /*!< GPC_MFPL PC4 s
 569:src/sys.h     **** #define SYS_GPC_MFPL_PC4MFP_SD0_DAT0        (0xBUL<<SYS_GPC_MFPL_PC4MFP_Pos)    /*!< GPC_MFPL PC4 s
 570:src/sys.h     **** #define SYS_GPC_MFPL_PC4MFP_SPI0_CLK        (0x8UL<<SYS_GPC_MFPL_PC4MFP_Pos)    /*!< GPC_MFPL PC4 s
 571:src/sys.h     **** #define SYS_GPC_MFPL_PC4MFP_SPI2_MISO       (0x2UL<<SYS_GPC_MFPL_PC4MFP_Pos)    /*!< GPC_MFPL PC4 s
ARM GAS  C:\Users\CCMA\AppData\Local\Temp\ccBCHRX5.s 			page 28


 572:src/sys.h     **** #define SYS_GPC_MFPL_PC4MFP_SPI5_CLK        (0xFUL<<SYS_GPC_MFPL_PC4MFP_Pos)    /*!< GPC_MFPL PC4 s
 573:src/sys.h     **** #define SYS_GPC_MFPL_PC4MFP_TRACE_DATA3     (0xDUL<<SYS_GPC_MFPL_PC4MFP_Pos)    /*!< GPC_MFPL PC4 s
 574:src/sys.h     **** #define SYS_GPC_MFPL_PC4MFP_UART4_nCTS      (0x9UL<<SYS_GPC_MFPL_PC4MFP_Pos)    /*!< GPC_MFPL PC4 s
 575:src/sys.h     **** #define SYS_GPC_MFPL_PC4MFP_USCI0_CTL1      (0xCUL<<SYS_GPC_MFPL_PC4MFP_Pos)    /*!< GPC_MFPL PC4 s
 576:src/sys.h     **** #define SYS_GPC_MFPL_PC4MFP_EBI_AD12        (0x7UL<<SYS_GPC_MFPL_PC4MFP_Pos)    /*!< GPC_MFPL PC4 s
 577:src/sys.h     **** 
 578:src/sys.h     **** //PC.5 MFP
 579:src/sys.h     **** #define SYS_GPC_MFPL_PC5MFP_BPWM0_CH1       (0x4UL<<SYS_GPC_MFPL_PC5MFP_Pos)    /*!< GPC_MFPL PC5 s
 580:src/sys.h     **** #define SYS_GPC_MFPL_PC5MFP_DAC1_ST         (0x3UL<<SYS_GPC_MFPL_PC5MFP_Pos)    /*!< GPC_MFPL PC5 s
 581:src/sys.h     **** #define SYS_GPC_MFPL_PC5MFP_DSRC_WAKEUP     (0xDUL<<SYS_GPC_MFPL_PC5MFP_Pos)    /*!< GPC_MFPL PC5 s
 582:src/sys.h     **** #define SYS_GPC_MFPL_PC5MFP_EBI_AD13        (0x7UL<<SYS_GPC_MFPL_PC5MFP_Pos)    /*!< GPC_MFPL PC5 s
 583:src/sys.h     **** #define SYS_GPC_MFPL_PC5MFP_GPIO            (0x0UL<<SYS_GPC_MFPL_PC5MFP_Pos)    /*!< GPC_MFPL PC5 s
 584:src/sys.h     **** #define SYS_GPC_MFPL_PC5MFP_LCD_SEG22       (0xEUL<<SYS_GPC_MFPL_PC5MFP_Pos)    /*!< GPC_MFPL PC5 s
 585:src/sys.h     **** #define SYS_GPC_MFPL_PC5MFP_PWM0_CH1        (0x6UL<<SYS_GPC_MFPL_PC5MFP_Pos)    /*!< GPC_MFPL PC5 s
 586:src/sys.h     **** #define SYS_GPC_MFPL_PC5MFP_SPI0_SS         (0x8UL<<SYS_GPC_MFPL_PC5MFP_Pos)    /*!< GPC_MFPL PC5 s
 587:src/sys.h     **** #define SYS_GPC_MFPL_PC5MFP_SPI2_I2SMCLK    (0x2UL<<SYS_GPC_MFPL_PC5MFP_Pos)    /*!< GPC_MFPL PC5 s
 588:src/sys.h     **** #define SYS_GPC_MFPL_PC5MFP_SPI5_SS         (0xFUL<<SYS_GPC_MFPL_PC5MFP_Pos)    /*!< GPC_MFPL PC5 s
 589:src/sys.h     **** #define SYS_GPC_MFPL_PC5MFP_UART4_TXD       (0x9UL<<SYS_GPC_MFPL_PC5MFP_Pos)    /*!< GPC_MFPL PC5 s
 590:src/sys.h     **** 
 591:src/sys.h     **** //PC.6 MFP
 592:src/sys.h     **** #define SYS_GPC_MFPL_PC6MFP_ACMP1_O         (0x5UL<<SYS_GPC_MFPL_PC6MFP_Pos)    /*!< GPC_MFPL PC6 s
 593:src/sys.h     **** #define SYS_GPC_MFPL_PC6MFP_EBI_AD14        (0x7UL<<SYS_GPC_MFPL_PC6MFP_Pos)    /*!< GPC_MFPL PC6 s
 594:src/sys.h     **** #define SYS_GPC_MFPL_PC6MFP_ECAP0_IC1       (0xEUL<<SYS_GPC_MFPL_PC6MFP_Pos)    /*!< GPC_MFPL PC6 s
 595:src/sys.h     **** #define SYS_GPC_MFPL_PC6MFP_GPIO            (0x0UL<<SYS_GPC_MFPL_PC6MFP_Pos)    /*!< GPC_MFPL PC6 s
 596:src/sys.h     **** #define SYS_GPC_MFPL_PC6MFP_I2C1_SMBAL      (0x3UL<<SYS_GPC_MFPL_PC6MFP_Pos)    /*!< GPC_MFPL PC6 s
 597:src/sys.h     **** #define SYS_GPC_MFPL_PC6MFP_LCD_SEG25       (0xFUL<<SYS_GPC_MFPL_PC6MFP_Pos)    /*!< GPC_MFPL PC6 s
 598:src/sys.h     **** #define SYS_GPC_MFPL_PC6MFP_PWM1_CH0        (0x6UL<<SYS_GPC_MFPL_PC6MFP_Pos)    /*!< GPC_MFPL PC6 s
 599:src/sys.h     **** #define SYS_GPC_MFPL_PC6MFP_SC0_DAT         (0x4UL<<SYS_GPC_MFPL_PC6MFP_Pos)    /*!< GPC_MFPL PC6 s
 600:src/sys.h     **** #define SYS_GPC_MFPL_PC6MFP_SD1_nCD         (0xBUL<<SYS_GPC_MFPL_PC6MFP_Pos)    /*!< GPC_MFPL PC6 s
 601:src/sys.h     **** #define SYS_GPC_MFPL_PC6MFP_SPI5_MOSI       (0xCUL<<SYS_GPC_MFPL_PC6MFP_Pos)    /*!< GPC_MFPL PC6 s
 602:src/sys.h     **** #define SYS_GPC_MFPL_PC6MFP_UART0_RXD       (0x9UL<<SYS_GPC_MFPL_PC6MFP_Pos)    /*!< GPC_MFPL PC6 s
 603:src/sys.h     **** #define SYS_GPC_MFPL_PC6MFP_UART4_RXD       (0xAUL<<SYS_GPC_MFPL_PC6MFP_Pos)    /*!< GPC_MFPL PC6 s
 604:src/sys.h     **** 
 605:src/sys.h     **** //PC.7 MFP
 606:src/sys.h     **** #define SYS_GPC_MFPL_PC7MFP_EBI_AD15        (0x7UL<<SYS_GPC_MFPL_PC7MFP_Pos)    /*!< GPC_MFPL PC7 s
 607:src/sys.h     **** #define SYS_GPC_MFPL_PC7MFP_ECAP0_IC0       (0xEUL<<SYS_GPC_MFPL_PC7MFP_Pos)    /*!< GPC_MFPL PC7 s
 608:src/sys.h     **** #define SYS_GPC_MFPL_PC7MFP_GPIO            (0x0UL<<SYS_GPC_MFPL_PC7MFP_Pos)    /*!< GPC_MFPL PC7 s
 609:src/sys.h     **** #define SYS_GPC_MFPL_PC7MFP_I2C1_SMBSUS     (0x3UL<<SYS_GPC_MFPL_PC7MFP_Pos)    /*!< GPC_MFPL PC7 s
 610:src/sys.h     **** #define SYS_GPC_MFPL_PC7MFP_LCD_SEG26       (0xFUL<<SYS_GPC_MFPL_PC7MFP_Pos)    /*!< GPC_MFPL PC7 s
 611:src/sys.h     **** #define SYS_GPC_MFPL_PC7MFP_PWM1_CH1        (0x6UL<<SYS_GPC_MFPL_PC7MFP_Pos)    /*!< GPC_MFPL PC7 s
 612:src/sys.h     **** #define SYS_GPC_MFPL_PC7MFP_SC0_CLK         (0x4UL<<SYS_GPC_MFPL_PC7MFP_Pos)    /*!< GPC_MFPL PC7 s
 613:src/sys.h     **** #define SYS_GPC_MFPL_PC7MFP_SD1_CMD         (0xBUL<<SYS_GPC_MFPL_PC7MFP_Pos)    /*!< GPC_MFPL PC7 s
 614:src/sys.h     **** #define SYS_GPC_MFPL_PC7MFP_SPI5_MISO       (0xCUL<<SYS_GPC_MFPL_PC7MFP_Pos)    /*!< GPC_MFPL PC7 s
 615:src/sys.h     **** #define SYS_GPC_MFPL_PC7MFP_UART0_TXD       (0x9UL<<SYS_GPC_MFPL_PC7MFP_Pos)    /*!< GPC_MFPL PC7 s
 616:src/sys.h     **** #define SYS_GPC_MFPL_PC7MFP_UART4_nRTS      (0xAUL<<SYS_GPC_MFPL_PC7MFP_Pos)    /*!< GPC_MFPL PC7 s
 617:src/sys.h     **** 
 618:src/sys.h     **** //PC.8 MFP
 619:src/sys.h     **** #define SYS_GPC_MFPH_PC8MFP_BPWM0_CH0       (0xDUL<<SYS_GPC_MFPH_PC8MFP_Pos)    /*!< GPC_MFPH PC8 s
 620:src/sys.h     **** #define SYS_GPC_MFPH_PC8MFP_EBI_nCS2        (0x7UL<<SYS_GPC_MFPH_PC8MFP_Pos)    /*!< GPC_MFPH PC8 s
 621:src/sys.h     **** #define SYS_GPC_MFPH_PC8MFP_GPIO            (0x0UL<<SYS_GPC_MFPH_PC8MFP_Pos)    /*!< GPC_MFPH PC8 s
 622:src/sys.h     **** #define SYS_GPC_MFPH_PC8MFP_SPI2_I2SMCLK    (0x4UL<<SYS_GPC_MFPH_PC8MFP_Pos)    /*!< GPC_MFPH PC8 s
 623:src/sys.h     **** 
 624:src/sys.h     **** //PC.9 MFP
 625:src/sys.h     **** #define SYS_GPC_MFPH_PC9MFP_EBI_ADR15       (0x7UL<<SYS_GPC_MFPH_PC9MFP_Pos)    /*!< GPC_MFPH PC9 s
 626:src/sys.h     **** #define SYS_GPC_MFPH_PC9MFP_GPIO            (0x0UL<<SYS_GPC_MFPH_PC9MFP_Pos)    /*!< GPC_MFPH PC9 s
 627:src/sys.h     **** #define SYS_GPC_MFPH_PC9MFP_LCD_SEG10       (0xFUL<<SYS_GPC_MFPH_PC9MFP_Pos)    /*!< GPC_MFPH PC9 s
 628:src/sys.h     **** #define SYS_GPC_MFPH_PC9MFP_PWM1_CH0        (0x6UL<<SYS_GPC_MFPH_PC9MFP_Pos)    /*!< GPC_MFPH PC9 s
ARM GAS  C:\Users\CCMA\AppData\Local\Temp\ccBCHRX5.s 			page 29


 629:src/sys.h     **** #define SYS_GPC_MFPH_PC9MFP_SPI2_I2SMCLK    (0x2UL<<SYS_GPC_MFPH_PC9MFP_Pos)    /*!< GPC_MFPH PC9 s
 630:src/sys.h     **** 
 631:src/sys.h     **** //PC.10 MFP
 632:src/sys.h     **** #define SYS_GPC_MFPH_PC10MFP_EBI_ADR14      (0x7UL<<SYS_GPC_MFPH_PC10MFP_Pos)   /*!< GPC_MFPH PC10 
 633:src/sys.h     **** #define SYS_GPC_MFPH_PC10MFP_GPIO           (0x0UL<<SYS_GPC_MFPH_PC10MFP_Pos)   /*!< GPC_MFPH PC10 
 634:src/sys.h     **** #define SYS_GPC_MFPH_PC10MFP_LCD_SEG11      (0xFUL<<SYS_GPC_MFPH_PC10MFP_Pos)   /*!< GPC_MFPH PC10 
 635:src/sys.h     **** #define SYS_GPC_MFPH_PC10MFP_PWM1_CH1       (0x6UL<<SYS_GPC_MFPH_PC10MFP_Pos)   /*!< GPC_MFPH PC10 
 636:src/sys.h     **** #define SYS_GPC_MFPH_PC10MFP_SPI2_MOSI      (0x2UL<<SYS_GPC_MFPH_PC10MFP_Pos)   /*!< GPC_MFPH PC10 
 637:src/sys.h     **** 
 638:src/sys.h     **** //PC.11 MFP
 639:src/sys.h     **** #define SYS_GPC_MFPH_PC11MFP_EBI_ADR13      (0x7UL<<SYS_GPC_MFPH_PC11MFP_Pos)   /*!< GPC_MFPH PC11 
 640:src/sys.h     **** #define SYS_GPC_MFPH_PC11MFP_GPIO           (0x0UL<<SYS_GPC_MFPH_PC11MFP_Pos)   /*!< GPC_MFPH PC11 
 641:src/sys.h     **** #define SYS_GPC_MFPH_PC11MFP_LCD_SEG12      (0xFUL<<SYS_GPC_MFPH_PC11MFP_Pos)   /*!< GPC_MFPH PC11 
 642:src/sys.h     **** #define SYS_GPC_MFPH_PC11MFP_PWM1_CH2       (0x6UL<<SYS_GPC_MFPH_PC11MFP_Pos)   /*!< GPC_MFPH PC11 
 643:src/sys.h     **** #define SYS_GPC_MFPH_PC11MFP_SPI2_MISO      (0x2UL<<SYS_GPC_MFPH_PC11MFP_Pos)   /*!< GPC_MFPH PC11 
 644:src/sys.h     **** 
 645:src/sys.h     **** //PC.12 MFP
 646:src/sys.h     **** #define SYS_GPC_MFPH_PC12MFP_EBI_ADR12      (0x7UL<<SYS_GPC_MFPH_PC12MFP_Pos)   /*!< GPC_MFPH PC12 
 647:src/sys.h     **** #define SYS_GPC_MFPH_PC12MFP_GPIO           (0x0UL<<SYS_GPC_MFPH_PC12MFP_Pos)   /*!< GPC_MFPH PC12 
 648:src/sys.h     **** #define SYS_GPC_MFPH_PC12MFP_LCD_SEG13      (0xFUL<<SYS_GPC_MFPH_PC12MFP_Pos)   /*!< GPC_MFPH PC12 
 649:src/sys.h     **** #define SYS_GPC_MFPH_PC12MFP_PWM1_CH3       (0x6UL<<SYS_GPC_MFPH_PC12MFP_Pos)   /*!< GPC_MFPH PC12 
 650:src/sys.h     **** #define SYS_GPC_MFPH_PC12MFP_SPI2_CLK       (0x2UL<<SYS_GPC_MFPH_PC12MFP_Pos)   /*!< GPC_MFPH PC12 
 651:src/sys.h     **** 
 652:src/sys.h     **** //PC.13 MFP
 653:src/sys.h     **** #define SYS_GPC_MFPH_PC13MFP_EBI_ADR11      (0x7UL<<SYS_GPC_MFPH_PC13MFP_Pos)   /*!< GPC_MFPH PC13 
 654:src/sys.h     **** #define SYS_GPC_MFPH_PC13MFP_GPIO           (0x0UL<<SYS_GPC_MFPH_PC13MFP_Pos)   /*!< GPC_MFPH PC13 
 655:src/sys.h     **** #define SYS_GPC_MFPH_PC13MFP_LCD_SEG14      (0xFUL<<SYS_GPC_MFPH_PC13MFP_Pos)   /*!< GPC_MFPH PC13 
 656:src/sys.h     **** #define SYS_GPC_MFPH_PC13MFP_PWM1_CH4       (0x6UL<<SYS_GPC_MFPH_PC13MFP_Pos)   /*!< GPC_MFPH PC13 
 657:src/sys.h     **** #define SYS_GPC_MFPH_PC13MFP_SPI2_SS        (0x2UL<<SYS_GPC_MFPH_PC13MFP_Pos)   /*!< GPC_MFPH PC13 
 658:src/sys.h     **** 
 659:src/sys.h     **** //PC.14 MFP
 660:src/sys.h     **** #define SYS_GPC_MFPH_PC14MFP_EBI_ADR10      (0x7UL<<SYS_GPC_MFPH_PC14MFP_Pos)   /*!< GPC_MFPH PC14 
 661:src/sys.h     **** #define SYS_GPC_MFPH_PC14MFP_GPIO           (0x0UL<<SYS_GPC_MFPH_PC14MFP_Pos)   /*!< GPC_MFPH PC14 
 662:src/sys.h     **** #define SYS_GPC_MFPH_PC14MFP_LCD_SEG15      (0xFUL<<SYS_GPC_MFPH_PC14MFP_Pos)   /*!< GPC_MFPH PC14 
 663:src/sys.h     **** #define SYS_GPC_MFPH_PC14MFP_PWM1_CH5       (0x6UL<<SYS_GPC_MFPH_PC14MFP_Pos)   /*!< GPC_MFPH PC14 
 664:src/sys.h     **** 
 665:src/sys.h     **** //PC.15 MFP
 666:src/sys.h     **** #define SYS_GPC_MFPH_PC15MFP_EBI_ADR0       (0x7UL<<SYS_GPC_MFPH_PC15MFP_Pos)   /*!< GPC_MFPH PC15 
 667:src/sys.h     **** #define SYS_GPC_MFPH_PC15MFP_GPIO           (0x0UL<<SYS_GPC_MFPH_PC15MFP_Pos)   /*!< GPC_MFPH PC15 
 668:src/sys.h     **** #define SYS_GPC_MFPH_PC15MFP_LCD_SEG9       (0xFUL<<SYS_GPC_MFPH_PC15MFP_Pos)   /*!< GPC_MFPH PC15 
 669:src/sys.h     **** #define SYS_GPC_MFPH_PC15MFP_PWM1_CH0       (0x6UL<<SYS_GPC_MFPH_PC15MFP_Pos)   /*!< GPC_MFPH PC15 
 670:src/sys.h     **** #define SYS_GPC_MFPH_PC15MFP_SPI3_I2SMCLK   (0x9UL<<SYS_GPC_MFPH_PC15MFP_Pos)   /*!< GPC_MFPH PC15 
 671:src/sys.h     **** 
 672:src/sys.h     **** //PD.0 MFP
 673:src/sys.h     **** #define SYS_GPD_MFPL_PD0MFP_ACMP1_N         (0x5UL<<SYS_GPD_MFPL_PD0MFP_Pos)    /*!< GPD_MFPL PD0 s
 674:src/sys.h     **** #define SYS_GPD_MFPL_PD0MFP_BPWM0_CH2       (0xDUL<<SYS_GPD_MFPL_PD0MFP_Pos)    /*!< GPD_MFPL PD0 s
 675:src/sys.h     **** #define SYS_GPD_MFPL_PD0MFP_EBI_ALE         (0x7UL<<SYS_GPD_MFPL_PD0MFP_Pos)    /*!< GPD_MFPL PD0 s
 676:src/sys.h     **** #define SYS_GPD_MFPL_PD0MFP_GPIO            (0x0UL<<SYS_GPD_MFPL_PD0MFP_Pos)    /*!< GPD_MFPL PD0 s
 677:src/sys.h     **** #define SYS_GPD_MFPL_PD0MFP_INT3            (0x8UL<<SYS_GPD_MFPL_PD0MFP_Pos)    /*!< GPD_MFPL PD0 s
 678:src/sys.h     **** #define SYS_GPD_MFPL_PD0MFP_SC0_PWR         (0xAUL<<SYS_GPD_MFPL_PD0MFP_Pos)    /*!< GPD_MFPL PDM s
 679:src/sys.h     **** #define SYS_GPD_MFPL_PD0MFP_SC1_nCD         (0xBUL<<SYS_GPD_MFPL_PD0MFP_Pos)    /*!< GPD_MFPL PD0 s
 680:src/sys.h     **** #define SYS_GPD_MFPL_PD0MFP_SD1_DAT0        (0xEUL<<SYS_GPD_MFPL_PD0MFP_Pos)    /*!< GPD_MFPL PD0 s
 681:src/sys.h     **** #define SYS_GPD_MFPL_PD0MFP_SPI1_I2SMCLK    (0x2UL<<SYS_GPD_MFPL_PD0MFP_Pos)    /*!< GPD_MFPL PD0 s
 682:src/sys.h     **** #define SYS_GPD_MFPL_PD0MFP_TM3             (0xCUL<<SYS_GPD_MFPL_PD0MFP_Pos)    /*!< GPD_MFPL PD0 s
 683:src/sys.h     **** #define SYS_GPD_MFPL_PD0MFP_UART0_RXD       (0x3UL<<SYS_GPD_MFPL_PD0MFP_Pos)    /*!< GPD_MFPL PD0 s
 684:src/sys.h     **** #define SYS_GPD_MFPL_PD0MFP_UART5_RXD       (0x4UL<<SYS_GPD_MFPL_PD0MFP_Pos)    /*!< GPD_MFPL PD0 s
 685:src/sys.h     **** 
ARM GAS  C:\Users\CCMA\AppData\Local\Temp\ccBCHRX5.s 			page 30


 686:src/sys.h     **** //PD.1 MFP
 687:src/sys.h     **** #define SYS_GPD_MFPL_PD1MFP_ACMP1_P2        (0x5UL<<SYS_GPD_MFPL_PD1MFP_Pos)    /*!< GPD_MFPL PD1 s
 688:src/sys.h     **** #define SYS_GPD_MFPL_PD1MFP_BPWM0_CH3       (0xDUL<<SYS_GPD_MFPL_PD1MFP_Pos)    /*!< GPD_MFPL PD1 s
 689:src/sys.h     **** #define SYS_GPD_MFPL_PD1MFP_EBI_nRD         (0x7UL<<SYS_GPD_MFPL_PD1MFP_Pos)    /*!< GPD_MFPL PD1 s
 690:src/sys.h     **** #define SYS_GPD_MFPL_PD1MFP_GPIO            (0x0UL<<SYS_GPD_MFPL_PD1MFP_Pos)    /*!< GPD_MFPL PD1 s
 691:src/sys.h     **** #define SYS_GPD_MFPL_PD1MFP_OPA1_O          (0x9UL<<SYS_GPD_MFPL_PD1MFP_Pos)    /*!< GPD_MFPL PD1 s
 692:src/sys.h     **** #define SYS_GPD_MFPL_PD1MFP_PWM0_SYNC_IN    (0x2UL<<SYS_GPD_MFPL_PD1MFP_Pos)    /*!< GPD_MFPL PD1 s
 693:src/sys.h     **** #define SYS_GPD_MFPL_PD1MFP_QEI0_B          (0x8UL<<SYS_GPD_MFPL_PD1MFP_Pos)    /*!< GPD_MFPL PD1 s
 694:src/sys.h     **** #define SYS_GPD_MFPL_PD1MFP_SC0_RST         (0xAUL<<SYS_GPD_MFPL_PD1MFP_Pos)    /*!< GPD_MFPL PD1 s
 695:src/sys.h     **** #define SYS_GPD_MFPL_PD1MFP_SC2_RST         (0xBUL<<SYS_GPD_MFPL_PD1MFP_Pos)    /*!< GPD_MFPL PD1 s
 696:src/sys.h     **** #define SYS_GPD_MFPL_PD1MFP_SD1_CLK         (0xEUL<<SYS_GPD_MFPL_PD1MFP_Pos)    /*!< GPD_MFPL PD1 s
 697:src/sys.h     **** #define SYS_GPD_MFPL_PD1MFP_SPI2_MISO       (0x4UL<<SYS_GPD_MFPL_PD1MFP_Pos)    /*!< GPD_MFPL PD1 s
 698:src/sys.h     **** #define SYS_GPD_MFPL_PD1MFP_SPI3_I2SMCLK    (0xFUL<<SYS_GPD_MFPL_PD1MFP_Pos)    /*!< GPD_MFPL PD1 s
 699:src/sys.h     **** #define SYS_GPD_MFPL_PD1MFP_TM0             (0x6UL<<SYS_GPD_MFPL_PD1MFP_Pos)    /*!< GPD_MFPL PD1 s
 700:src/sys.h     **** #define SYS_GPD_MFPL_PD1MFP_UART0_TXD       (0x3UL<<SYS_GPD_MFPL_PD1MFP_Pos)    /*!< GPD_MFPL PD1 s
 701:src/sys.h     **** #define SYS_GPD_MFPL_PD1MFP_UART5_RXD       (0x1UL<<SYS_GPD_MFPL_PD1MFP_Pos)    /*!< GPD_MFPL PD1 s
 702:src/sys.h     **** #define SYS_GPD_MFPL_PD1MFP_USCI0_CTL0      (0xCUL<<SYS_GPD_MFPL_PD1MFP_Pos)    /*!< GPD_MFPL PD1 s
 703:src/sys.h     **** 
 704:src/sys.h     **** //PD.2 MFP
 705:src/sys.h     **** #define SYS_GPD_MFPL_PD2MFP_ACMP1_P1        (0x5UL<<SYS_GPD_MFPL_PD2MFP_Pos)    /*!< GPD_MFPL PD2 s
 706:src/sys.h     **** #define SYS_GPD_MFPL_PD2MFP_BPWM0_CH4       (0xDUL<<SYS_GPD_MFPL_PD2MFP_Pos)    /*!< GPD_MFPL PD2 s
 707:src/sys.h     **** #define SYS_GPD_MFPL_PD2MFP_EADC0_ST        (0x1UL<<SYS_GPD_MFPL_PD2MFP_Pos)    /*!< GPD_MFPL PD2 s
 708:src/sys.h     **** #define SYS_GPD_MFPL_PD2MFP_EBI_nWR         (0x7UL<<SYS_GPD_MFPL_PD2MFP_Pos)    /*!< GPD_MFPL PD2 s
 709:src/sys.h     **** #define SYS_GPD_MFPL_PD2MFP_GPIO            (0x0UL<<SYS_GPD_MFPL_PD2MFP_Pos)    /*!< GPD_MFPL PD2 s
 710:src/sys.h     **** #define SYS_GPD_MFPL_PD2MFP_INT0            (0x8UL<<SYS_GPD_MFPL_PD2MFP_Pos)    /*!< GPD_MFPL PD2 s
 711:src/sys.h     **** #define SYS_GPD_MFPL_PD2MFP_OPA1_N          (0x9UL<<SYS_GPD_MFPL_PD2MFP_Pos)    /*!< GPD_MFPL PD2 s
 712:src/sys.h     **** #define SYS_GPD_MFPL_PD2MFP_PWM0_BRAKE0     (0x6UL<<SYS_GPD_MFPL_PD2MFP_Pos)    /*!< GPD_MFPL PD2 s
 713:src/sys.h     **** #define SYS_GPD_MFPL_PD2MFP_SC0_DAT         (0xAUL<<SYS_GPD_MFPL_PD2MFP_Pos)    /*!< GPD_MFPL PD2 s
 714:src/sys.h     **** #define SYS_GPD_MFPL_PD2MFP_SC2_CLK         (0xBUL<<SYS_GPD_MFPL_PD2MFP_Pos)    /*!< GPD_MFPL PD2 s
 715:src/sys.h     **** #define SYS_GPD_MFPL_PD2MFP_SD1_nCD         (0xEUL<<SYS_GPD_MFPL_PD2MFP_Pos)    /*!< GPD_MFPL PD2 s
 716:src/sys.h     **** #define SYS_GPD_MFPL_PD2MFP_SPI2_CLK        (0x4UL<<SYS_GPD_MFPL_PD2MFP_Pos)    /*!< GPD_MFPL PD2 s
 717:src/sys.h     **** #define SYS_GPD_MFPL_PD2MFP_TM0_EXT         (0x3UL<<SYS_GPD_MFPL_PD2MFP_Pos)    /*!< GPD_MFPL PD2 s
 718:src/sys.h     **** #define SYS_GPD_MFPL_PD2MFP_UART3_TXD       (0x2UL<<SYS_GPD_MFPL_PD2MFP_Pos)    /*!< GPD_MFPL PD2 s
 719:src/sys.h     **** #define SYS_GPD_MFPL_PD2MFP_USCI0_CTL1      (0xCUL<<SYS_GPD_MFPL_PD2MFP_Pos)    /*!< GPD_MFPL PD2 s
 720:src/sys.h     **** 
 721:src/sys.h     **** //PD.3 MFP
 722:src/sys.h     **** #define SYS_GPD_MFPL_PD3MFP_ACMP1_P0        (0x5UL<<SYS_GPD_MFPL_PD3MFP_Pos)    /*!< GPD_MFPL PD3 s
 723:src/sys.h     **** #define SYS_GPD_MFPL_PD3MFP_BPWM0_CH5       (0xDUL<<SYS_GPD_MFPL_PD3MFP_Pos)    /*!< GPD_MFPL PD3 s
 724:src/sys.h     **** #define SYS_GPD_MFPL_PD3MFP_EBI_MCLK        (0x7UL<<SYS_GPD_MFPL_PD3MFP_Pos)    /*!< GPD_MFPL PD3 s
 725:src/sys.h     **** #define SYS_GPD_MFPL_PD3MFP_GPIO            (0x0UL<<SYS_GPD_MFPL_PD3MFP_Pos)    /*!< GPD_MFPL PD3 s
 726:src/sys.h     **** #define SYS_GPD_MFPL_PD3MFP_INT1            (0x8UL<<SYS_GPD_MFPL_PD3MFP_Pos)    /*!< GPD_MFPL PD3 s
 727:src/sys.h     **** #define SYS_GPD_MFPL_PD3MFP_OPA1_P          (0x9UL<<SYS_GPD_MFPL_PD3MFP_Pos)    /*!< GPD_MFPL PD3 s
 728:src/sys.h     **** #define SYS_GPD_MFPL_PD3MFP_PWM0_BRAKE1     (0x6UL<<SYS_GPD_MFPL_PD3MFP_Pos)    /*!< GPD_MFPL PD3 s
 729:src/sys.h     **** #define SYS_GPD_MFPL_PD3MFP_SC0_CLK         (0xAUL<<SYS_GPD_MFPL_PD3MFP_Pos)    /*!< GPD_MFPL PD3 s
 730:src/sys.h     **** #define SYS_GPD_MFPL_PD3MFP_SC2_DAT         (0xBUL<<SYS_GPD_MFPL_PD3MFP_Pos)    /*!< GPD_MFPL PD3 s
 731:src/sys.h     **** #define SYS_GPD_MFPL_PD3MFP_SD1_CMD         (0xEUL<<SYS_GPD_MFPL_PD3MFP_Pos)    /*!< GPD_MFPL PD3 s
 732:src/sys.h     **** #define SYS_GPD_MFPL_PD3MFP_SPI1_I2SMCLK    (0x4UL<<SYS_GPD_MFPL_PD3MFP_Pos)    /*!< GPD_MFPL PD3 s
 733:src/sys.h     **** #define SYS_GPD_MFPL_PD3MFP_TM1_EXT         (0x3UL<<SYS_GPD_MFPL_PD3MFP_Pos)    /*!< GPD_MFPL PD3 s
 734:src/sys.h     **** #define SYS_GPD_MFPL_PD3MFP_TM2             (0x1UL<<SYS_GPD_MFPL_PD3MFP_Pos)    /*!< GPD_MFPL PD3 s
 735:src/sys.h     **** #define SYS_GPD_MFPL_PD3MFP_UART3_RXD       (0x2UL<<SYS_GPD_MFPL_PD3MFP_Pos)    /*!< GPD_MFPL PD3 s
 736:src/sys.h     **** #define SYS_GPD_MFPL_PD3MFP_USCI0_CLK       (0xCUL<<SYS_GPD_MFPL_PD3MFP_Pos)    /*!< GPD_MFPL PD3 s
 737:src/sys.h     **** 
 738:src/sys.h     **** //PD.4 MFP
 739:src/sys.h     **** #define SYS_GPD_MFPL_PD4MFP_EBI_AD11        (0x7UL<<SYS_GPD_MFPL_PD4MFP_Pos)    /*!< GPD_MFPL PD4 s
 740:src/sys.h     **** #define SYS_GPD_MFPL_PD4MFP_GPIO            (0x0UL<<SYS_GPD_MFPL_PD4MFP_Pos)    /*!< GPD_MFPL PD4 s
 741:src/sys.h     **** #define SYS_GPD_MFPL_PD4MFP_I2C0_SDA        (0x3UL<<SYS_GPD_MFPL_PD4MFP_Pos)    /*!< GPD_MFPL PD4 s
 742:src/sys.h     **** #define SYS_GPD_MFPL_PD4MFP_PWM0_BRAKE0     (0x5UL<<SYS_GPD_MFPL_PD4MFP_Pos)    /*!< GPD_MFPL PD4 s
ARM GAS  C:\Users\CCMA\AppData\Local\Temp\ccBCHRX5.s 			page 31


 743:src/sys.h     **** #define SYS_GPD_MFPL_PD4MFP_SPI1_CLK        (0x2UL<<SYS_GPD_MFPL_PD4MFP_Pos)    /*!< GPD_MFPL PD4 s
 744:src/sys.h     **** #define SYS_GPD_MFPL_PD4MFP_TM0             (0x6UL<<SYS_GPD_MFPL_PD4MFP_Pos)    /*!< GPD_MFPL PD4 s
 745:src/sys.h     **** 
 746:src/sys.h     **** //PD.5 MFP
 747:src/sys.h     **** #define SYS_GPD_MFPL_PD5MFP_CLKO            (0x1UL<<SYS_GPD_MFPL_PD5MFP_Pos)    /*!< GPD_MFPL PD5 s
 748:src/sys.h     **** #define SYS_GPD_MFPL_PD5MFP_EBI_AD12        (0x7UL<<SYS_GPD_MFPL_PD5MFP_Pos)    /*!< GPD_MFPL PD5 s
 749:src/sys.h     **** #define SYS_GPD_MFPL_PD5MFP_GPIO            (0x0UL<<SYS_GPD_MFPL_PD5MFP_Pos)    /*!< GPD_MFPL PD5 s
 750:src/sys.h     **** #define SYS_GPD_MFPL_PD5MFP_I2C0_SCL        (0x3UL<<SYS_GPD_MFPL_PD5MFP_Pos)    /*!< GPD_MFPL PD5 s
 751:src/sys.h     **** #define SYS_GPD_MFPL_PD5MFP_OPA2_O          (0x9UL<<SYS_GPD_MFPL_PD5MFP_Pos)    /*!< GPD_MFPL PD5 s
 752:src/sys.h     **** #define SYS_GPD_MFPL_PD5MFP_PWM0_BRAKE1     (0x5UL<<SYS_GPD_MFPL_PD5MFP_Pos)    /*!< GPD_MFPL PD5 s
 753:src/sys.h     **** #define SYS_GPD_MFPL_PD5MFP_SPI1_MISO       (0x2UL<<SYS_GPD_MFPL_PD5MFP_Pos)    /*!< GPD_MFPL PD5 s
 754:src/sys.h     **** #define SYS_GPD_MFPL_PD5MFP_TM1             (0x6UL<<SYS_GPD_MFPL_PD5MFP_Pos)    /*!< GPD_MFPL PD5 s
 755:src/sys.h     **** 
 756:src/sys.h     **** //PD.6 MFP
 757:src/sys.h     **** #define SYS_GPD_MFPL_PD6MFP_ACMP0_O         (0x5UL<<SYS_GPD_MFPL_PD6MFP_Pos)    /*!< GPD_MFPL PD6 s
 758:src/sys.h     **** #define SYS_GPD_MFPL_PD6MFP_CLKO            (0x1UL<<SYS_GPD_MFPL_PD6MFP_Pos)    /*!< GPD_MFPL PD6 s
 759:src/sys.h     **** #define SYS_GPD_MFPL_PD6MFP_EBI_nWR         (0x7UL<<SYS_GPD_MFPL_PD6MFP_Pos)    /*!< GPD_MFPL PD6 s
 760:src/sys.h     **** #define SYS_GPD_MFPL_PD6MFP_GPIO            (0x0UL<<SYS_GPD_MFPL_PD6MFP_Pos)    /*!< GPD_MFPL PD6 s
 761:src/sys.h     **** #define SYS_GPD_MFPL_PD6MFP_OPA2_P          (0x9UL<<SYS_GPD_MFPL_PD6MFP_Pos)    /*!< GPD_MFPL PD6 s
 762:src/sys.h     **** #define SYS_GPD_MFPL_PD6MFP_PWM0_CH5        (0x6UL<<SYS_GPD_MFPL_PD6MFP_Pos)    /*!< GPD_MFPL PD6 s
 763:src/sys.h     **** #define SYS_GPD_MFPL_PD6MFP_SD0_CMD         (0xEUL<<SYS_GPD_MFPL_PD6MFP_Pos)    /*!< GPD_MFPL PD6 s
 764:src/sys.h     **** #define SYS_GPD_MFPL_PD6MFP_SPI1_SS         (0x2UL<<SYS_GPD_MFPL_PD6MFP_Pos)    /*!< GPD_MFPL PD6 s
 765:src/sys.h     **** #define SYS_GPD_MFPL_PD6MFP_UART0_RXD       (0x3UL<<SYS_GPD_MFPL_PD6MFP_Pos)    /*!< GPD_MFPL PD6 s
 766:src/sys.h     **** 
 767:src/sys.h     **** //PD.7 MFP
 768:src/sys.h     **** #define SYS_GPD_MFPL_PD7MFP_ACMP0_O         (0x5UL<<SYS_GPD_MFPL_PD7MFP_Pos)    /*!< GPD_MFPL PD7 s
 769:src/sys.h     **** #define SYS_GPD_MFPL_PD7MFP_EBI_nRD         (0x7UL<<SYS_GPD_MFPL_PD7MFP_Pos)    /*!< GPD_MFPL PD7 s
 770:src/sys.h     **** #define SYS_GPD_MFPL_PD7MFP_ECAP1_IC1       (0xDUL<<SYS_GPD_MFPL_PD7MFP_Pos)    /*!< GPD_MFPL PD7 s
 771:src/sys.h     **** #define SYS_GPD_MFPL_PD7MFP_GPIO            (0x0UL<<SYS_GPD_MFPL_PD7MFP_Pos)    /*!< GPD_MFPL PD7 s
 772:src/sys.h     **** #define SYS_GPD_MFPL_PD7MFP_LCD_SEG8        (0xFUL<<SYS_GPD_MFPL_PD7MFP_Pos)    /*!< GPD_MFPL PD7 s
 773:src/sys.h     **** #define SYS_GPD_MFPL_PD7MFP_PWM0_CH5        (0x6UL<<SYS_GPD_MFPL_PD7MFP_Pos)    /*!< GPD_MFPL PD7 s
 774:src/sys.h     **** #define SYS_GPD_MFPL_PD7MFP_PWM0_SYNC_IN    (0x3UL<<SYS_GPD_MFPL_PD7MFP_Pos)    /*!< GPD_MFPL PD7 s
 775:src/sys.h     **** #define SYS_GPD_MFPL_PD7MFP_PWM1_BRAKE1     (0xCUL<<SYS_GPD_MFPL_PD7MFP_Pos)    /*!< GPD_MFPL PD7 s
 776:src/sys.h     **** #define SYS_GPD_MFPL_PD7MFP_SC0_nCD         (0xBUL<<SYS_GPD_MFPL_PD7MFP_Pos)    /*!< GPD_MFPL PD7 s
 777:src/sys.h     **** #define SYS_GPD_MFPL_PD7MFP_SC2_PWR         (0xAUL<<SYS_GPD_MFPL_PD7MFP_Pos)    /*!< GPD_MFPL PD7 s
 778:src/sys.h     **** #define SYS_GPD_MFPL_PD7MFP_SD0_CMD         (0xEUL<<SYS_GPD_MFPL_PD7MFP_Pos)    /*!< GPD_MFPL PD7 s
 779:src/sys.h     **** #define SYS_GPD_MFPL_PD7MFP_TM1             (0x4UL<<SYS_GPD_MFPL_PD7MFP_Pos)    /*!< GPD_MFPL PD7 s
 780:src/sys.h     **** 
 781:src/sys.h     **** //PD.8 MFP
 782:src/sys.h     **** #define SYS_GPD_MFPH_PD8MFP_ACMP1_WLAT      (0x5UL<<SYS_GPD_MFPH_PD8MFP_Pos)    /*!< GPD_MFPH PD8 s
 783:src/sys.h     **** #define SYS_GPD_MFPH_PD8MFP_BPWM0_CH1       (0xDUL<<SYS_GPD_MFPH_PD8MFP_Pos)    /*!< GPD_MFPH PD8 s
 784:src/sys.h     **** #define SYS_GPD_MFPH_PD8MFP_EBI_nCS0        (0x7UL<<SYS_GPD_MFPH_PD8MFP_Pos)    /*!< GPD_MFPH PD8 s
 785:src/sys.h     **** #define SYS_GPD_MFPH_PD8MFP_GPIO            (0x0UL<<SYS_GPD_MFPH_PD8MFP_Pos)    /*!< GPD_MFPH PD8 s
 786:src/sys.h     **** #define SYS_GPD_MFPH_PD8MFP_I2C0_SDA        (0x3UL<<SYS_GPD_MFPH_PD8MFP_Pos)    /*!< GPD_MFPH PD8 s
 787:src/sys.h     **** #define SYS_GPD_MFPH_PD8MFP_QEI0_INDEX      (0x8UL<<SYS_GPD_MFPH_PD8MFP_Pos)    /*!< GPD_MFPH PD8 s
 788:src/sys.h     **** #define SYS_GPD_MFPH_PD8MFP_SC2_nCD         (0xBUL<<SYS_GPD_MFPH_PD8MFP_Pos)    /*!< GPD_MFPH PD8 s
 789:src/sys.h     **** #define SYS_GPD_MFPH_PD8MFP_SPI2_SS         (0x4UL<<SYS_GPD_MFPH_PD8MFP_Pos)    /*!< GPD_MFPH PD8 s
 790:src/sys.h     **** #define SYS_GPD_MFPH_PD8MFP_USCI0_DAT0      (0xCUL<<SYS_GPD_MFPH_PD8MFP_Pos)    /*!< GPD_MFPH PD8 s
 791:src/sys.h     **** 
 792:src/sys.h     **** //PD.9 MFP
 793:src/sys.h     **** #define SYS_GPD_MFPH_PD9MFP_ACMP1_P3        (0x5UL<<SYS_GPD_MFPH_PD9MFP_Pos)    /*!< GPD_MFPH PD9 s
 794:src/sys.h     **** #define SYS_GPD_MFPH_PD9MFP_BPWM0_CH2       (0xDUL<<SYS_GPD_MFPH_PD9MFP_Pos)    /*!< GPD_MFPH PD9 s
 795:src/sys.h     **** #define SYS_GPD_MFPH_PD9MFP_EBI_ALE         (0x7UL<<SYS_GPD_MFPH_PD9MFP_Pos)    /*!< GPD_MFPH PD9 s
 796:src/sys.h     **** #define SYS_GPD_MFPH_PD9MFP_GPIO            (0x0UL<<SYS_GPD_MFPH_PD9MFP_Pos)    /*!< GPD_MFPH PD9 s
 797:src/sys.h     **** #define SYS_GPD_MFPH_PD9MFP_I2C0_SCL        (0x3UL<<SYS_GPD_MFPH_PD9MFP_Pos)    /*!< GPD_MFPH PD9 s
 798:src/sys.h     **** #define SYS_GPD_MFPH_PD9MFP_QEI0_A          (0x8UL<<SYS_GPD_MFPH_PD9MFP_Pos)    /*!< GPD_MFPH PD9 s
 799:src/sys.h     **** #define SYS_GPD_MFPH_PD9MFP_SC2_PWR         (0xBUL<<SYS_GPD_MFPH_PD9MFP_Pos)    /*!< GPD_MFPH PD9 s
ARM GAS  C:\Users\CCMA\AppData\Local\Temp\ccBCHRX5.s 			page 32


 800:src/sys.h     **** #define SYS_GPD_MFPH_PD9MFP_SPI2_MOSI       (0x4UL<<SYS_GPD_MFPH_PD9MFP_Pos)    /*!< GPD_MFPH PD9 s
 801:src/sys.h     **** #define SYS_GPD_MFPH_PD9MFP_USCI0_DAT1      (0xCUL<<SYS_GPD_MFPH_PD9MFP_Pos)    /*!< GPD_MFPH PD9 s
 802:src/sys.h     **** 
 803:src/sys.h     **** //PD.10 MFP
 804:src/sys.h     **** #define SYS_GPD_MFPH_PD10MFP_EBI_ADR9       (0x7UL<<SYS_GPD_MFPH_PD10MFP_Pos)   /*!< GPD_MFPH PD10 
 805:src/sys.h     **** #define SYS_GPD_MFPH_PD10MFP_GPIO           (0x0UL<<SYS_GPD_MFPH_PD10MFP_Pos)   /*!< GPD_MFPH PD10 
 806:src/sys.h     **** #define SYS_GPD_MFPH_PD10MFP_LCD_SEG2       (0xFUL<<SYS_GPD_MFPH_PD10MFP_Pos)   /*!< GPD_MFPH PD10 
 807:src/sys.h     **** #define SYS_GPD_MFPH_PD10MFP_SD0_DAT2       (0xEUL<<SYS_GPD_MFPH_PD10MFP_Pos)   /*!< GPD_MFPH PD10 
 808:src/sys.h     **** #define SYS_GPD_MFPH_PD10MFP_SPI1_CLK       (0x1UL<<SYS_GPD_MFPH_PD10MFP_Pos)   /*!< GPD_MFPH PD10 
 809:src/sys.h     **** #define SYS_GPD_MFPH_PD10MFP_TM2            (0x4UL<<SYS_GPD_MFPH_PD10MFP_Pos)   /*!< GPD_MFPH PD10 
 810:src/sys.h     **** #define SYS_GPD_MFPH_PD10MFP_USCI0_CTL1     (0xCUL<<SYS_GPD_MFPH_PD10MFP_Pos)   /*!< GPD_MFPH PD10 
 811:src/sys.h     **** 
 812:src/sys.h     **** //PD.11 MFP
 813:src/sys.h     **** #define SYS_GPD_MFPH_PD11MFP_EBI_ADR8       (0x7UL<<SYS_GPD_MFPH_PD11MFP_Pos)   /*!< GPD_MFPH PD11 
 814:src/sys.h     **** #define SYS_GPD_MFPH_PD11MFP_GPIO           (0x0UL<<SYS_GPD_MFPH_PD11MFP_Pos)   /*!< GPD_MFPH PD11 
 815:src/sys.h     **** #define SYS_GPD_MFPH_PD11MFP_LCD_SEG3       (0xFUL<<SYS_GPD_MFPH_PD11MFP_Pos)   /*!< GPD_MFPH PD11 
 816:src/sys.h     **** #define SYS_GPD_MFPH_PD11MFP_SD0_DAT1       (0xEUL<<SYS_GPD_MFPH_PD11MFP_Pos)   /*!< GPD_MFPH PD11 
 817:src/sys.h     **** #define SYS_GPD_MFPH_PD11MFP_SPI1_MOSI      (0x1UL<<SYS_GPD_MFPH_PD11MFP_Pos)   /*!< GPD_MFPH PD11 
 818:src/sys.h     **** #define SYS_GPD_MFPH_PD11MFP_TM3            (0x4UL<<SYS_GPD_MFPH_PD11MFP_Pos)   /*!< GPD_MFPH PD11 
 819:src/sys.h     **** #define SYS_GPD_MFPH_PD11MFP_USCI0_CTL0     (0xCUL<<SYS_GPD_MFPH_PD11MFP_Pos)   /*!< GPD_MFPH PD11 
 820:src/sys.h     **** 
 821:src/sys.h     **** //PD.12 MFP
 822:src/sys.h     **** #define SYS_GPD_MFPH_PD12MFP_EBI_ADR16      (0x7UL<<SYS_GPD_MFPH_PD12MFP_Pos)   /*!< GPD_MFPH PD12 
 823:src/sys.h     **** #define SYS_GPD_MFPH_PD12MFP_GPIO           (0x0UL<<SYS_GPD_MFPH_PD12MFP_Pos)   /*!< GPD_MFPH PD12 
 824:src/sys.h     **** #define SYS_GPD_MFPH_PD12MFP_LCD_SEG4       (0xFUL<<SYS_GPD_MFPH_PD12MFP_Pos)   /*!< GPD_MFPH PD12 
 825:src/sys.h     **** #define SYS_GPD_MFPH_PD12MFP_PWM1_CH0       (0x6UL<<SYS_GPD_MFPH_PD12MFP_Pos)   /*!< GPD_MFPH PD12 
 826:src/sys.h     **** #define SYS_GPD_MFPH_PD12MFP_SC2_nCD        (0xAUL<<SYS_GPD_MFPH_PD12MFP_Pos)   /*!< GPD_MFPH PD12 
 827:src/sys.h     **** #define SYS_GPD_MFPH_PD12MFP_SD0_DAT0       (0xEUL<<SYS_GPD_MFPH_PD12MFP_Pos)   /*!< GPD_MFPH PD12 
 828:src/sys.h     **** #define SYS_GPD_MFPH_PD12MFP_SPI1_MISO      (0x1UL<<SYS_GPD_MFPH_PD12MFP_Pos)   /*!< GPD_MFPH PD12 
 829:src/sys.h     **** #define SYS_GPD_MFPH_PD12MFP_SPI2_SS        (0x2UL<<SYS_GPD_MFPH_PD12MFP_Pos)   /*!< GPD_MFPH PD12 
 830:src/sys.h     **** #define SYS_GPD_MFPH_PD12MFP_UART3_TXD      (0x3UL<<SYS_GPD_MFPH_PD12MFP_Pos)   /*!< GPD_MFPH PD12 
 831:src/sys.h     **** #define SYS_GPD_MFPH_PD12MFP_USCI0_CLK      (0xCUL<<SYS_GPD_MFPH_PD12MFP_Pos)   /*!< GPD_MFPH PD12 
 832:src/sys.h     **** 
 833:src/sys.h     **** //PD.13 MFP
 834:src/sys.h     **** #define SYS_GPD_MFPH_PD13MFP_EBI_ADR17      (0x7UL<<SYS_GPD_MFPH_PD13MFP_Pos)   /*!< GPD_MFPH PD13 
 835:src/sys.h     **** #define SYS_GPD_MFPH_PD13MFP_GPIO           (0x0UL<<SYS_GPD_MFPH_PD13MFP_Pos)   /*!< GPD_MFPH PD13 
 836:src/sys.h     **** #define SYS_GPD_MFPH_PD13MFP_LCD_SEG5       (0xFUL<<SYS_GPD_MFPH_PD13MFP_Pos)   /*!< GPD_MFPH PD13 
 837:src/sys.h     **** #define SYS_GPD_MFPH_PD13MFP_PWM1_CH1       (0x6UL<<SYS_GPD_MFPH_PD13MFP_Pos)   /*!< GPD_MFPH PD13 
 838:src/sys.h     **** #define SYS_GPD_MFPH_PD13MFP_SC2_RST        (0xAUL<<SYS_GPD_MFPH_PD13MFP_Pos)   /*!< GPD_MFPH PD13 
 839:src/sys.h     **** #define SYS_GPD_MFPH_PD13MFP_SPI2_MOSI      (0x2UL<<SYS_GPD_MFPH_PD13MFP_Pos)   /*!< GPD_MFPH PD13 
 840:src/sys.h     **** #define SYS_GPD_MFPH_PD13MFP_UART3_RXD      (0x3UL<<SYS_GPD_MFPH_PD13MFP_Pos)   /*!< GPD_MFPH PD13 
 841:src/sys.h     **** 
 842:src/sys.h     **** //PD.14 MFP
 843:src/sys.h     **** #define SYS_GPD_MFPH_PD14MFP_EBI_ADR18      (0x7UL<<SYS_GPD_MFPH_PD14MFP_Pos)   /*!< GPD_MFPH PD14 
 844:src/sys.h     **** #define SYS_GPD_MFPH_PD14MFP_GPIO           (0x0UL<<SYS_GPD_MFPH_PD14MFP_Pos)   /*!< GPD_MFPH PD14 
 845:src/sys.h     **** #define SYS_GPD_MFPH_PD14MFP_LCD_SEG6       (0xFUL<<SYS_GPD_MFPH_PD14MFP_Pos)   /*!< GPD_MFPH PD14 
 846:src/sys.h     **** #define SYS_GPD_MFPH_PD14MFP_PWM1_BRAKE0    (0x5UL<<SYS_GPD_MFPH_PD14MFP_Pos)   /*!< GPD_MFPH PD14 
 847:src/sys.h     **** #define SYS_GPD_MFPH_PD14MFP_PWM1_CH2       (0x6UL<<SYS_GPD_MFPH_PD14MFP_Pos)   /*!< GPD_MFPH PD14 
 848:src/sys.h     **** #define SYS_GPD_MFPH_PD14MFP_SC2_DAT        (0xAUL<<SYS_GPD_MFPH_PD14MFP_Pos)   /*!< GPD_MFPH PD14 
 849:src/sys.h     **** #define SYS_GPD_MFPH_PD14MFP_SPI2_MISO      (0x2UL<<SYS_GPD_MFPH_PD14MFP_Pos)   /*!< GPD_MFPH PD14 
 850:src/sys.h     **** #define SYS_GPD_MFPH_PD14MFP_UART3_nCTS     (0x3UL<<SYS_GPD_MFPH_PD14MFP_Pos)   /*!< GPD_MFPH PD14 
 851:src/sys.h     **** 
 852:src/sys.h     **** //PD.15 MFP
 853:src/sys.h     **** #define SYS_GPD_MFPH_PD15MFP_EBI_ADR19      (0x7UL<<SYS_GPD_MFPH_PD15MFP_Pos)   /*!< GPD_MFPH PD15 
 854:src/sys.h     **** #define SYS_GPD_MFPH_PD15MFP_ECAP0_IC2      (0xDUL<<SYS_GPD_MFPH_PD15MFP_Pos)   /*!< GPD_MFPH PD15 
 855:src/sys.h     **** #define SYS_GPD_MFPH_PD15MFP_GPIO           (0x0UL<<SYS_GPD_MFPH_PD15MFP_Pos)   /*!< GPD_MFPH PD15 
 856:src/sys.h     **** #define SYS_GPD_MFPH_PD15MFP_LCD_SEG7       (0xFUL<<SYS_GPD_MFPH_PD15MFP_Pos)   /*!< GPD_MFPH PD15 
ARM GAS  C:\Users\CCMA\AppData\Local\Temp\ccBCHRX5.s 			page 33


 857:src/sys.h     **** #define SYS_GPD_MFPH_PD15MFP_PWM1_CH3       (0x6UL<<SYS_GPD_MFPH_PD15MFP_Pos)   /*!< GPD_MFPH PD15 
 858:src/sys.h     **** #define SYS_GPD_MFPH_PD15MFP_QEI0_INDEX     (0xCUL<<SYS_GPD_MFPH_PD15MFP_Pos)   /*!< GPD_MFPH PD15 
 859:src/sys.h     **** #define SYS_GPD_MFPH_PD15MFP_QEI1_INDEX     (0xBUL<<SYS_GPD_MFPH_PD15MFP_Pos)   /*!< GPD_MFPH PD15 
 860:src/sys.h     **** #define SYS_GPD_MFPH_PD15MFP_SC2_CLK        (0xAUL<<SYS_GPD_MFPH_PD15MFP_Pos)   /*!< GPD_MFPH PD15 
 861:src/sys.h     **** #define SYS_GPD_MFPH_PD15MFP_SD0_nCD        (0xEUL<<SYS_GPD_MFPH_PD15MFP_Pos)   /*!< GPD_MFPH PD15 
 862:src/sys.h     **** #define SYS_GPD_MFPH_PD15MFP_SPI2_CLK       (0x2UL<<SYS_GPD_MFPH_PD15MFP_Pos)   /*!< GPD_MFPH PD15 
 863:src/sys.h     **** #define SYS_GPD_MFPH_PD15MFP_UART3_nRTS     (0x3UL<<SYS_GPD_MFPH_PD15MFP_Pos)   /*!< GPD_MFPH PD15 
 864:src/sys.h     **** 
 865:src/sys.h     **** //PE.0 MFP
 866:src/sys.h     **** #define SYS_GPE_MFPL_PE0MFP_BPWM0_CH0       (0x4UL<<SYS_GPE_MFPL_PE0MFP_Pos)    /*!< GPE_MFPL PE0 s
 867:src/sys.h     **** #define SYS_GPE_MFPL_PE0MFP_EBI_nCS1        (0x7UL<<SYS_GPE_MFPL_PE0MFP_Pos)    /*!< GPE_MFPL PE0 s
 868:src/sys.h     **** #define SYS_GPE_MFPL_PE0MFP_ECAP0_IC2       (0xEUL<<SYS_GPE_MFPL_PE0MFP_Pos)    /*!< GPE_MFPL PE0 s
 869:src/sys.h     **** #define SYS_GPE_MFPL_PE0MFP_GPIO            (0x0UL<<SYS_GPE_MFPL_PE0MFP_Pos)    /*!< GPE_MFPL PE0 s
 870:src/sys.h     **** #define SYS_GPE_MFPL_PE0MFP_I2C1_SDA        (0x3UL<<SYS_GPE_MFPL_PE0MFP_Pos)    /*!< GPE_MFPL PE0 s
 871:src/sys.h     **** #define SYS_GPE_MFPL_PE0MFP_I2S0_BCLK       (0xAUL<<SYS_GPE_MFPL_PE0MFP_Pos)    /*!< GPE_MFPL PE0 s
 872:src/sys.h     **** #define SYS_GPE_MFPL_PE0MFP_INT4            (0x8UL<<SYS_GPE_MFPL_PE0MFP_Pos)    /*!< GPE_MFPL PE0 s
 873:src/sys.h     **** #define SYS_GPE_MFPL_PE0MFP_LCD_SEG21       (0xFUL<<SYS_GPE_MFPL_PE0MFP_Pos)    /*!< GPE_MFPL PE0 s
 874:src/sys.h     **** #define SYS_GPE_MFPL_PE0MFP_PWM0_CH0        (0x6UL<<SYS_GPE_MFPL_PE0MFP_Pos)    /*!< GPE_MFPL PE0 s
 875:src/sys.h     **** #define SYS_GPE_MFPL_PE0MFP_PWM0_CH5        (0xBUL<<SYS_GPE_MFPL_PE0MFP_Pos)    /*!< GPE_MFPL PE0 s
 876:src/sys.h     **** #define SYS_GPE_MFPL_PE0MFP_SC0_nCD         (0x5UL<<SYS_GPE_MFPL_PE0MFP_Pos)    /*!< GPE_MFPL PE0 s
 877:src/sys.h     **** #define SYS_GPE_MFPL_PE0MFP_SPI0_CLK        (0xCUL<<SYS_GPE_MFPL_PE0MFP_Pos)    /*!< GPE_MFPL PE0 s
 878:src/sys.h     **** #define SYS_GPE_MFPL_PE0MFP_SPI0_SS         (0x1UL<<SYS_GPE_MFPL_PE0MFP_Pos)    /*!< GPE_MFPL PE0 s
 879:src/sys.h     **** #define SYS_GPE_MFPL_PE0MFP_SPI2_CLK        (0x2UL<<SYS_GPE_MFPL_PE0MFP_Pos)    /*!< GPE_MFPL PE0 s
 880:src/sys.h     **** #define SYS_GPE_MFPL_PE0MFP_TM2_EXT         (0xDUL<<SYS_GPE_MFPL_PE0MFP_Pos)    /*!< GPE_MFPL PE0 s
 881:src/sys.h     **** #define SYS_GPE_MFPL_PE0MFP_UART4_RXD       (0x9UL<<SYS_GPE_MFPL_PE0MFP_Pos)    /*!< GPE_MFPL PE0 s
 882:src/sys.h     **** 
 883:src/sys.h     **** //PE.1 MFP
 884:src/sys.h     **** #define SYS_GPE_MFPL_PE1MFP_DSRC_TXON       (0xEUL<<SYS_GPE_MFPL_PE1MFP_Pos)    /*!< GPE_MFPL PE1 s
 885:src/sys.h     **** #define SYS_GPE_MFPL_PE1MFP_EBI_ADR7        (0x7UL<<SYS_GPE_MFPL_PE1MFP_Pos)    /*!< GPE_MFPL PE1 s
 886:src/sys.h     **** #define SYS_GPE_MFPL_PE1MFP_GPIO            (0x0UL<<SYS_GPE_MFPL_PE1MFP_Pos)    /*!< GPE_MFPL PE1 s
 887:src/sys.h     **** #define SYS_GPE_MFPL_PE1MFP_LCD_SEG34       (0xFUL<<SYS_GPE_MFPL_PE1MFP_Pos)    /*!< GPE_MFPL PE1 s
 888:src/sys.h     **** #define SYS_GPE_MFPL_PE1MFP_PWM0_CH1        (0x6UL<<SYS_GPE_MFPL_PE1MFP_Pos)    /*!< GPE_MFPL PE1 s
 889:src/sys.h     **** #define SYS_GPE_MFPL_PE1MFP_SC0_nCD         (0x5UL<<SYS_GPE_MFPL_PE1MFP_Pos)    /*!< GPE_MFPL PE1 s
 890:src/sys.h     **** #define SYS_GPE_MFPL_PE1MFP_SD1_nCD         (0xBUL<<SYS_GPE_MFPL_PE1MFP_Pos)    /*!< GPE_MFPL PE1 s
 891:src/sys.h     **** #define SYS_GPE_MFPL_PE1MFP_TM3_EXT         (0x3UL<<SYS_GPE_MFPL_PE1MFP_Pos)    /*!< GPE_MFPL PE1 s
 892:src/sys.h     **** #define SYS_GPE_MFPL_PE1MFP_UART1_RXD       (0x1UL<<SYS_GPE_MFPL_PE1MFP_Pos)    /*!< GPE_MFPL PE1 s
 893:src/sys.h     **** 
 894:src/sys.h     **** //PE.2 MFP
 895:src/sys.h     **** #define SYS_GPE_MFPL_PE2MFP_EBI_ADR9        (0x7UL<<SYS_GPE_MFPL_PE2MFP_Pos)    /*!< GPE_MFPL PE2 s
 896:src/sys.h     **** #define SYS_GPE_MFPL_PE2MFP_GPIO            (0x0UL<<SYS_GPE_MFPL_PE2MFP_Pos)    /*!< GPE_MFPL PE2 s
 897:src/sys.h     **** #define SYS_GPE_MFPL_PE2MFP_PWM1_CH1        (0x6UL<<SYS_GPE_MFPL_PE2MFP_Pos)    /*!< GPE_MFPL PE2 s
 898:src/sys.h     **** #define SYS_GPE_MFPL_PE2MFP_SPI3_MISO       (0x9UL<<SYS_GPE_MFPL_PE2MFP_Pos)    /*!< GPE_MFPL PE2 s
 899:src/sys.h     **** 
 900:src/sys.h     **** //PE.3 MFP
 901:src/sys.h     **** #define SYS_GPE_MFPL_PE3MFP_EBI_AD13        (0x7UL<<SYS_GPE_MFPL_PE3MFP_Pos)    /*!< GPE_MFPL PE3 s
 902:src/sys.h     **** #define SYS_GPE_MFPL_PE3MFP_GPIO            (0x0UL<<SYS_GPE_MFPL_PE3MFP_Pos)    /*!< GPE_MFPL PE3 s
 903:src/sys.h     **** #define SYS_GPE_MFPL_PE3MFP_OPA2_N          (0x9UL<<SYS_GPE_MFPL_PE3MFP_Pos)    /*!< GPE_MFPL PE3 s
 904:src/sys.h     **** #define SYS_GPE_MFPL_PE3MFP_PWM0_CH3        (0x6UL<<SYS_GPE_MFPL_PE3MFP_Pos)    /*!< GPE_MFPL PE3 s
 905:src/sys.h     **** #define SYS_GPE_MFPL_PE3MFP_SD0_nCD         (0xEUL<<SYS_GPE_MFPL_PE3MFP_Pos)    /*!< GPE_MFPL PE3 s
 906:src/sys.h     **** #define SYS_GPE_MFPL_PE3MFP_SPI1_MOSI       (0x2UL<<SYS_GPE_MFPL_PE3MFP_Pos)    /*!< GPE_MFPL PE3 s
 907:src/sys.h     **** 
 908:src/sys.h     **** //PE.4 MFP
 909:src/sys.h     **** #define SYS_GPE_MFPL_PE4MFP_EBI_nCS0        (0x7UL<<SYS_GPE_MFPL_PE4MFP_Pos)    /*!< GPE_MFPL PE4 s
 910:src/sys.h     **** #define SYS_GPE_MFPL_PE4MFP_GPIO            (0x0UL<<SYS_GPE_MFPL_PE4MFP_Pos)    /*!< GPE_MFPL PE4 s
 911:src/sys.h     **** #define SYS_GPE_MFPL_PE4MFP_I2C1_SCL        (0x3UL<<SYS_GPE_MFPL_PE4MFP_Pos)    /*!< GPE_MFPL PE4 s
 912:src/sys.h     **** #define SYS_GPE_MFPL_PE4MFP_INT0            (0x8UL<<SYS_GPE_MFPL_PE4MFP_Pos)    /*!< GPE_MFPL PE4 s
 913:src/sys.h     **** #define SYS_GPE_MFPL_PE4MFP_LCD_SEG27       (0xFUL<<SYS_GPE_MFPL_PE4MFP_Pos)    /*!< GPE_MFPL PE4 s
ARM GAS  C:\Users\CCMA\AppData\Local\Temp\ccBCHRX5.s 			page 34


 914:src/sys.h     **** #define SYS_GPE_MFPL_PE4MFP_PWM1_BRAKE0     (0x6UL<<SYS_GPE_MFPL_PE4MFP_Pos)    /*!< GPE_MFPL PE4 s
 915:src/sys.h     **** #define SYS_GPE_MFPL_PE4MFP_SC0_PWR         (0x4UL<<SYS_GPE_MFPL_PE4MFP_Pos)    /*!< GPE_MFPL PE4 s
 916:src/sys.h     **** #define SYS_GPE_MFPL_PE4MFP_SPI5_SS         (0xCUL<<SYS_GPE_MFPL_PE4MFP_Pos)    /*!< GPE_MFPL PE4 s
 917:src/sys.h     **** 
 918:src/sys.h     **** //PE.5 MFP
 919:src/sys.h     **** #define SYS_GPE_MFPL_PE5MFP_EBI_ALE         (0x7UL<<SYS_GPE_MFPL_PE5MFP_Pos)    /*!< GPE_MFPL PE5 s
 920:src/sys.h     **** #define SYS_GPE_MFPL_PE5MFP_GPIO            (0x0UL<<SYS_GPE_MFPL_PE5MFP_Pos)    /*!< GPE_MFPL PE5 s
 921:src/sys.h     **** #define SYS_GPE_MFPL_PE5MFP_I2C1_SDA        (0x3UL<<SYS_GPE_MFPL_PE5MFP_Pos)    /*!< GPE_MFPL PE5 s
 922:src/sys.h     **** #define SYS_GPE_MFPL_PE5MFP_INT1            (0x8UL<<SYS_GPE_MFPL_PE5MFP_Pos)    /*!< GPE_MFPL PE5 s
 923:src/sys.h     **** #define SYS_GPE_MFPL_PE5MFP_LCD_SEG28       (0xFUL<<SYS_GPE_MFPL_PE5MFP_Pos)    /*!< GPE_MFPL PE5 s
 924:src/sys.h     **** #define SYS_GPE_MFPL_PE5MFP_PWM1_BRAKE1     (0x6UL<<SYS_GPE_MFPL_PE5MFP_Pos)    /*!< GPE_MFPL PE5 s
 925:src/sys.h     **** #define SYS_GPE_MFPL_PE5MFP_SC0_RST         (0x4UL<<SYS_GPE_MFPL_PE5MFP_Pos)    /*!< GPE_MFPL PE5 s
 926:src/sys.h     **** #define SYS_GPE_MFPL_PE5MFP_SPI5_CLK        (0xCUL<<SYS_GPE_MFPL_PE5MFP_Pos)    /*!< GPE_MFPL PE5 s
 927:src/sys.h     **** 
 928:src/sys.h     **** //PE.6 MFP
 929:src/sys.h     **** #define SYS_GPE_MFPL_PE6MFP_GPIO            (0x0UL<<SYS_GPE_MFPL_PE6MFP_Pos)    /*!< GPE_MFPL PE6 s
 930:src/sys.h     **** #define SYS_GPE_MFPL_PE6MFP_LCD_COM4_SEG40  (0xFUL<<SYS_GPE_MFPL_PE6MFP_Pos)    /*!< GPE_MFPL PE6 s
 931:src/sys.h     **** #define SYS_GPE_MFPL_PE6MFP_SD1_DAT0        (0xBUL<<SYS_GPE_MFPL_PE6MFP_Pos)    /*!< GPE_MFPL PE6 s
 932:src/sys.h     **** #define SYS_GPE_MFPL_PE6MFP_TM3_EXT         (0x3UL<<SYS_GPE_MFPL_PE6MFP_Pos)    /*!< GPE_MFPL PE6 s
 933:src/sys.h     **** 
 934:src/sys.h     **** //PE.7 MFP
 935:src/sys.h     **** #define SYS_GPE_MFPL_PE7MFP_EBI_MCLK        (0x7UL<<SYS_GPE_MFPL_PE7MFP_Pos)    /*!< GPE_MFPL PE7 s
 936:src/sys.h     **** #define SYS_GPE_MFPL_PE7MFP_GPIO            (0x0UL<<SYS_GPE_MFPL_PE7MFP_Pos)    /*!< GPE_MFPL PE7 s
 937:src/sys.h     **** #define SYS_GPE_MFPL_PE7MFP_PWM1_BRAKE1     (0xDUL<<SYS_GPE_MFPL_PE7MFP_Pos)    /*!< GPE_MFPL PE7 s
 938:src/sys.h     **** 
 939:src/sys.h     **** //PE.8 MFP
 940:src/sys.h     **** #define SYS_GPE_MFPH_PE8MFP_BPWM1_CH0       (0xDUL<<SYS_GPE_MFPH_PE8MFP_Pos)    /*!< GPE_MFPH PE8 s
 941:src/sys.h     **** #define SYS_GPE_MFPH_PE8MFP_CLKO            (0x9UL<<SYS_GPE_MFPH_PE8MFP_Pos)    /*!< GPE_MFPH PE8 s
 942:src/sys.h     **** #define SYS_GPE_MFPH_PE8MFP_DSRC_RXON       (0xEUL<<SYS_GPE_MFPH_PE8MFP_Pos)    /*!< GPE_MFPH PE8 s
 943:src/sys.h     **** #define SYS_GPE_MFPH_PE8MFP_EBI_ADR6        (0x7UL<<SYS_GPE_MFPH_PE8MFP_Pos)    /*!< GPE_MFPH PE8 s
 944:src/sys.h     **** #define SYS_GPE_MFPH_PE8MFP_GPIO            (0x0UL<<SYS_GPE_MFPH_PE8MFP_Pos)    /*!< GPE_MFPH PE8 s
 945:src/sys.h     **** #define SYS_GPE_MFPH_PE8MFP_I2C1_SCL        (0x4UL<<SYS_GPE_MFPH_PE8MFP_Pos)    /*!< GPE_MFPH PE8 s
 946:src/sys.h     **** #define SYS_GPE_MFPH_PE8MFP_LCD_SEG35       (0xFUL<<SYS_GPE_MFPH_PE8MFP_Pos)    /*!< GPE_MFPH PE8 s
 947:src/sys.h     **** #define SYS_GPE_MFPH_PE8MFP_PWM0_BRAKE0     (0xAUL<<SYS_GPE_MFPH_PE8MFP_Pos)    /*!< GPE_MFPH PE8 s
 948:src/sys.h     **** #define SYS_GPE_MFPH_PE8MFP_SC0_PWR         (0x5UL<<SYS_GPE_MFPH_PE8MFP_Pos)    /*!< GPE_MFPH PE8 s
 949:src/sys.h     **** #define SYS_GPE_MFPH_PE8MFP_SPI0_MISO1      (0x2UL<<SYS_GPE_MFPH_PE8MFP_Pos)    /*!< GPE_MFPH PE8 s
 950:src/sys.h     **** #define SYS_GPE_MFPH_PE8MFP_TM1             (0xBUL<<SYS_GPE_MFPH_PE8MFP_Pos)    /*!< GPE_MFPH PE8 s
 951:src/sys.h     **** #define SYS_GPE_MFPH_PE8MFP_UART1_TXD       (0x1UL<<SYS_GPE_MFPH_PE8MFP_Pos)    /*!< GPE_MFPH PE8 s
 952:src/sys.h     **** #define SYS_GPE_MFPH_PE8MFP_UART4_nRTS      (0x6UL<<SYS_GPE_MFPH_PE8MFP_Pos)    /*!< GPE_MFPH PE8 s
 953:src/sys.h     **** 
 954:src/sys.h     **** //PE.9 MFP
 955:src/sys.h     **** #define SYS_GPE_MFPH_PE9MFP_BPWM1_CH1       (0xDUL<<SYS_GPE_MFPH_PE9MFP_Pos)    /*!< GPE_MFPH PE9 s
 956:src/sys.h     **** #define SYS_GPE_MFPH_PE9MFP_DSRC_WAKEUP     (0xEUL<<SYS_GPE_MFPH_PE9MFP_Pos)    /*!< GPE_MFPH PE9 s
 957:src/sys.h     **** #define SYS_GPE_MFPH_PE9MFP_EBI_ADR5        (0x7UL<<SYS_GPE_MFPH_PE9MFP_Pos)    /*!< GPE_MFPH PE9 s
 958:src/sys.h     **** #define SYS_GPE_MFPH_PE9MFP_GPIO            (0x0UL<<SYS_GPE_MFPH_PE9MFP_Pos)    /*!< GPE_MFPH PE9 s
 959:src/sys.h     **** #define SYS_GPE_MFPH_PE9MFP_I2C1_SDA        (0x4UL<<SYS_GPE_MFPH_PE9MFP_Pos)    /*!< GPE_MFPH PE9 s
 960:src/sys.h     **** #define SYS_GPE_MFPH_PE9MFP_I2S0_BCLK       (0x8UL<<SYS_GPE_MFPH_PE9MFP_Pos)    /*!< GPE_MFPH PE9 s
 961:src/sys.h     **** #define SYS_GPE_MFPH_PE9MFP_LCD_SEG36       (0xFUL<<SYS_GPE_MFPH_PE9MFP_Pos)    /*!< GPE_MFPH PE9 s
 962:src/sys.h     **** #define SYS_GPE_MFPH_PE9MFP_PWM1_BRAKE1     (0xAUL<<SYS_GPE_MFPH_PE9MFP_Pos)    /*!< GPE_MFPH PE9 s
 963:src/sys.h     **** #define SYS_GPE_MFPH_PE9MFP_SC0_RST         (0x5UL<<SYS_GPE_MFPH_PE9MFP_Pos)    /*!< GPE_MFPH PE9 s
 964:src/sys.h     **** #define SYS_GPE_MFPH_PE9MFP_SPI0_MOSI1      (0x2UL<<SYS_GPE_MFPH_PE9MFP_Pos)    /*!< GPE_MFPH PE9 s
 965:src/sys.h     **** #define SYS_GPE_MFPH_PE9MFP_SPI1_I2SMCLK    (0x9UL<<SYS_GPE_MFPH_PE9MFP_Pos)    /*!< GPE_MFPH PE9 s
 966:src/sys.h     **** #define SYS_GPE_MFPH_PE9MFP_TM2             (0xBUL<<SYS_GPE_MFPH_PE9MFP_Pos)    /*!< GPE_MFPH PE9 s
 967:src/sys.h     **** #define SYS_GPE_MFPH_PE9MFP_UART1_RXD       (0x1UL<<SYS_GPE_MFPH_PE9MFP_Pos)    /*!< GPE_MFPH PE9 s
 968:src/sys.h     **** #define SYS_GPE_MFPH_PE9MFP_UART4_nCTS      (0x6UL<<SYS_GPE_MFPH_PE9MFP_Pos)    /*!< GPE_MFPH PE9 s
 969:src/sys.h     **** #define SYS_GPE_MFPH_PE9MFP_USCI1_CTL1      (0xCUL<<SYS_GPE_MFPH_PE9MFP_Pos)    /*!< GPE_MFPH PE9 s
 970:src/sys.h     **** 
ARM GAS  C:\Users\CCMA\AppData\Local\Temp\ccBCHRX5.s 			page 35


 971:src/sys.h     **** //PE.10 MFP
 972:src/sys.h     **** #define SYS_GPE_MFPH_PE10MFP_BPWM1_CH2      (0xDUL<<SYS_GPE_MFPH_PE10MFP_Pos)   /*!< GPE_MFPH PE10 
 973:src/sys.h     **** #define SYS_GPE_MFPH_PE10MFP_EBI_ADR4       (0x7UL<<SYS_GPE_MFPH_PE10MFP_Pos)   /*!< GPE_MFPH PE10 
 974:src/sys.h     **** #define SYS_GPE_MFPH_PE10MFP_GPIO           (0x0UL<<SYS_GPE_MFPH_PE10MFP_Pos)   /*!< GPE_MFPH PE10 
 975:src/sys.h     **** #define SYS_GPE_MFPH_PE10MFP_I2C0_SMBAL     (0x4UL<<SYS_GPE_MFPH_PE10MFP_Pos)   /*!< GPE_MFPH PE10 
 976:src/sys.h     **** #define SYS_GPE_MFPH_PE10MFP_I2C1_SCL       (0xBUL<<SYS_GPE_MFPH_PE10MFP_Pos)   /*!< GPE_MFPH PE10 
 977:src/sys.h     **** #define SYS_GPE_MFPH_PE10MFP_I2S0_MCLK      (0x8UL<<SYS_GPE_MFPH_PE10MFP_Pos)   /*!< GPE_MFPH PE10 
 978:src/sys.h     **** #define SYS_GPE_MFPH_PE10MFP_LCD_SEG37      (0xFUL<<SYS_GPE_MFPH_PE10MFP_Pos)   /*!< GPE_MFPH PE10 
 979:src/sys.h     **** #define SYS_GPE_MFPH_PE10MFP_PWM1_CH0       (0x6UL<<SYS_GPE_MFPH_PE10MFP_Pos)   /*!< GPE_MFPH PE10 
 980:src/sys.h     **** #define SYS_GPE_MFPH_PE10MFP_SC0_DAT        (0x5UL<<SYS_GPE_MFPH_PE10MFP_Pos)   /*!< GPE_MFPH PE10 
 981:src/sys.h     **** #define SYS_GPE_MFPH_PE10MFP_SPI0_MISO0     (0x2UL<<SYS_GPE_MFPH_PE10MFP_Pos)   /*!< GPE_MFPH PE10 
 982:src/sys.h     **** #define SYS_GPE_MFPH_PE10MFP_SPI1_MISO      (0x1UL<<SYS_GPE_MFPH_PE10MFP_Pos)   /*!< GPE_MFPH PE10 
 983:src/sys.h     **** #define SYS_GPE_MFPH_PE10MFP_SPI5_SS        (0xEUL<<SYS_GPE_MFPH_PE10MFP_Pos)   /*!< GPE_MFPH PE10 
 984:src/sys.h     **** #define SYS_GPE_MFPH_PE10MFP_UART1_nCTS     (0x3UL<<SYS_GPE_MFPH_PE10MFP_Pos)   /*!< GPE_MFPH PE10 
 985:src/sys.h     **** #define SYS_GPE_MFPH_PE10MFP_UART3_TXD      (0x9UL<<SYS_GPE_MFPH_PE10MFP_Pos)   /*!< GPE_MFPH PE10 
 986:src/sys.h     **** #define SYS_GPE_MFPH_PE10MFP_USCI1_CTL0     (0xCUL<<SYS_GPE_MFPH_PE10MFP_Pos)   /*!< GPE_MFPH PE10 
 987:src/sys.h     **** 
 988:src/sys.h     **** //PE.11 MFP
 989:src/sys.h     **** #define SYS_GPE_MFPH_PE11MFP_BPWM1_CH3      (0xDUL<<SYS_GPE_MFPH_PE11MFP_Pos)   /*!< GPE_MFPH PE11 
 990:src/sys.h     **** #define SYS_GPE_MFPH_PE11MFP_EBI_ADR3       (0x7UL<<SYS_GPE_MFPH_PE11MFP_Pos)   /*!< GPE_MFPH PE11 
 991:src/sys.h     **** #define SYS_GPE_MFPH_PE11MFP_GPIO           (0x0UL<<SYS_GPE_MFPH_PE11MFP_Pos)   /*!< GPE_MFPH PE11 
 992:src/sys.h     **** #define SYS_GPE_MFPH_PE11MFP_I2C0_SMBSUS    (0x4UL<<SYS_GPE_MFPH_PE11MFP_Pos)   /*!< GPE_MFPH PE11 
 993:src/sys.h     **** #define SYS_GPE_MFPH_PE11MFP_I2C1_SDA       (0xBUL<<SYS_GPE_MFPH_PE11MFP_Pos)   /*!< GPE_MFPH PE11 
 994:src/sys.h     **** #define SYS_GPE_MFPH_PE11MFP_I2S0_DI        (0x8UL<<SYS_GPE_MFPH_PE11MFP_Pos)   /*!< GPE_MFPH PE11 
 995:src/sys.h     **** #define SYS_GPE_MFPH_PE11MFP_LCD_SEG38      (0xFUL<<SYS_GPE_MFPH_PE11MFP_Pos)   /*!< GPE_MFPH PE11 
 996:src/sys.h     **** #define SYS_GPE_MFPH_PE11MFP_PWM1_CH1       (0x6UL<<SYS_GPE_MFPH_PE11MFP_Pos)   /*!< GPE_MFPH PE11 
 997:src/sys.h     **** #define SYS_GPE_MFPH_PE11MFP_SC0_CLK        (0x5UL<<SYS_GPE_MFPH_PE11MFP_Pos)   /*!< GPE_MFPH PE11 
 998:src/sys.h     **** #define SYS_GPE_MFPH_PE11MFP_SPI0_MOSI0     (0x2UL<<SYS_GPE_MFPH_PE11MFP_Pos)   /*!< GPE_MFPH PE11 
 999:src/sys.h     **** #define SYS_GPE_MFPH_PE11MFP_SPI1_MOSI      (0x1UL<<SYS_GPE_MFPH_PE11MFP_Pos)   /*!< GPE_MFPH PE11 
1000:src/sys.h     **** #define SYS_GPE_MFPH_PE11MFP_SPI5_CLK       (0xEUL<<SYS_GPE_MFPH_PE11MFP_Pos)   /*!< GPE_MFPH PE11 
1001:src/sys.h     **** #define SYS_GPE_MFPH_PE11MFP_UART1_nRTS     (0x3UL<<SYS_GPE_MFPH_PE11MFP_Pos)   /*!< GPE_MFPH PE11 
1002:src/sys.h     **** #define SYS_GPE_MFPH_PE11MFP_UART3_RXD      (0x9UL<<SYS_GPE_MFPH_PE11MFP_Pos)   /*!< GPE_MFPH PE11 
1003:src/sys.h     **** #define SYS_GPE_MFPH_PE11MFP_USCI1_DAT0     (0xCUL<<SYS_GPE_MFPH_PE11MFP_Pos)   /*!< GPE_MFPH PE11 
1004:src/sys.h     **** 
1005:src/sys.h     **** //PE.12 MFP
1006:src/sys.h     **** #define SYS_GPE_MFPH_PE12MFP_BPWM1_CH4      (0xDUL<<SYS_GPE_MFPH_PE12MFP_Pos)   /*!< GPE_MFPH PE12 
1007:src/sys.h     **** #define SYS_GPE_MFPH_PE12MFP_EBI_ADR2       (0x7UL<<SYS_GPE_MFPH_PE12MFP_Pos)   /*!< GPE_MFPH PE12 
1008:src/sys.h     **** #define SYS_GPE_MFPH_PE12MFP_GPIO           (0x0UL<<SYS_GPE_MFPH_PE12MFP_Pos)   /*!< GPE_MFPH PE12 
1009:src/sys.h     **** #define SYS_GPE_MFPH_PE12MFP_I2C0_SCL       (0x4UL<<SYS_GPE_MFPH_PE12MFP_Pos)   /*!< GPE_MFPH PE12 
1010:src/sys.h     **** #define SYS_GPE_MFPH_PE12MFP_I2S0_DO        (0x8UL<<SYS_GPE_MFPH_PE12MFP_Pos)   /*!< GPE_MFPH PE12 
1011:src/sys.h     **** #define SYS_GPE_MFPH_PE12MFP_LCD_SEG39      (0xFUL<<SYS_GPE_MFPH_PE12MFP_Pos)   /*!< GPE_MFPH PE12 
1012:src/sys.h     **** #define SYS_GPE_MFPH_PE12MFP_PWM0_CH4       (0xAUL<<SYS_GPE_MFPH_PE12MFP_Pos)   /*!< GPE_MFPH PE12 
1013:src/sys.h     **** #define SYS_GPE_MFPH_PE12MFP_SC0_PWR        (0x5UL<<SYS_GPE_MFPH_PE12MFP_Pos)   /*!< GPE_MFPH PE12 
1014:src/sys.h     **** #define SYS_GPE_MFPH_PE12MFP_SD0_CMD        (0xBUL<<SYS_GPE_MFPH_PE12MFP_Pos)   /*!< GPE_MFPH PE12 
1015:src/sys.h     **** #define SYS_GPE_MFPH_PE12MFP_SPI0_SS        (0x2UL<<SYS_GPE_MFPH_PE12MFP_Pos)   /*!< GPE_MFPH PE12 
1016:src/sys.h     **** #define SYS_GPE_MFPH_PE12MFP_SPI1_SS        (0x1UL<<SYS_GPE_MFPH_PE12MFP_Pos)   /*!< GPE_MFPH PE12 
1017:src/sys.h     **** #define SYS_GPE_MFPH_PE12MFP_SPI5_MISO      (0xEUL<<SYS_GPE_MFPH_PE12MFP_Pos)   /*!< GPE_MFPH PE12 
1018:src/sys.h     **** #define SYS_GPE_MFPH_PE12MFP_UART1_TXD      (0x3UL<<SYS_GPE_MFPH_PE12MFP_Pos)   /*!< GPE_MFPH PE12 
1019:src/sys.h     **** #define SYS_GPE_MFPH_PE12MFP_UART4_TXD      (0x6UL<<SYS_GPE_MFPH_PE12MFP_Pos)   /*!< GPE_MFPH PE12 
1020:src/sys.h     **** #define SYS_GPE_MFPH_PE12MFP_USCI1_DAT1     (0xCUL<<SYS_GPE_MFPH_PE12MFP_Pos)   /*!< GPE_MFPH PE12 
1021:src/sys.h     **** 
1022:src/sys.h     **** //PE.13 MFP
1023:src/sys.h     **** #define SYS_GPE_MFPH_PE13MFP_BPWM1_CH5      (0xDUL<<SYS_GPE_MFPH_PE13MFP_Pos)   /*!< GPE_MFPH PE13 
1024:src/sys.h     **** #define SYS_GPE_MFPH_PE13MFP_EBI_ADR1       (0x7UL<<SYS_GPE_MFPH_PE13MFP_Pos)   /*!< GPE_MFPH PE13 
1025:src/sys.h     **** #define SYS_GPE_MFPH_PE13MFP_GPIO           (0x0UL<<SYS_GPE_MFPH_PE13MFP_Pos)   /*!< GPE_MFPH PE13 
1026:src/sys.h     **** #define SYS_GPE_MFPH_PE13MFP_I2C0_SDA       (0x4UL<<SYS_GPE_MFPH_PE13MFP_Pos)   /*!< GPE_MFPH PE13 
1027:src/sys.h     **** #define SYS_GPE_MFPH_PE13MFP_I2S0_LRCK      (0x8UL<<SYS_GPE_MFPH_PE13MFP_Pos)   /*!< GPE_MFPH PE13 
ARM GAS  C:\Users\CCMA\AppData\Local\Temp\ccBCHRX5.s 			page 36


1028:src/sys.h     **** #define SYS_GPE_MFPH_PE13MFP_PWM0_CH5       (0xAUL<<SYS_GPE_MFPH_PE13MFP_Pos)   /*!< GPE_MFPH PE13 
1029:src/sys.h     **** #define SYS_GPE_MFPH_PE13MFP_SC0_RST        (0x5UL<<SYS_GPE_MFPH_PE13MFP_Pos)   /*!< GPE_MFPH PE13 
1030:src/sys.h     **** #define SYS_GPE_MFPH_PE13MFP_SD0_nCD        (0xBUL<<SYS_GPE_MFPH_PE13MFP_Pos)   /*!< GPE_MFPH PE13 
1031:src/sys.h     **** #define SYS_GPE_MFPH_PE13MFP_SPI0_CLK       (0x2UL<<SYS_GPE_MFPH_PE13MFP_Pos)   /*!< GPE_MFPH PE13 
1032:src/sys.h     **** #define SYS_GPE_MFPH_PE13MFP_SPI1_CLK       (0x1UL<<SYS_GPE_MFPH_PE13MFP_Pos)   /*!< GPE_MFPH PE13 
1033:src/sys.h     **** #define SYS_GPE_MFPH_PE13MFP_SPI5_MOSI      (0xEUL<<SYS_GPE_MFPH_PE13MFP_Pos)   /*!< GPE_MFPH PE13 
1034:src/sys.h     **** #define SYS_GPE_MFPH_PE13MFP_UART1_RXD      (0x3UL<<SYS_GPE_MFPH_PE13MFP_Pos)   /*!< GPE_MFPH PE13 
1035:src/sys.h     **** #define SYS_GPE_MFPH_PE13MFP_UART4_RXD      (0x6UL<<SYS_GPE_MFPH_PE13MFP_Pos)   /*!< GPE_MFPH PE13 
1036:src/sys.h     **** #define SYS_GPE_MFPH_PE13MFP_USCI1_CLK      (0xCUL<<SYS_GPE_MFPH_PE13MFP_Pos)   /*!< GPE_MFPH PE13 
1037:src/sys.h     **** 
1038:src/sys.h     **** //PF.0 MFP
1039:src/sys.h     **** #define SYS_GPF_MFPL_PF0MFP_GPIO            (0x0UL<<SYS_GPF_MFPL_PF0MFP_Pos)    /*!< GPF_MFPL PF0 s
1040:src/sys.h     **** #define SYS_GPF_MFPL_PF0MFP_INT5            (0x8UL<<SYS_GPF_MFPL_PF0MFP_Pos)    /*!< GPF_MFPL PF0 s
1041:src/sys.h     **** #define SYS_GPF_MFPL_PF0MFP_SPI1_SS         (0x2UL<<SYS_GPF_MFPL_PF0MFP_Pos)    /*!< GPF_MFPL PF0 s
1042:src/sys.h     **** #define SYS_GPF_MFPL_PF0MFP_TM3_EXT         (0x4UL<<SYS_GPF_MFPL_PF0MFP_Pos)    /*!< GPF_MFPL PF0 s
1043:src/sys.h     **** #define SYS_GPF_MFPL_PF0MFP_X32_OUT         (0x1UL<<SYS_GPF_MFPL_PF0MFP_Pos)    /*!< GPF_MFPL PF0 s
1044:src/sys.h     **** 
1045:src/sys.h     **** //PF.1 MFP
1046:src/sys.h     **** #define SYS_GPF_MFPL_PF1MFP_DSRC_TXON       (0x9UL<<SYS_GPF_MFPL_PF1MFP_Pos)    /*!< GPF_MFPL PF1 s
1047:src/sys.h     **** #define SYS_GPF_MFPL_PF1MFP_GPIO            (0x0UL<<SYS_GPF_MFPL_PF1MFP_Pos)    /*!< GPF_MFPL PF1 s
1048:src/sys.h     **** #define SYS_GPF_MFPL_PF1MFP_SPI1_MOSI       (0x2UL<<SYS_GPF_MFPL_PF1MFP_Pos)    /*!< GPF_MFPL PF1 s
1049:src/sys.h     **** #define SYS_GPF_MFPL_PF1MFP_TM3             (0x4UL<<SYS_GPF_MFPL_PF1MFP_Pos)    /*!< GPF_MFPL PF1 s
1050:src/sys.h     **** #define SYS_GPF_MFPL_PF1MFP_X32_IN          (0x1UL<<SYS_GPF_MFPL_PF1MFP_Pos)    /*!< GPF_MFPL PF1 s
1051:src/sys.h     **** 
1052:src/sys.h     **** //PF.2 MFP
1053:src/sys.h     **** #define SYS_GPF_MFPL_PF2MFP_DAC0_ST         (0x2UL<<SYS_GPF_MFPL_PF2MFP_Pos)    /*!< GPF_MFPL PF2 s
1054:src/sys.h     **** #define SYS_GPF_MFPL_PF2MFP_DAC1_ST         (0x3UL<<SYS_GPF_MFPL_PF2MFP_Pos)    /*!< GPF_MFPL PF2 s
1055:src/sys.h     **** #define SYS_GPF_MFPL_PF2MFP_DSRC_RXON       (0x9UL<<SYS_GPF_MFPL_PF2MFP_Pos)    /*!< GPF_MFPL PF2 s
1056:src/sys.h     **** #define SYS_GPF_MFPL_PF2MFP_EBI_nCS2        (0x7UL<<SYS_GPF_MFPL_PF2MFP_Pos)    /*!< GPF_MFPL PF2 s
1057:src/sys.h     **** #define SYS_GPF_MFPL_PF2MFP_ECAP1_IC2       (0xDUL<<SYS_GPF_MFPL_PF2MFP_Pos)    /*!< GPF_MFPL PF2 s
1058:src/sys.h     **** #define SYS_GPF_MFPL_PF2MFP_GPIO            (0x0UL<<SYS_GPF_MFPL_PF2MFP_Pos)    /*!< GPF_MFPL PF2 s
1059:src/sys.h     **** #define SYS_GPF_MFPL_PF2MFP_INT5            (0x8UL<<SYS_GPF_MFPL_PF2MFP_Pos)    /*!< GPF_MFPL PF2 s
1060:src/sys.h     **** #define SYS_GPF_MFPL_PF2MFP_PWM0_CH5        (0x6UL<<SYS_GPF_MFPL_PF2MFP_Pos)    /*!< GPF_MFPL PF2 s
1061:src/sys.h     **** #define SYS_GPF_MFPL_PF2MFP_QEI0_A          (0xCUL<<SYS_GPF_MFPL_PF2MFP_Pos)    /*!< GPF_MFPL PF2 s
1062:src/sys.h     **** #define SYS_GPF_MFPL_PF2MFP_SC0_nCD         (0xAUL<<SYS_GPF_MFPL_PF2MFP_Pos)    /*!< GPF_MFPL PF2 s
1063:src/sys.h     **** #define SYS_GPF_MFPL_PF2MFP_SC1_nCD         (0xBUL<<SYS_GPF_MFPL_PF2MFP_Pos)    /*!< GPF_MFPL PF2 s
1064:src/sys.h     **** #define SYS_GPF_MFPL_PF2MFP_SD1_DAT0        (0xEUL<<SYS_GPF_MFPL_PF2MFP_Pos)    /*!< GPF_MFPL PF2 s
1065:src/sys.h     **** #define SYS_GPF_MFPL_PF2MFP_SPI1_CLK        (0x5UL<<SYS_GPF_MFPL_PF2MFP_Pos)    /*!< GPF_MFPL PF2 s
1066:src/sys.h     **** #define SYS_GPF_MFPL_PF2MFP_TAMPER0         (0x1UL<<SYS_GPF_MFPL_PF2MFP_Pos)    /*!< GPF_MFPL PF2 s
1067:src/sys.h     **** #define SYS_GPF_MFPL_PF2MFP_TM2_EXT         (0x4UL<<SYS_GPF_MFPL_PF2MFP_Pos)    /*!< GPF_MFPL PF2 s
1068:src/sys.h     **** 
1069:src/sys.h     **** //PF.3 MFP
1070:src/sys.h     **** #define SYS_GPF_MFPL_PF3MFP_GPIO            (0x0UL<<SYS_GPF_MFPL_PF3MFP_Pos)    /*!< GPF_MFPL PF3 s
1071:src/sys.h     **** #define SYS_GPF_MFPL_PF3MFP_I2C1_SCL        (0x3UL<<SYS_GPF_MFPL_PF3MFP_Pos)    /*!< GPF_MFPL PF3 s
1072:src/sys.h     **** #define SYS_GPF_MFPL_PF3MFP_PWM1_CH4        (0x6UL<<SYS_GPF_MFPL_PF3MFP_Pos)    /*!< GPF_MFPL PF3 s
1073:src/sys.h     **** #define SYS_GPF_MFPL_PF3MFP_XT1_OUT         (0x1UL<<SYS_GPF_MFPL_PF3MFP_Pos)    /*!< GPF_MFPL PF3 s
1074:src/sys.h     **** 
1075:src/sys.h     **** //PF.4 MFP
1076:src/sys.h     **** #define SYS_GPF_MFPL_PF4MFP_GPIO            (0x0UL<<SYS_GPF_MFPL_PF4MFP_Pos)    /*!< GPF_MFPL PF4 s
1077:src/sys.h     **** #define SYS_GPF_MFPL_PF4MFP_I2C1_SDA        (0x3UL<<SYS_GPF_MFPL_PF4MFP_Pos)    /*!< GPF_MFPL PF4 s
1078:src/sys.h     **** #define SYS_GPF_MFPL_PF4MFP_PWM1_CH5        (0x6UL<<SYS_GPF_MFPL_PF4MFP_Pos)    /*!< GPF_MFPL PF4 s
1079:src/sys.h     **** #define SYS_GPF_MFPL_PF4MFP_XT1_IN          (0x1UL<<SYS_GPF_MFPL_PF4MFP_Pos)    /*!< GPF_MFPL PF4 s
1080:src/sys.h     **** 
1081:src/sys.h     **** //PF.5 MFP
1082:src/sys.h     **** #define SYS_GPF_MFPL_PF5MFP_BPWM1_CH0       (0xDUL<<SYS_GPF_MFPL_PF5MFP_Pos)    /*!< GPF_MFPL PF5 s
1083:src/sys.h     **** #define SYS_GPF_MFPL_PF5MFP_GPIO            (0x0UL<<SYS_GPF_MFPL_PF5MFP_Pos)    /*!< GPF_MFPL PF5 s
1084:src/sys.h     **** #define SYS_GPF_MFPL_PF5MFP_I2C0_SCL        (0x4UL<<SYS_GPF_MFPL_PF5MFP_Pos)    /*!< GPF_MFPL PF5 s
ARM GAS  C:\Users\CCMA\AppData\Local\Temp\ccBCHRX5.s 			page 37


1085:src/sys.h     **** #define SYS_GPF_MFPL_PF5MFP_ICE_CLK         (0x1UL<<SYS_GPF_MFPL_PF5MFP_Pos)    /*!< GPF_MFPL PF5 s
1086:src/sys.h     **** #define SYS_GPF_MFPL_PF5MFP_SC0_DAT         (0x5UL<<SYS_GPF_MFPL_PF5MFP_Pos)    /*!< GPF_MFPL PF5 s
1087:src/sys.h     **** #define SYS_GPF_MFPL_PF5MFP_SD0_nCD         (0xBUL<<SYS_GPF_MFPL_PF5MFP_Pos)    /*!< GPF_MFPL PF5 s
1088:src/sys.h     **** #define SYS_GPF_MFPL_PF5MFP_UART0_RXD       (0x3UL<<SYS_GPF_MFPL_PF5MFP_Pos)    /*!< GPF_MFPL PF5 s
1089:src/sys.h     **** #define SYS_GPF_MFPL_PF5MFP_UART3_TXD       (0x2UL<<SYS_GPF_MFPL_PF5MFP_Pos)    /*!< GPF_MFPL PF5 s
1090:src/sys.h     **** 
1091:src/sys.h     **** //PF.6 MFP
1092:src/sys.h     **** #define SYS_GPF_MFPL_PF6MFP_BPWM1_CH1       (0xDUL<<SYS_GPF_MFPL_PF6MFP_Pos)    /*!< GPF_MFPL PF6 s
1093:src/sys.h     **** #define SYS_GPF_MFPL_PF6MFP_GPIO            (0x0UL<<SYS_GPF_MFPL_PF6MFP_Pos)    /*!< GPF_MFPL PF6 s
1094:src/sys.h     **** #define SYS_GPF_MFPL_PF6MFP_I2C0_SDA        (0x4UL<<SYS_GPF_MFPL_PF6MFP_Pos)    /*!< GPF_MFPL PF6 s
1095:src/sys.h     **** #define SYS_GPF_MFPL_PF6MFP_ICE_DAT         (0x1UL<<SYS_GPF_MFPL_PF6MFP_Pos)    /*!< GPF_MFPL PF6 s
1096:src/sys.h     **** #define SYS_GPF_MFPL_PF6MFP_SC0_CLK         (0x5UL<<SYS_GPF_MFPL_PF6MFP_Pos)    /*!< GPF_MFPL PF6 s
1097:src/sys.h     **** #define SYS_GPF_MFPL_PF6MFP_SD0_CMD         (0xBUL<<SYS_GPF_MFPL_PF6MFP_Pos)    /*!< GPF_MFPL PF6 s
1098:src/sys.h     **** #define SYS_GPF_MFPL_PF6MFP_UART0_TXD       (0x3UL<<SYS_GPF_MFPL_PF6MFP_Pos)    /*!< GPF_MFPL PF6 s
1099:src/sys.h     **** #define SYS_GPF_MFPL_PF6MFP_UART3_RXD       (0x2UL<<SYS_GPF_MFPL_PF6MFP_Pos)    /*!< GPF_MFPL PF6 s
1100:src/sys.h     **** 
1101:src/sys.h     **** //PF.7 MFP
1102:src/sys.h     **** #define SYS_GPF_MFPL_PF7MFP_EBI_ADR16       (0x7UL<<SYS_GPF_MFPL_PF7MFP_Pos)    /*!< GPF_MFPL PF7 s
1103:src/sys.h     **** #define SYS_GPF_MFPL_PF7MFP_EBI_ALE         (0x9UL<<SYS_GPF_MFPL_PF7MFP_Pos)    /*!< GPF_MFPL PF7 s
1104:src/sys.h     **** #define SYS_GPF_MFPL_PF7MFP_ECAP1_IC1       (0xDUL<<SYS_GPF_MFPL_PF7MFP_Pos)    /*!< GPF_MFPL PF7 s
1105:src/sys.h     **** #define SYS_GPF_MFPL_PF7MFP_GPIO            (0x0UL<<SYS_GPF_MFPL_PF7MFP_Pos)    /*!< GPF_MFPL PF7 s
1106:src/sys.h     **** #define SYS_GPF_MFPL_PF7MFP_INT4            (0x8UL<<SYS_GPF_MFPL_PF7MFP_Pos)    /*!< GPF_MFPL PF7 s
1107:src/sys.h     **** #define SYS_GPF_MFPL_PF7MFP_PWM1_CH0        (0x6UL<<SYS_GPF_MFPL_PF7MFP_Pos)    /*!< GPF_MFPL PF7 s
1108:src/sys.h     **** #define SYS_GPF_MFPL_PF7MFP_QEI0_B          (0xCUL<<SYS_GPF_MFPL_PF7MFP_Pos)    /*!< GPF_MFPL PF7 s
1109:src/sys.h     **** #define SYS_GPF_MFPL_PF7MFP_SC2_nCD         (0xAUL<<SYS_GPF_MFPL_PF7MFP_Pos)    /*!< GPF_MFPL PF7 s
1110:src/sys.h     **** #define SYS_GPF_MFPL_PF7MFP_SD0_DAT0        (0xEUL<<SYS_GPF_MFPL_PF7MFP_Pos)    /*!< GPF_MFPL PF7 s
1111:src/sys.h     **** #define SYS_GPF_MFPL_PF7MFP_SPI1_MISO       (0x5UL<<SYS_GPF_MFPL_PF7MFP_Pos)    /*!< GPF_MFPL PF7 s
1112:src/sys.h     **** #define SYS_GPF_MFPL_PF7MFP_SPI2_I2SMCLK    (0x2UL<<SYS_GPF_MFPL_PF7MFP_Pos)    /*!< GPF_MFPL PF7 s
1113:src/sys.h     **** #define SYS_GPF_MFPL_PF7MFP_TAMPER1         (0x1UL<<SYS_GPF_MFPL_PF7MFP_Pos)    /*!< GPF_MFPL PF7 s
1114:src/sys.h     **** #define SYS_GPF_MFPL_PF7MFP_TM1_EXT         (0x4UL<<SYS_GPF_MFPL_PF7MFP_Pos)    /*!< GPF_MFPL PF7 s
1115:src/sys.h     **** #define SYS_GPF_MFPL_PF7MFP_UART3_TXD       (0x3UL<<SYS_GPF_MFPL_PF7MFP_Pos)    /*!< GPF_MFPL PF7 s
1116:src/sys.h     **** #define SYS_GPF_MFPL_PF7MFP_USCI0_CLK       (0xBUL<<SYS_GPF_MFPL_PF7MFP_Pos)    /*!< GPF_MFPL PF7 s
1117:src/sys.h     **** 
1118:src/sys.h     **** //PF.8 MFP
1119:src/sys.h     **** #define SYS_GPF_MFPH_PF8MFP_ECAP1_IC0       (0xDUL<<SYS_GPF_MFPH_PF8MFP_Pos)    /*!< GPF_MFPH PF8 s
1120:src/sys.h     **** #define SYS_GPF_MFPH_PF8MFP_GPIO            (0x0UL<<SYS_GPF_MFPH_PF8MFP_Pos)    /*!< GPF_MFPH PF8 s
1121:src/sys.h     **** #define SYS_GPF_MFPH_PF8MFP_INT3            (0x8UL<<SYS_GPF_MFPH_PF8MFP_Pos)    /*!< GPF_MFPH PF8 s
1122:src/sys.h     **** #define SYS_GPF_MFPH_PF8MFP_PWM1_BRAKE1     (0x5UL<<SYS_GPF_MFPH_PF8MFP_Pos)    /*!< GPF_MFPH PF8 s
1123:src/sys.h     **** #define SYS_GPF_MFPH_PF8MFP_QEI0_INDEX      (0xCUL<<SYS_GPF_MFPH_PF8MFP_Pos)    /*!< GPF_MFPH PF8 s
1124:src/sys.h     **** #define SYS_GPF_MFPH_PF8MFP_SPI2_CLK        (0x2UL<<SYS_GPF_MFPH_PF8MFP_Pos)    /*!< GPF_MFPH PF8 s
1125:src/sys.h     **** #define SYS_GPF_MFPH_PF8MFP_TAMPER2         (0x1UL<<SYS_GPF_MFPH_PF8MFP_Pos)    /*!< GPF_MFPH PF8 s
1126:src/sys.h     **** #define SYS_GPF_MFPH_PF8MFP_TM0_EXT         (0x4UL<<SYS_GPF_MFPH_PF8MFP_Pos)    /*!< GPF_MFPH PF8 s
1127:src/sys.h     **** 
1128:src/sys.h     **** //PF.9 MFP
1129:src/sys.h     **** #define SYS_GPF_MFPH_PF9MFP_EADC0_ST        (0x9UL<<SYS_GPF_MFPH_PF9MFP_Pos)    /*!< GPF_MFPH PF9 s
1130:src/sys.h     **** #define SYS_GPF_MFPH_PF9MFP_EBI_ADR16       (0x7UL<<SYS_GPF_MFPH_PF9MFP_Pos)    /*!< GPF_MFPH PF9 s
1131:src/sys.h     **** #define SYS_GPF_MFPH_PF9MFP_ECAP0_IC2       (0xDUL<<SYS_GPF_MFPH_PF9MFP_Pos)    /*!< GPF_MFPH PF9 s
1132:src/sys.h     **** #define SYS_GPF_MFPH_PF9MFP_GPIO            (0x0UL<<SYS_GPF_MFPH_PF9MFP_Pos)    /*!< GPF_MFPH PF9 s
1133:src/sys.h     **** #define SYS_GPF_MFPH_PF9MFP_INT2            (0x8UL<<SYS_GPF_MFPH_PF9MFP_Pos)    /*!< GPF_MFPH PF9 s
1134:src/sys.h     **** #define SYS_GPF_MFPH_PF9MFP_PWM1_BRAKE0     (0x5UL<<SYS_GPF_MFPH_PF9MFP_Pos)    /*!< GPF_MFPH PF9 s
1135:src/sys.h     **** #define SYS_GPF_MFPH_PF9MFP_PWM1_CH0        (0x6UL<<SYS_GPF_MFPH_PF9MFP_Pos)    /*!< GPF_MFPH PF9 s
1136:src/sys.h     **** #define SYS_GPF_MFPH_PF9MFP_QEI1_INDEX      (0xCUL<<SYS_GPF_MFPH_PF9MFP_Pos)    /*!< GPF_MFPH PF9 s
1137:src/sys.h     **** #define SYS_GPF_MFPH_PF9MFP_SC1_RST         (0xBUL<<SYS_GPF_MFPH_PF9MFP_Pos)    /*!< GPF_MFPH PF9 s
1138:src/sys.h     **** #define SYS_GPF_MFPH_PF9MFP_SD0_DAT0        (0xEUL<<SYS_GPF_MFPH_PF9MFP_Pos)    /*!< GPF_MFPH PF9 s
1139:src/sys.h     **** #define SYS_GPF_MFPH_PF9MFP_SPI2_SS         (0x2UL<<SYS_GPF_MFPH_PF9MFP_Pos)    /*!< GPF_MFPH PF9 s
1140:src/sys.h     **** #define SYS_GPF_MFPH_PF9MFP_TAMPER3         (0x1UL<<SYS_GPF_MFPH_PF9MFP_Pos)    /*!< GPF_MFPH PF9 s
1141:src/sys.h     **** #define SYS_GPF_MFPH_PF9MFP_TM2             (0x4UL<<SYS_GPF_MFPH_PF9MFP_Pos)    /*!< GPF_MFPH PF9 s
ARM GAS  C:\Users\CCMA\AppData\Local\Temp\ccBCHRX5.s 			page 38


1142:src/sys.h     **** #define SYS_GPF_MFPH_PF9MFP_UART3_TXD       (0x3UL<<SYS_GPF_MFPH_PF9MFP_Pos)    /*!< GPF_MFPH PF9 s
1143:src/sys.h     **** 
1144:src/sys.h     **** //PF.10 MFP
1145:src/sys.h     **** #define SYS_GPF_MFPH_PF10MFP_EBI_ADR17      (0x7UL<<SYS_GPF_MFPH_PF10MFP_Pos)   /*!< GPF_MFPH PF10 
1146:src/sys.h     **** #define SYS_GPF_MFPH_PF10MFP_EBI_nRD        (0x9UL<<SYS_GPF_MFPH_PF10MFP_Pos)   /*!< GPF_MFPH PF10 
1147:src/sys.h     **** #define SYS_GPF_MFPH_PF10MFP_ECAP0_IC1      (0xDUL<<SYS_GPF_MFPH_PF10MFP_Pos)   /*!< GPF_MFPH PF10 
1148:src/sys.h     **** #define SYS_GPF_MFPH_PF10MFP_GPIO           (0x0UL<<SYS_GPF_MFPH_PF10MFP_Pos)   /*!< GPF_MFPH PF10 
1149:src/sys.h     **** #define SYS_GPF_MFPH_PF10MFP_I2C2_SCL       (0xAUL<<SYS_GPF_MFPH_PF10MFP_Pos)   /*!< GPF_MFPH PF10 
1150:src/sys.h     **** #define SYS_GPF_MFPH_PF10MFP_INT1           (0x8UL<<SYS_GPF_MFPH_PF10MFP_Pos)   /*!< GPF_MFPH PF10 
1151:src/sys.h     **** #define SYS_GPF_MFPH_PF10MFP_PWM0_BRAKE0    (0x5UL<<SYS_GPF_MFPH_PF10MFP_Pos)   /*!< GPF_MFPH PF10 
1152:src/sys.h     **** #define SYS_GPF_MFPH_PF10MFP_PWM1_CH1       (0x6UL<<SYS_GPF_MFPH_PF10MFP_Pos)   /*!< GPF_MFPH PF10 
1153:src/sys.h     **** #define SYS_GPF_MFPH_PF10MFP_QEI1_A         (0xCUL<<SYS_GPF_MFPH_PF10MFP_Pos)   /*!< GPF_MFPH PF10 
1154:src/sys.h     **** #define SYS_GPF_MFPH_PF10MFP_SC1_PWR        (0xBUL<<SYS_GPF_MFPH_PF10MFP_Pos)   /*!< GPF_MFPH PF10 
1155:src/sys.h     **** #define SYS_GPF_MFPH_PF10MFP_SPI2_MOSI      (0x2UL<<SYS_GPF_MFPH_PF10MFP_Pos)   /*!< GPF_MFPH PF10 
1156:src/sys.h     **** #define SYS_GPF_MFPH_PF10MFP_TAMPER4        (0x1UL<<SYS_GPF_MFPH_PF10MFP_Pos)   /*!< GPF_MFPH PF10 
1157:src/sys.h     **** #define SYS_GPF_MFPH_PF10MFP_TM1            (0x4UL<<SYS_GPF_MFPH_PF10MFP_Pos)   /*!< GPF_MFPH PF10 
1158:src/sys.h     **** #define SYS_GPF_MFPH_PF10MFP_UART3_RXD      (0x3UL<<SYS_GPF_MFPH_PF10MFP_Pos)   /*!< GPF_MFPH PF10 
1159:src/sys.h     **** 
1160:src/sys.h     **** //PF.11 MFP
1161:src/sys.h     **** #define SYS_GPF_MFPH_PF11MFP_EBI_ADR18      (0x7UL<<SYS_GPF_MFPH_PF11MFP_Pos)   /*!< GPF_MFPH PF11 
1162:src/sys.h     **** #define SYS_GPF_MFPH_PF11MFP_EBI_nWR        (0x9UL<<SYS_GPF_MFPH_PF11MFP_Pos)   /*!< GPF_MFPH PF11 
1163:src/sys.h     **** #define SYS_GPF_MFPH_PF11MFP_ECAP0_IC0      (0xDUL<<SYS_GPF_MFPH_PF11MFP_Pos)   /*!< GPF_MFPH PF11 
1164:src/sys.h     **** #define SYS_GPF_MFPH_PF11MFP_GPIO           (0x0UL<<SYS_GPF_MFPH_PF11MFP_Pos)   /*!< GPF_MFPH PF11 
1165:src/sys.h     **** #define SYS_GPF_MFPH_PF11MFP_I2C2_SDA       (0xAUL<<SYS_GPF_MFPH_PF11MFP_Pos)   /*!< GPF_MFPH PF11 
1166:src/sys.h     **** #define SYS_GPF_MFPH_PF11MFP_INT0           (0x8UL<<SYS_GPF_MFPH_PF11MFP_Pos)   /*!< GPF_MFPH PF11 
1167:src/sys.h     **** #define SYS_GPF_MFPH_PF11MFP_PWM0_BRAKE1    (0x5UL<<SYS_GPF_MFPH_PF11MFP_Pos)   /*!< GPF_MFPH PF11 
1168:src/sys.h     **** #define SYS_GPF_MFPH_PF11MFP_PWM1_CH2       (0x6UL<<SYS_GPF_MFPH_PF11MFP_Pos)   /*!< GPF_MFPH PF11 
1169:src/sys.h     **** #define SYS_GPF_MFPH_PF11MFP_QEI1_B         (0xCUL<<SYS_GPF_MFPH_PF11MFP_Pos)   /*!< GPF_MFPH PF11 
1170:src/sys.h     **** #define SYS_GPF_MFPH_PF11MFP_SC1_nCD        (0xBUL<<SYS_GPF_MFPH_PF11MFP_Pos)   /*!< GPF_MFPH PF11 
1171:src/sys.h     **** #define SYS_GPF_MFPH_PF11MFP_SPI2_MISO      (0x2UL<<SYS_GPF_MFPH_PF11MFP_Pos)   /*!< GPF_MFPH PF11 
1172:src/sys.h     **** #define SYS_GPF_MFPH_PF11MFP_TAMPER5        (0x1UL<<SYS_GPF_MFPH_PF11MFP_Pos)   /*!< GPF_MFPH PF11 
1173:src/sys.h     **** #define SYS_GPF_MFPH_PF11MFP_TM0            (0x4UL<<SYS_GPF_MFPH_PF11MFP_Pos)   /*!< GPF_MFPH PF11 
1174:src/sys.h     **** #define SYS_GPF_MFPH_PF11MFP_UART3_nCTS     (0x3UL<<SYS_GPF_MFPH_PF11MFP_Pos)   /*!< GPF_MFPH PF11 
1175:src/sys.h     **** 
1176:src/sys.h     **** //PF.12 MFP
1177:src/sys.h     **** #define SYS_GPF_MFPH_PF12MFP_CAN0_TXD       (0x5UL<<SYS_GPF_MFPH_PF12MFP_Pos)   /*!< GPF_MFPH PF12 
1178:src/sys.h     **** #define SYS_GPF_MFPH_PF12MFP_GPIO           (0x0UL<<SYS_GPF_MFPH_PF12MFP_Pos)   /*!< GPF_MFPH PF12 
1179:src/sys.h     **** #define SYS_GPF_MFPH_PF12MFP_I2C0_SCL       (0x4UL<<SYS_GPF_MFPH_PF12MFP_Pos)   /*!< GPF_MFPH PF12 
1180:src/sys.h     **** #define SYS_GPF_MFPH_PF12MFP_PWM1_BRAKE0    (0xDUL<<SYS_GPF_MFPH_PF12MFP_Pos)   /*!< GPF_MFPH PF12 
1181:src/sys.h     **** #define SYS_GPF_MFPH_PF12MFP_SPI1_MISO      (0x2UL<<SYS_GPF_MFPH_PF12MFP_Pos)   /*!< GPF_MFPH PF12 
1182:src/sys.h     **** #define SYS_GPF_MFPH_PF12MFP_UART5_RXD      (0x3UL<<SYS_GPF_MFPH_PF12MFP_Pos)   /*!< GPF_MFPH PF12 
1183:src/sys.h     **** #define SYS_GPF_MFPH_PF12MFP_USB_OTG_ID     (0x1UL<<SYS_GPF_MFPH_PF12MFP_Pos)   /*!< GPF_MFPH PF12 
1184:src/sys.h     **** #define SYS_GPF_MFPH_PF12MFP_USCI1_CTL0     (0xCUL<<SYS_GPF_MFPH_PF12MFP_Pos)   /*!< GPF_MFPH PF12 
1185:src/sys.h     **** 
1186:src/sys.h     **** //PF.13 MFP
1187:src/sys.h     **** #define SYS_GPF_MFPH_PF13MFP_CAN0_RXD       (0x5UL<<SYS_GPF_MFPH_PF13MFP_Pos)   /*!< GPF_MFPH PF13 
1188:src/sys.h     **** #define SYS_GPF_MFPH_PF13MFP_GPIO           (0x0UL<<SYS_GPF_MFPH_PF13MFP_Pos)   /*!< GPF_MFPH PF13 
1189:src/sys.h     **** #define SYS_GPF_MFPH_PF13MFP_I2C0_SDA       (0x4UL<<SYS_GPF_MFPH_PF13MFP_Pos)   /*!< GPF_MFPH PF13 
1190:src/sys.h     **** #define SYS_GPF_MFPH_PF13MFP_SPI1_MOSI      (0x2UL<<SYS_GPF_MFPH_PF13MFP_Pos)   /*!< GPF_MFPH PF13 
1191:src/sys.h     **** #define SYS_GPF_MFPH_PF13MFP_UART5_TXD      (0x3UL<<SYS_GPF_MFPH_PF13MFP_Pos)   /*!< GPF_MFPH PF13 
1192:src/sys.h     **** #define SYS_GPF_MFPH_PF13MFP_USB_D_P        (0x1UL<<SYS_GPF_MFPH_PF13MFP_Pos)   /*!< GPF_MFPH PF13 
1193:src/sys.h     **** #define SYS_GPF_MFPH_PF13MFP_USCI1_DAT0     (0xCUL<<SYS_GPF_MFPH_PF13MFP_Pos)   /*!< GPF_MFPH PF13 
1194:src/sys.h     **** 
1195:src/sys.h     **** //PF.14 MFP
1196:src/sys.h     **** #define SYS_GPF_MFPH_PF14MFP_GPIO           (0x0UL<<SYS_GPF_MFPH_PF14MFP_Pos)   /*!< GPF_MFPH PF14 
1197:src/sys.h     **** #define SYS_GPF_MFPH_PF14MFP_I2C1_SCL       (0x4UL<<SYS_GPF_MFPH_PF14MFP_Pos)   /*!< GPF_MFPH PF14 
1198:src/sys.h     **** #define SYS_GPF_MFPH_PF14MFP_SPI1_SS        (0x2UL<<SYS_GPF_MFPH_PF14MFP_Pos)   /*!< GPF_MFPH PF14 
ARM GAS  C:\Users\CCMA\AppData\Local\Temp\ccBCHRX5.s 			page 39


1199:src/sys.h     **** #define SYS_GPF_MFPH_PF14MFP_UART5_nCTS     (0x3UL<<SYS_GPF_MFPH_PF14MFP_Pos)   /*!< GPF_MFPH PF14 
1200:src/sys.h     **** #define SYS_GPF_MFPH_PF14MFP_USB_D_N        (0x1UL<<SYS_GPF_MFPH_PF14MFP_Pos)   /*!< GPF_MFPH PF14 
1201:src/sys.h     **** #define SYS_GPF_MFPH_PF14MFP_USCI1_DAT1     (0xCUL<<SYS_GPF_MFPH_PF14MFP_Pos)   /*!< GPF_MFPH PF14 
1202:src/sys.h     **** 
1203:src/sys.h     **** //PF.15 MFP
1204:src/sys.h     **** #define SYS_GPF_MFPH_PF15MFP_GPIO           (0x0UL<<SYS_GPF_MFPH_PF15MFP_Pos)   /*!< GPF_MFPH PF15 
1205:src/sys.h     **** #define SYS_GPF_MFPH_PF15MFP_I2C1_SDA       (0x4UL<<SYS_GPF_MFPH_PF15MFP_Pos)   /*!< GPF_MFPH PF15 
1206:src/sys.h     **** #define SYS_GPF_MFPH_PF15MFP_SPI1_CLK       (0x2UL<<SYS_GPF_MFPH_PF15MFP_Pos)   /*!< GPF_MFPH PF15 
1207:src/sys.h     **** #define SYS_GPF_MFPH_PF15MFP_UART5_nRTS     (0x3UL<<SYS_GPF_MFPH_PF15MFP_Pos)   /*!< GPF_MFPH PF15 
1208:src/sys.h     **** #define SYS_GPF_MFPH_PF15MFP_USB_VBUS       (0x1UL<<SYS_GPF_MFPH_PF15MFP_Pos)   /*!< GPF_MFPH PF15 
1209:src/sys.h     **** #define SYS_GPF_MFPH_PF15MFP_USCI1_CLK      (0xCUL<<SYS_GPF_MFPH_PF15MFP_Pos)   /*!< GPF_MFPH PF15 
1210:src/sys.h     **** 
1211:src/sys.h     **** //PG.1 MFP
1212:src/sys.h     **** #define SYS_GPG_MFPL_PG1MFP_EBI_AD7         (0x7UL<<SYS_GPG_MFPL_PG1MFP_Pos)    /*!< GPG_MFPL PG1 s
1213:src/sys.h     **** #define SYS_GPG_MFPL_PG1MFP_GPIO            (0x0UL<<SYS_GPG_MFPL_PG1MFP_Pos)    /*!< GPG_MFPL PG1 s
1214:src/sys.h     **** #define SYS_GPG_MFPL_PG1MFP_LCD_SEG23       (0xFUL<<SYS_GPG_MFPL_PG1MFP_Pos)    /*!< GPG_MFPL PG1 s
1215:src/sys.h     **** #define SYS_GPG_MFPL_PG1MFP_PWM1_CH2        (0x6UL<<SYS_GPG_MFPL_PG1MFP_Pos)    /*!< GPG_MFPL PG1 s
1216:src/sys.h     **** #define SYS_GPG_MFPL_PG1MFP_SPI0_MISO0      (0x2UL<<SYS_GPG_MFPL_PG1MFP_Pos)    /*!< GPG_MFPL PG1 s
1217:src/sys.h     **** #define SYS_GPG_MFPL_PG1MFP_TM2             (0xBUL<<SYS_GPG_MFPL_PG1MFP_Pos)    /*!< GPG_MFPL PG1 s
1218:src/sys.h     **** #define SYS_GPG_MFPL_PG1MFP_UART2_RXD       (0x3UL<<SYS_GPG_MFPL_PG1MFP_Pos)    /*!< GPG_MFPL PG1 s
1219:src/sys.h     **** 
1220:src/sys.h     **** //PG.2 MFP
1221:src/sys.h     **** #define SYS_GPG_MFPL_PG2MFP_EBI_AD6         (0x7UL<<SYS_GPG_MFPL_PG2MFP_Pos)    /*!< GPG_MFPL PG2 s
1222:src/sys.h     **** #define SYS_GPG_MFPL_PG2MFP_GPIO            (0x0UL<<SYS_GPG_MFPL_PG2MFP_Pos)    /*!< GPG_MFPL PG2 s
1223:src/sys.h     **** #define SYS_GPG_MFPL_PG2MFP_INT3            (0x8UL<<SYS_GPG_MFPL_PG2MFP_Pos)    /*!< GPG_MFPL PG2 s
1224:src/sys.h     **** #define SYS_GPG_MFPL_PG2MFP_LCD_SEG24       (0xFUL<<SYS_GPG_MFPL_PG2MFP_Pos)    /*!< GPG_MFPL PG2 s
1225:src/sys.h     **** #define SYS_GPG_MFPL_PG2MFP_PWM1_CH3        (0x6UL<<SYS_GPG_MFPL_PG2MFP_Pos)    /*!< GPG_MFPL PG2 s
1226:src/sys.h     **** #define SYS_GPG_MFPL_PG2MFP_SPI0_MOSI0      (0x2UL<<SYS_GPG_MFPL_PG2MFP_Pos)    /*!< GPG_MFPL PG2 s
1227:src/sys.h     **** #define SYS_GPG_MFPL_PG2MFP_TM3_EXT         (0xBUL<<SYS_GPG_MFPL_PG2MFP_Pos)    /*!< GPG_MFPL PG2 s
1228:src/sys.h     **** #define SYS_GPG_MFPL_PG2MFP_UART2_TXD       (0x3UL<<SYS_GPG_MFPL_PG2MFP_Pos)    /*!< GPG_MFPL PG2 s
1229:src/sys.h     **** 
1230:src/sys.h     **** //PG.3 MFP
1231:src/sys.h     **** #define SYS_GPG_MFPL_PG3MFP_EBI_AD5         (0x7UL<<SYS_GPG_MFPL_PG3MFP_Pos)    /*!< GPG_MFPL PG3 s
1232:src/sys.h     **** #define SYS_GPG_MFPL_PG3MFP_GPIO            (0x0UL<<SYS_GPG_MFPL_PG3MFP_Pos)    /*!< GPG_MFPL PG3 s
1233:src/sys.h     **** #define SYS_GPG_MFPL_PG3MFP_INT4            (0x8UL<<SYS_GPG_MFPL_PG3MFP_Pos)    /*!< GPG_MFPL PG3 s
1234:src/sys.h     **** #define SYS_GPG_MFPL_PG3MFP_PWM1_CH4        (0x6UL<<SYS_GPG_MFPL_PG3MFP_Pos)    /*!< GPG_MFPL PG3 s
1235:src/sys.h     **** #define SYS_GPG_MFPL_PG3MFP_SPI0_CLK        (0x2UL<<SYS_GPG_MFPL_PG3MFP_Pos)    /*!< GPG_MFPL PG3 s
1236:src/sys.h     **** #define SYS_GPG_MFPL_PG3MFP_TM3             (0xBUL<<SYS_GPG_MFPL_PG3MFP_Pos)    /*!< GPG_MFPL PG3 s
1237:src/sys.h     **** #define SYS_GPG_MFPL_PG3MFP_UART2_nCTS      (0x3UL<<SYS_GPG_MFPL_PG3MFP_Pos)    /*!< GPG_MFPL PG3 s
1238:src/sys.h     **** 
1239:src/sys.h     **** //PG.4 MFP
1240:src/sys.h     **** #define SYS_GPG_MFPL_PG4MFP_EBI_AD4         (0x7UL<<SYS_GPG_MFPL_PG4MFP_Pos)    /*!< GPG_MFPL PG4 s
1241:src/sys.h     **** #define SYS_GPG_MFPL_PG4MFP_GPIO            (0x0UL<<SYS_GPG_MFPL_PG4MFP_Pos)    /*!< GPG_MFPL PG4 s
1242:src/sys.h     **** #define SYS_GPG_MFPL_PG4MFP_INT5            (0x8UL<<SYS_GPG_MFPL_PG4MFP_Pos)    /*!< GPG_MFPL PG4 s
1243:src/sys.h     **** #define SYS_GPG_MFPL_PG4MFP_PWM1_CH5        (0x6UL<<SYS_GPG_MFPL_PG4MFP_Pos)    /*!< GPG_MFPL PG4 s
1244:src/sys.h     **** #define SYS_GPG_MFPL_PG4MFP_SPI0_SS         (0x2UL<<SYS_GPG_MFPL_PG4MFP_Pos)    /*!< GPG_MFPL PG4 s
1245:src/sys.h     **** #define SYS_GPG_MFPL_PG4MFP_UART2_nRTS      (0x3UL<<SYS_GPG_MFPL_PG4MFP_Pos)    /*!< GPG_MFPL PG4 s
1246:src/sys.h     **** 
1247:src/sys.h     **** //PG.5 MFP
1248:src/sys.h     **** #define SYS_GPG_MFPL_PG5MFP_GPIO            (0x0UL<<SYS_GPG_MFPL_PG5MFP_Pos)    /*!< GPG_MFPL PG5 s
1249:src/sys.h     **** 
1250:src/sys.h     **** //PG.7 MFP
1251:src/sys.h     **** #define SYS_GPG_MFPL_PG7MFP_EBI_nRD         (0x7UL<<SYS_GPG_MFPL_PG7MFP_Pos)    /*!< GPG_MFPL PG7 s
1252:src/sys.h     **** #define SYS_GPG_MFPL_PG7MFP_GPIO            (0x0UL<<SYS_GPG_MFPL_PG7MFP_Pos)    /*!< GPG_MFPL PG7 s
1253:src/sys.h     **** #define SYS_GPG_MFPL_PG7MFP_LCD_SEG0        (0xFUL<<SYS_GPG_MFPL_PG7MFP_Pos)    /*!< GPG_MFPL PG7 s
1254:src/sys.h     **** #define SYS_GPG_MFPL_PG7MFP_SC1_CLK         (0xBUL<<SYS_GPG_MFPL_PG7MFP_Pos)    /*!< GPG_MFPL PG7 s
1255:src/sys.h     **** #define SYS_GPG_MFPL_PG7MFP_SD0_CLK         (0xEUL<<SYS_GPG_MFPL_PG7MFP_Pos)    /*!< GPG_MFPL PG7 s
ARM GAS  C:\Users\CCMA\AppData\Local\Temp\ccBCHRX5.s 			page 40


1256:src/sys.h     **** #define SYS_GPG_MFPL_PG7MFP_UART0_RXD       (0x3UL<<SYS_GPG_MFPL_PG7MFP_Pos)    /*!< GPG_MFPL PG7 s
1257:src/sys.h     **** #define SYS_GPG_MFPL_PG7MFP_USCI0_DAT0      (0xCUL<<SYS_GPG_MFPL_PG7MFP_Pos)    /*!< GPG_MFPL PG7 s
1258:src/sys.h     **** 
1259:src/sys.h     **** //PG.8 MFP
1260:src/sys.h     **** #define SYS_GPG_MFPH_PG8MFP_EBI_nWR         (0x7UL<<SYS_GPG_MFPH_PG8MFP_Pos)    /*!< GPG_MFPH PG8 s
1261:src/sys.h     **** #define SYS_GPG_MFPH_PG8MFP_GPIO            (0x0UL<<SYS_GPG_MFPH_PG8MFP_Pos)    /*!< GPG_MFPH PG8 s
1262:src/sys.h     **** #define SYS_GPG_MFPH_PG8MFP_LCD_SEG1        (0xFUL<<SYS_GPG_MFPH_PG8MFP_Pos)    /*!< GPG_MFPH PG8 s
1263:src/sys.h     **** #define SYS_GPG_MFPH_PG8MFP_SC1_DAT         (0xBUL<<SYS_GPG_MFPH_PG8MFP_Pos)    /*!< GPG_MFPH PG8 s
1264:src/sys.h     **** #define SYS_GPG_MFPH_PG8MFP_SD0_DAT3        (0xEUL<<SYS_GPG_MFPH_PG8MFP_Pos)    /*!< GPG_MFPH PG8 s
1265:src/sys.h     **** #define SYS_GPG_MFPH_PG8MFP_SPI1_SS         (0x1UL<<SYS_GPG_MFPH_PG8MFP_Pos)    /*!< GPG_MFPH PG8 s
1266:src/sys.h     **** #define SYS_GPG_MFPH_PG8MFP_UART0_TXD       (0x3UL<<SYS_GPG_MFPH_PG8MFP_Pos)    /*!< GPG_MFPH PG8 s
1267:src/sys.h     **** #define SYS_GPG_MFPH_PG8MFP_USCI0_DAT1      (0xCUL<<SYS_GPG_MFPH_PG8MFP_Pos)    /*!< GPG_MFPH PG8 s
1268:src/sys.h     **** 
1269:src/sys.h     **** //PG.9 MFP
1270:src/sys.h     **** #define SYS_GPG_MFPH_PG9MFP_GPIO            (0x0UL<<SYS_GPG_MFPH_PG9MFP_Pos)    /*!< GPG_MFPH PG9 s
1271:src/sys.h     **** #define SYS_GPG_MFPH_PG9MFP_LCD_SEG30       (0xFUL<<SYS_GPG_MFPH_PG9MFP_Pos)    /*!< GPG_MFPH PG9 s
1272:src/sys.h     **** #define SYS_GPG_MFPH_PG9MFP_QEI0_A          (0xCUL<<SYS_GPG_MFPH_PG9MFP_Pos)    /*!< GPG_MFPH PG9 s
1273:src/sys.h     **** #define SYS_GPG_MFPH_PG9MFP_UART5_RXD       (0x6UL<<SYS_GPG_MFPH_PG9MFP_Pos)    /*!< GPG_MFPH PG9 s
1274:src/sys.h     **** 
1275:src/sys.h     **** //PG.10 MFP
1276:src/sys.h     **** #define SYS_GPG_MFPH_PG10MFP_GPIO           (0x0UL<<SYS_GPG_MFPH_PG10MFP_Pos)   /*!< GPG_MFPH PG10 
1277:src/sys.h     **** #define SYS_GPG_MFPH_PG10MFP_LCD_SEG31      (0xFUL<<SYS_GPG_MFPH_PG10MFP_Pos)   /*!< GPG_MFPH PG10 
1278:src/sys.h     **** #define SYS_GPG_MFPH_PG10MFP_QEI0_B         (0xCUL<<SYS_GPG_MFPH_PG10MFP_Pos)   /*!< GPG_MFPH PG10 
1279:src/sys.h     **** #define SYS_GPG_MFPH_PG10MFP_UART5_TXD      (0x6UL<<SYS_GPG_MFPH_PG10MFP_Pos)   /*!< GPG_MFPH PG10 
1280:src/sys.h     **** 
1281:src/sys.h     **** //PG.11 MFP
1282:src/sys.h     **** #define SYS_GPG_MFPH_PG11MFP_GPIO           (0x0UL<<SYS_GPG_MFPH_PG11MFP_Pos)   /*!< GPG_MFPH PG11 
1283:src/sys.h     **** #define SYS_GPG_MFPH_PG11MFP_LCD_SEG32      (0xFUL<<SYS_GPG_MFPH_PG11MFP_Pos)   /*!< GPG_MFPH PG11 
1284:src/sys.h     **** #define SYS_GPG_MFPH_PG11MFP_QEI0_INDEX     (0xCUL<<SYS_GPG_MFPH_PG11MFP_Pos)   /*!< GPG_MFPH PG11 
1285:src/sys.h     **** #define SYS_GPG_MFPH_PG11MFP_UART5_nCTS     (0x6UL<<SYS_GPG_MFPH_PG11MFP_Pos)   /*!< GPG_MFPH PG11 
1286:src/sys.h     **** #define SYS_GPG_MFPH_PG11MFP_USB_VBUS_ST    (0xBUL<<SYS_GPG_MFPH_PG11MFP_Pos)   /*!< GPG_MFPH PG11 
1287:src/sys.h     **** 
1288:src/sys.h     **** //PG.12 MFP
1289:src/sys.h     **** #define SYS_GPG_MFPH_PG12MFP_GPIO           (0x0UL<<SYS_GPG_MFPH_PG12MFP_Pos)   /*!< GPG_MFPH PG12 
1290:src/sys.h     **** #define SYS_GPG_MFPH_PG12MFP_LCD_SEG33      (0xFUL<<SYS_GPG_MFPH_PG12MFP_Pos)   /*!< GPG_MFPH PG12 
1291:src/sys.h     **** #define SYS_GPG_MFPH_PG12MFP_UART5_nRTS     (0x6UL<<SYS_GPG_MFPH_PG12MFP_Pos)   /*!< GPG_MFPH PG12 
1292:src/sys.h     **** #define SYS_GPG_MFPH_PG12MFP_USB_VBUS_EN    (0xBUL<<SYS_GPG_MFPH_PG12MFP_Pos)   /*!< GPG_MFPH PG12 
1293:src/sys.h     **** 
1294:src/sys.h     **** 
1295:src/sys.h     **** 
1296:src/sys.h     **** 
1297:src/sys.h     **** /*@}*/ /* end of group SYS_EXPORTED_CONSTANTS */
1298:src/sys.h     **** 
1299:src/sys.h     **** /** @addtogroup SYS_EXPORTED_FUNCTIONS SYS Exported Functions
1300:src/sys.h     ****   @{
1301:src/sys.h     **** */
1302:src/sys.h     **** 
1303:src/sys.h     **** 
1304:src/sys.h     **** /**
1305:src/sys.h     ****   * @brief      Clear Brown-out detector interrupt flag
1306:src/sys.h     ****   * @param      None
1307:src/sys.h     ****   * @return     None
1308:src/sys.h     ****   * @details    This macro clear Brown-out detector interrupt flag.
1309:src/sys.h     ****   */
1310:src/sys.h     **** #define SYS_CLEAR_BOD_INT_FLAG()        (SYS->BODCTL |= SYS_BODCTL_BODIF_Msk)
1311:src/sys.h     **** 
1312:src/sys.h     **** /**
ARM GAS  C:\Users\CCMA\AppData\Local\Temp\ccBCHRX5.s 			page 41


1313:src/sys.h     ****   * @brief      Set Brown-out detector function to normal mode
1314:src/sys.h     ****   * @param      None
1315:src/sys.h     ****   * @return     None
1316:src/sys.h     ****   * @details    This macro set Brown-out detector to normal mode.
1317:src/sys.h     ****   *             The register write-protection function should be disabled before using this macro.
1318:src/sys.h     ****   */
1319:src/sys.h     **** #define SYS_CLEAR_BOD_LPM()             (SYS->BODCTL &= ~SYS_BODCTL_BODLPM_Msk)
1320:src/sys.h     **** 
1321:src/sys.h     **** /**
1322:src/sys.h     ****   * @brief      Disable Brown-out detector function
1323:src/sys.h     ****   * @param      None
1324:src/sys.h     ****   * @return     None
1325:src/sys.h     ****   * @details    This macro disable Brown-out detector function.
1326:src/sys.h     ****   *             The register write-protection function should be disabled before using this macro.
1327:src/sys.h     ****   */
1328:src/sys.h     **** #define SYS_DISABLE_BOD()               (SYS->BODCTL &= ~SYS_BODCTL_BODEN_Msk)
1329:src/sys.h     **** 
1330:src/sys.h     **** /**
1331:src/sys.h     ****   * @brief      Enable Brown-out detector function
1332:src/sys.h     ****   * @param      None
1333:src/sys.h     ****   * @return     None
1334:src/sys.h     ****   * @details    This macro enable Brown-out detector function.
1335:src/sys.h     ****   *             The register write-protection function should be disabled before using this macro.
1336:src/sys.h     ****   */
1337:src/sys.h     **** #define SYS_ENABLE_BOD()                (SYS->BODCTL |= SYS_BODCTL_BODEN_Msk)
1338:src/sys.h     **** 
1339:src/sys.h     **** /**
1340:src/sys.h     ****   * @brief      Get Brown-out detector interrupt flag
1341:src/sys.h     ****   * @param      None
1342:src/sys.h     ****   * @retval     0   Brown-out detect interrupt flag is not set.
1343:src/sys.h     ****   * @retval     >=1 Brown-out detect interrupt flag is set.
1344:src/sys.h     ****   * @details    This macro get Brown-out detector interrupt flag.
1345:src/sys.h     ****   */
1346:src/sys.h     **** #define SYS_GET_BOD_INT_FLAG()          (SYS->BODCTL & SYS_BODCTL_BODIF_Msk)
1347:src/sys.h     **** 
1348:src/sys.h     **** /**
1349:src/sys.h     ****   * @brief      Get Brown-out detector status
1350:src/sys.h     ****   * @param      None
1351:src/sys.h     ****   * @retval     0   System voltage is higher than BOD threshold voltage setting or BOD function is 
1352:src/sys.h     ****   * @retval     >=1 System voltage is lower than BOD threshold voltage setting.
1353:src/sys.h     ****   * @details    This macro get Brown-out detector output status.
1354:src/sys.h     ****   *             If the BOD function is disabled, this function always return 0.
1355:src/sys.h     ****   */
1356:src/sys.h     **** #define SYS_GET_BOD_OUTPUT()            (SYS->BODCTL & SYS_BODCTL_BODOUT_Msk)
1357:src/sys.h     **** 
1358:src/sys.h     **** /**
1359:src/sys.h     ****   * @brief      Enable Brown-out detector interrupt function
1360:src/sys.h     ****   * @param      None
1361:src/sys.h     ****   * @return     None
1362:src/sys.h     ****   * @details    This macro enable Brown-out detector interrupt function.
1363:src/sys.h     ****   *             The register write-protection function should be disabled before using this macro.
1364:src/sys.h     ****   */
1365:src/sys.h     **** #define SYS_DISABLE_BOD_RST()           (SYS->BODCTL &= ~SYS_BODCTL_BODRSTEN_Msk)
1366:src/sys.h     **** 
1367:src/sys.h     **** /**
1368:src/sys.h     ****   * @brief      Enable Brown-out detector reset function
1369:src/sys.h     ****   * @param      None
ARM GAS  C:\Users\CCMA\AppData\Local\Temp\ccBCHRX5.s 			page 42


1370:src/sys.h     ****   * @return     None
1371:src/sys.h     ****   * @details    This macro enable Brown-out detect reset function.
1372:src/sys.h     ****   *             The register write-protection function should be disabled before using this macro.
1373:src/sys.h     ****   */
1374:src/sys.h     **** #define SYS_ENABLE_BOD_RST()            (SYS->BODCTL |= SYS_BODCTL_BODRSTEN_Msk)
1375:src/sys.h     **** 
1376:src/sys.h     **** /**
1377:src/sys.h     ****   * @brief      Set Brown-out detector function low power mode
1378:src/sys.h     ****   * @param      None
1379:src/sys.h     ****   * @return     None
1380:src/sys.h     ****   * @details    This macro set Brown-out detector to low power mode.
1381:src/sys.h     ****   *             The register write-protection function should be disabled before using this macro.
1382:src/sys.h     ****   */
1383:src/sys.h     **** #define SYS_SET_BOD_LPM()               (SYS->BODCTL |= SYS_BODCTL_BODLPM_Msk)
1384:src/sys.h     **** 
1385:src/sys.h     **** /**
1386:src/sys.h     ****   * @brief      Set Brown-out detector voltage level
1387:src/sys.h     ****   * @param[in]  u32Level is Brown-out voltage level. Including :
1388:src/sys.h     ****   *             - \ref SYS_BODCTL_BODVL_4_5V
1389:src/sys.h     ****   *             - \ref SYS_BODCTL_BODVL_3_7V
1390:src/sys.h     ****   *             - \ref SYS_BODCTL_BODVL_2_7V
1391:src/sys.h     ****   *             - \ref SYS_BODCTL_BODVL_2_2V
1392:src/sys.h     ****   * @return     None
1393:src/sys.h     ****   * @details    This macro set Brown-out detector voltage level.
1394:src/sys.h     ****   *             The write-protection function should be disabled before using this macro.
1395:src/sys.h     ****   */
1396:src/sys.h     **** #define SYS_SET_BOD_LEVEL(u32Level)     (SYS->BODCTL = (SYS->BODCTL & ~SYS_BODCTL_BODVL_Msk) | (u32
1397:src/sys.h     **** 
1398:src/sys.h     **** /**
1399:src/sys.h     ****   * @brief      Get reset source is from Brown-out detector reset
1400:src/sys.h     ****   * @param      None
1401:src/sys.h     ****   * @retval     0   Previous reset source is not from Brown-out detector reset
1402:src/sys.h     ****   * @retval     >=1 Previous reset source is from Brown-out detector reset
1403:src/sys.h     ****   * @details    This macro get previous reset source is from Brown-out detect reset or not.
1404:src/sys.h     ****   */
1405:src/sys.h     **** #define SYS_IS_BOD_RST()                (SYS->RSTSTS & SYS_RSTSTS_BODRF_Msk)
1406:src/sys.h     **** 
1407:src/sys.h     **** /**
1408:src/sys.h     ****   * @brief      Get reset source is from CPU reset
1409:src/sys.h     ****   * @param      None
1410:src/sys.h     ****   * @retval     0   Previous reset source is not from CPU reset
1411:src/sys.h     ****   * @retval     >=1 Previous reset source is from CPU reset
1412:src/sys.h     ****   * @details    This macro get previous reset source is from CPU reset.
1413:src/sys.h     ****   */
1414:src/sys.h     **** #define SYS_IS_CPU_RST()                (SYS->RSTSTS & SYS_RSTSTS_CPURF_Msk)
1415:src/sys.h     **** 
1416:src/sys.h     **** /**
1417:src/sys.h     ****   * @brief      Get reset source is from LVR Reset
1418:src/sys.h     ****   * @param      None     
1419:src/sys.h     ****   * @retval     0   Previous reset source is not from Low-Voltage-Reset
1420:src/sys.h     ****   * @retval     >=1 Previous reset source is from Low-Voltage-Reset
1421:src/sys.h     ****   * @details    This macro get previous reset source is from Low-Voltage-Reset.   
1422:src/sys.h     ****   */
1423:src/sys.h     **** #define SYS_IS_LVR_RST()                (SYS->RSTSTS & SYS_RSTSTS_LVRF_Msk)
1424:src/sys.h     **** 
1425:src/sys.h     **** /**
1426:src/sys.h     ****   * @brief      Get reset source is from Power-on Reset
ARM GAS  C:\Users\CCMA\AppData\Local\Temp\ccBCHRX5.s 			page 43


1427:src/sys.h     ****   * @param      None
1428:src/sys.h     ****   * @retval     0   Previous reset source is not from Power-on Reset
1429:src/sys.h     ****   * @retval     >=1 Previous reset source is from Power-on Reset
1430:src/sys.h     ****   * @details    This macro get previous reset source is from Power-on Reset.
1431:src/sys.h     ****   */
1432:src/sys.h     **** #define SYS_IS_POR_RST()                (SYS->RSTSTS & SYS_RSTSTS_PORF_Msk)
1433:src/sys.h     **** 
1434:src/sys.h     **** /**
1435:src/sys.h     ****   * @brief      Get reset source is from reset pin reset
1436:src/sys.h     ****   * @param      None
1437:src/sys.h     ****   * @retval     0   Previous reset source is not from reset pin reset
1438:src/sys.h     ****   * @retval     >=1 Previous reset source is from reset pin reset
1439:src/sys.h     ****   * @details    This macro get previous reset source is from reset pin reset.
1440:src/sys.h     ****   */
1441:src/sys.h     **** #define SYS_IS_RSTPIN_RST()             (SYS->RSTSTS & SYS_RSTSTS_PINRF_Msk)
1442:src/sys.h     **** 
1443:src/sys.h     **** /**
1444:src/sys.h     ****   * @brief      Get reset source is from system reset
1445:src/sys.h     ****   * @param      None
1446:src/sys.h     ****   * @retval     0   Previous reset source is not from system reset
1447:src/sys.h     ****   * @retval     >=1 Previous reset source is from system reset
1448:src/sys.h     ****   * @details    This macro get previous reset source is from system reset.
1449:src/sys.h     ****   */
1450:src/sys.h     **** #define SYS_IS_SYSTEM_RST()             (SYS->RSTSTS & SYS_RSTSTS_MCURF_Msk)
1451:src/sys.h     **** 
1452:src/sys.h     **** /**
1453:src/sys.h     ****   * @brief      Get reset source is from window watch dog reset
1454:src/sys.h     ****   * @param      None
1455:src/sys.h     ****   * @retval     0   Previous reset source is not from window watch dog reset
1456:src/sys.h     ****   * @retval     >=1 Previous reset source is from window watch dog reset
1457:src/sys.h     ****   * @details    This macro get previous reset source is from window watch dog reset.
1458:src/sys.h     ****   */
1459:src/sys.h     **** #define SYS_IS_WDT_RST()                (SYS->RSTSTS & SYS_RSTSTS_WDTRF_Msk)
1460:src/sys.h     **** 
1461:src/sys.h     **** /**
1462:src/sys.h     ****   * @brief      Disable Low-Voltage-Reset function
1463:src/sys.h     ****   * @param      None
1464:src/sys.h     ****   * @return     None
1465:src/sys.h     ****   * @details    This macro disable Low-Voltage-Reset function.
1466:src/sys.h     ****   *             The register write-protection function should be disabled before using this macro.
1467:src/sys.h     ****   */
1468:src/sys.h     **** #define SYS_DISABLE_LVR()               (SYS->BODCTL &= ~SYS_BODCTL_LVREN_Msk)
1469:src/sys.h     **** 
1470:src/sys.h     **** /**
1471:src/sys.h     ****   * @brief      Enable Low-Voltage-Reset function
1472:src/sys.h     ****   * @param      None
1473:src/sys.h     ****   * @return     None
1474:src/sys.h     ****   * @details    This macro enable Low-Voltage-Reset function.
1475:src/sys.h     ****   *             The register write-protection function should be disabled before using this macro.
1476:src/sys.h     ****   */
1477:src/sys.h     **** #define SYS_ENABLE_LVR()                (SYS->BODCTL |= SYS_BODCTL_LVREN_Msk)
1478:src/sys.h     **** 
1479:src/sys.h     **** /**
1480:src/sys.h     ****   * @brief      Disable Power-on Reset function
1481:src/sys.h     ****   * @param      None
1482:src/sys.h     ****   * @return     None
1483:src/sys.h     ****   * @details    This macro disable Power-on Reset function.
ARM GAS  C:\Users\CCMA\AppData\Local\Temp\ccBCHRX5.s 			page 44


1484:src/sys.h     ****   *             The register write-protection function should be disabled before using this macro.
1485:src/sys.h     ****   */
1486:src/sys.h     **** #define SYS_DISABLE_POR()               (SYS->PORCTL = 0x5AA5)
1487:src/sys.h     **** 
1488:src/sys.h     **** /**
1489:src/sys.h     ****   * @brief      Enable Power-on Reset function
1490:src/sys.h     ****   * @param      None
1491:src/sys.h     ****   * @return     None
1492:src/sys.h     ****   * @details    This macro enable Power-on Reset function.
1493:src/sys.h     ****   *             The register write-protection function should be disabled before using this macro.
1494:src/sys.h     ****   */
1495:src/sys.h     **** #define SYS_ENABLE_POR()                (SYS->PORCTL = 0)
1496:src/sys.h     **** 
1497:src/sys.h     **** /**
1498:src/sys.h     ****   * @brief      Clear reset source flag
1499:src/sys.h     ****   * @param[in]  u32RstSrc is reset source. Including :
1500:src/sys.h     ****   *             - \ref SYS_RSTSTS_PORF_Msk
1501:src/sys.h     ****   *             - \ref SYS_RSTSTS_PINRF_Msk
1502:src/sys.h     ****   *             - \ref SYS_RSTSTS_WDTRF_Msk
1503:src/sys.h     ****   *             - \ref SYS_RSTSTS_LVRF_Msk
1504:src/sys.h     ****   *             - \ref SYS_RSTSTS_BODRF_Msk
1505:src/sys.h     ****   *             - \ref SYS_RSTSTS_MCURF_Msk
1506:src/sys.h     ****   *             - \ref SYS_RSTSTS_CPURF_Msk
1507:src/sys.h     ****   *             - \ref SYS_RSTSTS_CPULKRF_Msk  
1508:src/sys.h     ****   * @return     None
1509:src/sys.h     ****   * @details    This macro clear reset source flag.
1510:src/sys.h     ****   */
1511:src/sys.h     **** #define SYS_CLEAR_RST_SOURCE(u32RstSrc) ((SYS->RSTSTS) = (u32RstSrc) )
1512:src/sys.h     **** 
1513:src/sys.h     **** 
1514:src/sys.h     **** 
1515:src/sys.h     **** 
1516:src/sys.h     **** /**
1517:src/sys.h     ****   * @brief      Disable register write-protection function
1518:src/sys.h     ****   * @param      None
1519:src/sys.h     ****   * @return     None
1520:src/sys.h     ****   * @details    This function disable register write-protection function.
1521:src/sys.h     ****   *             To unlock the protected register to allow write access.
1522:src/sys.h     ****   */
1523:src/sys.h     **** __STATIC_INLINE void SYS_UnlockReg(void)
1524:src/sys.h     **** {
1525:src/sys.h     ****     do
1526:src/sys.h     ****     {
1527:src/sys.h     ****         SYS->REGLCTL = 0x59;
 499              		.loc 3 1527 0
 500 ???? 8022     		movs	r2, #128
 501 ???? D205     		lsls	r2, r2, #23
 502 ???? 40F20013 		movw	r3, #256
 503 ???? 5924     		movs	r4, #89
1528:src/sys.h     ****         SYS->REGLCTL = 0x16;
 504              		.loc 3 1528 0
 505 ???? 1620     		movs	r0, #22
1529:src/sys.h     ****         SYS->REGLCTL = 0x88;
 506              		.loc 3 1529 0
 507 ???? 8821     		movs	r1, #136
 508              	.L33:
1527:src/sys.h     ****         SYS->REGLCTL = 0x16;
ARM GAS  C:\Users\CCMA\AppData\Local\Temp\ccBCHRX5.s 			page 45


 509              		.loc 3 1527 0
 510 ???? D450     		str	r4, [r2, r3]
1528:src/sys.h     ****         SYS->REGLCTL = 0x16;
 511              		.loc 3 1528 0
 512 ???? D050     		str	r0, [r2, r3]
 513              		.loc 3 1529 0
 514 ???? D150     		str	r1, [r2, r3]
1530:src/sys.h     ****     }
1531:src/sys.h     ****     while(SYS->REGLCTL == 0);
 515              		.loc 3 1531 0
 516 ???? D558     		ldr	r5, [r2, r3]
 517 ???? 002D     		cmp	r5, #0
 518 ???? F9D0     		beq	.L33
 519              	.LBE9:
 520              	.LBE8:
 186:src/main.c    **** 
 521              		.loc 1 186 0
 522 ???? FFF7FEFF 		bl	SYS_Init
 523              	.LVL21:
 189:src/main.c    **** 
 524              		.loc 1 189 0
 525 ???? FFF7FEFF 		bl	UART0_Init
 526              	.LVL22:
 192:src/main.c    **** 		asm(".label JMPADDR");
 527              		.loc 1 192 0
 528              		.syntax divided
 529              	@ 192 "src/main.c" 1
 530 ???? 354B     		ldr r3, =JMPADDR
 531              	@ 0 "" 2
 193:src/main.c    **** 	
 532              		.loc 1 193 0
 533              	@ 193 "src/main.c" 1
 534              		.label JMPADDR
 535              	@ 0 "" 2
 200:src/main.c    **** 		tests1 = strcpy(tests2, tests3);
 536              		.loc 1 200 0
 537              		.thumb
 538              		.syntax unified
 539 ???? 294C     		ldr	r4, .L40
 540 ???? 2100     		movs	r1, r4
 541 ???? 2948     		ldr	r0, .L40+4
 542 ???? FFF7FEFF 		bl	printf
 543              	.LVL23:
 201:src/main.c    **** 		
 544              		.loc 1 201 0
 545 ???? 2100     		movs	r1, r4
 546 ???? 0C31     		adds	r1, r1, #12
 547 ???? 2000     		movs	r0, r4
 548 ???? FFF7FEFF 		bl	strcpy
 549              	.LVL24:
 550 ???? 264B     		ldr	r3, .L40+8
 551 ???? 1860     		str	r0, [r3]
 203:src/main.c    **** 		printf("1 %c \n", testc);
 552              		.loc 1 203 0
 553 ???? 264B     		ldr	r3, .L40+12
 554 ???? 1868     		ldr	r0, [r3]
 555 ???? 4268     		ldr	r2, [r0, #4]
ARM GAS  C:\Users\CCMA\AppData\Local\Temp\ccBCHRX5.s 			page 46


 556 ???? 5368     		ldr	r3, [r2, #4]
 557 ???? 013B     		subs	r3, r3, #1
 558 ???? 5360     		str	r3, [r2, #4]
 559 ???? 002B     		cmp	r3, #0
 560 ???? 04DA     		bge	.L34
 203:src/main.c    **** 		printf("1 %c \n", testc);
 561              		.loc 1 203 0 is_stmt 0 discriminator 1
 562 ???? 4168     		ldr	r1, [r0, #4]
 563 ???? FFF7FEFF 		bl	__srget_r
 564              	.LVL25:
 565 ???? C1B2     		uxtb	r1, r0
 566 ???? 04E0     		b	.L35
 567              	.L34:
 203:src/main.c    **** 		printf("1 %c \n", testc);
 568              		.loc 1 203 0 discriminator 2
 569 ???? 4268     		ldr	r2, [r0, #4]
 570 ???? 1368     		ldr	r3, [r2]
 571 ???? 591C     		adds	r1, r3, #1
 572 ???? 1160     		str	r1, [r2]
 573 ???? 1978     		ldrb	r1, [r3]
 574              	.L35:
 203:src/main.c    **** 		printf("1 %c \n", testc);
 575              		.loc 1 203 0 discriminator 4
 576 ???? 1E4B     		ldr	r3, .L40+16
 577 ???? 1970     		strb	r1, [r3]
 204:src/main.c    **** 		testc = getchar();
 578              		.loc 1 204 0 is_stmt 1 discriminator 4
 579 ???? 1E48     		ldr	r0, .L40+20
 580 ???? FFF7FEFF 		bl	printf
 581              	.LVL26:
 205:src/main.c    **** 		printf("2 %c \n", testc);
 582              		.loc 1 205 0 discriminator 4
 583 ???? 1A4B     		ldr	r3, .L40+12
 584 ???? 1868     		ldr	r0, [r3]
 585 ???? 4268     		ldr	r2, [r0, #4]
 586 ???? 5368     		ldr	r3, [r2, #4]
 587 ???? 013B     		subs	r3, r3, #1
 588 ???? 5360     		str	r3, [r2, #4]
 589 ???? 002B     		cmp	r3, #0
 590 ???? 04DA     		bge	.L36
 205:src/main.c    **** 		printf("2 %c \n", testc);
 591              		.loc 1 205 0 is_stmt 0 discriminator 1
 592 ???? 4168     		ldr	r1, [r0, #4]
 593 ???? FFF7FEFF 		bl	__srget_r
 594              	.LVL27:
 595 ???? C1B2     		uxtb	r1, r0
 596 ???? 04E0     		b	.L37
 597              	.L36:
 205:src/main.c    **** 		printf("2 %c \n", testc);
 598              		.loc 1 205 0 discriminator 2
 599 ???? 4268     		ldr	r2, [r0, #4]
 600 ???? 1368     		ldr	r3, [r2]
 601 ???? 591C     		adds	r1, r3, #1
 602 ???? 1160     		str	r1, [r2]
 603 ???? 1978     		ldrb	r1, [r3]
 604              	.L37:
 205:src/main.c    **** 		printf("2 %c \n", testc);
ARM GAS  C:\Users\CCMA\AppData\Local\Temp\ccBCHRX5.s 			page 47


 605              		.loc 1 205 0 discriminator 4
 606 ???? 124B     		ldr	r3, .L40+16
 607 ???? 1970     		strb	r1, [r3]
 206:src/main.c    **** 	
 608              		.loc 1 206 0 is_stmt 1 discriminator 4
 609 ???? 1348     		ldr	r0, .L40+24
 610 ???? FFF7FEFF 		bl	printf
 611              	.LVL28:
 208:src/main.c    **** 		scanf("2 %s\n", tests2);
 612              		.loc 1 208 0 discriminator 4
 613 ???? 0C4C     		ldr	r4, .L40
 614 ???? 2100     		movs	r1, r4
 615 ???? 1248     		ldr	r0, .L40+28
 616 ???? FFF7FEFF 		bl	printf
 617              	.LVL29:
 209:src/main.c    **** 		printf("3 %s\n", tests2);
 618              		.loc 1 209 0 discriminator 4
 619 ???? 2100     		movs	r1, r4
 620 ???? 1148     		ldr	r0, .L40+32
 621 ???? FFF7FEFF 		bl	scanf
 622              	.LVL30:
 210:src/main.c    **** 		printf("4 %x\n", tests2);
 623              		.loc 1 210 0 discriminator 4
 624 ???? 2100     		movs	r1, r4
 625 ???? 1048     		ldr	r0, .L40+36
 626 ???? FFF7FEFF 		bl	printf
 627              	.LVL31:
 211:src/main.c    **** //		printf("3 %x\n", tests3);
 628              		.loc 1 211 0 discriminator 4
 629 ???? 2100     		movs	r1, r4
 630 ???? 0648     		ldr	r0, .L40+4
 631 ???? FFF7FEFF 		bl	printf
 632              	.LVL32:
 228:src/main.c    ****     /* Check the non-secure settting of FMC */
 633              		.loc 1 228 0 discriminator 4
 634 ???? 0D4B     		ldr	r3, .L40+40
 635 ???? 996A     		ldr	r1, [r3, #40]
 636 ???? 0D48     		ldr	r0, .L40+44
 637 ???? FFF7FEFF 		bl	printf
 638              	.LVL33:
 248:src/main.c    ****     while(1);
 639              		.loc 1 248 0 discriminator 4
 640 ???? FFF7FEFF 		bl	SecureAttrib
 641              	.LVL34:
 642              	.L38:
 643 ???? FEE7     		b	.L38
 644              	.L41:
 645              		.align	2
 646              	.L40:
 647 ???? 00000000 		.word	.LANCHOR1
 648 ???? 40000000 		.word	.LC8
 649 ???? 00000000 		.word	tests1
 650 ???? 00000000 		.word	_impure_ptr
 651 ???? 00000000 		.word	testc
 652 ???? 48000000 		.word	.LC13
 653 ???? 50000000 		.word	.LC15
 654 ???? 58000000 		.word	.LC17
ARM GAS  C:\Users\CCMA\AppData\Local\Temp\ccBCHRX5.s 			page 48


 655 ???? 60000000 		.word	.LC19
 656 ???? 68000000 		.word	.LC21
 657 ???? 00F00240 		.word	1073934336
 658 ???? 70000000 		.word	.LC23
 659              		.cfi_endproc
 660              	.LFE78:
 661              		.size	main, .-main
 662              		.comm	testc,1,1
 663              		.global	tests3
 664              		.global	tests2
 665              		.comm	tests1,4,4
 666              		.global	pfNonSecure_LED_Off
 667              		.global	pfNonSecure_LED_On
 668              		.data
 669              		.align	2
 670              		.set	.LANCHOR1,. + 0
 671              		.type	tests2, %object
 672              		.size	tests2, 10
 673              	tests2:
 674 ???? 62626C61 		.ascii	"bblala\000"
 674      6C6100
 675 ???? 000000   		.space	3
 676 ???? 0000     		.space	2
 677              		.type	tests3, %object
 678              		.size	tests3, 10
 679              	tests3:
 680 ???? 63636861 		.ascii	"cchaha\000"
 680      686100
 681 ???? 000000   		.space	3
 682              		.section	.rodata.str1.4,"aMS",%progbits,1
 683              		.align	2
 684              	.LC0:
 685 ???? 53656375 		.ascii	"Secure LED ON call by secure\000"
 685      7265204C 
 685      4544204F 
 685      4E206361 
 685      6C6C2062 
 686 ???? 000000   		.space	3
 687              	.LC2:
 688 ???? 53656375 		.ascii	"Secure LED OFF call by secure\000"
 688      7265204C 
 688      4544204F 
 688      46462063 
 688      616C6C20 
 689 ???? 0000     		.space	2
 690              	.LC8:
 691 ???? 34202578 		.ascii	"4 %x\012\000"
 691      0A00
 692 ???? 0000     		.space	2
 693              	.LC13:
 694 ???? 31202563 		.ascii	"1 %c \012\000"
 694      200A00
 695 ???? 00       		.space	1
 696              	.LC15:
 697 ???? 32202563 		.ascii	"2 %c \012\000"
 697      200A00
 698 ???? 00       		.space	1
ARM GAS  C:\Users\CCMA\AppData\Local\Temp\ccBCHRX5.s 			page 49


 699              	.LC17:
 700 ???? 31202573 		.ascii	"1 %s\012\000"
 700      0A00
 701 ???? 0000     		.space	2
 702              	.LC19:
 703 ???? 32202573 		.ascii	"2 %s\012\000"
 703      0A00
 704 ???? 0000     		.space	2
 705              	.LC21:
 706 ???? 33202573 		.ascii	"3 %s\012\000"
 706      0A00
 707 ???? 0000     		.space	2
 708              	.LC23:
 709 ???? 464E5341 		.ascii	"FNSADDR = 0x%08x\012\000"
 709      44445220 
 709      3D203078 
 709      25303878 
 709      0A00
 710              		.bss
 711              		.align	2
 712              		.set	.LANCHOR0,. + 0
 713              		.type	pfNonSecure_LED_On, %object
 714              		.size	pfNonSecure_LED_On, 4
 715              	pfNonSecure_LED_On:
 716 ???? 00000000 		.space	4
 717              		.type	pfNonSecure_LED_Off, %object
 718              		.size	pfNonSecure_LED_Off, 4
 719              	pfNonSecure_LED_Off:
 720 ???? 00000000 		.space	4
 721              		.type	ticks.7522, %object
 722              		.size	ticks.7522, 4
 723              	ticks.7522:
 724 ???? 00000000 		.space	4
 725              		.text
 726              	.Letext0:
 727              		.file 4 "c:\\program files\\gnu tools arm embedded\\5.4 2016q3\\arm-none-eabi\\include\\machine\\_
 728              		.file 5 "c:\\program files\\gnu tools arm embedded\\5.4 2016q3\\arm-none-eabi\\include\\sys\\_stdi
 729              		.file 6 "c:\\program files\\gnu tools arm embedded\\5.4 2016q3\\arm-none-eabi\\include\\sys\\lock.
 730              		.file 7 "c:\\program files\\gnu tools arm embedded\\5.4 2016q3\\arm-none-eabi\\include\\sys\\_type
 731              		.file 8 "c:\\program files\\gnu tools arm embedded\\5.4 2016q3\\lib\\gcc\\arm-none-eabi\\5.4.1\\in
 732              		.file 9 "c:\\program files\\gnu tools arm embedded\\5.4 2016q3\\arm-none-eabi\\include\\sys\\reent
 733              		.file 10 "src/core_armv8mbl.h"
 734              		.file 11 "src/TC8234.h"
 735              		.file 12 "src/system_TC8234.h"
 736              		.file 13 "c:\\program files\\gnu tools arm embedded\\5.4 2016q3\\arm-none-eabi\\include\\stdio.h"
 737              		.file 14 "c:\\program files\\gnu tools arm embedded\\5.4 2016q3\\arm-none-eabi\\include\\string.h"
 738              		.file 15 "<built-in>"