ARM GAS  C:\Users\CCMA\AppData\Local\Temp\cc3QzZjo.s 			page 1


   1              		.syntax unified
   2              		.arch armv8-m.base
   3              		.fpu softvfp
   4              		.eabi_attribute 20, 1
   5              		.eabi_attribute 21, 1
   6              		.eabi_attribute 23, 3
   7              		.eabi_attribute 24, 1
   8              		.eabi_attribute 25, 1
   9              		.eabi_attribute 26, 1
  10              		.eabi_attribute 30, 1
  11              		.eabi_attribute 34, 0
  12              		.eabi_attribute 18, 4
  13              		.thumb
  14              		.syntax unified
  15              		.file	"retarget.c"
  16              		.text
  17              	.Ltext0:
  18              		.cfi_sections	.debug_frame
  19              		.align	2
  20              		.global	Hard_Fault_Handler
  21              		.code	16
  22              		.thumb_func
  23              		.type	Hard_Fault_Handler, %function
  24              	Hard_Fault_Handler:
  25              	.LFB62:
  26              		.file 1 "src/retarget.c"
   1:src/retarget.c **** /**************************************************************************//**
   2:src/retarget.c ****  * @file     retarget.c
   3:src/retarget.c ****  * @version  V3.00
   4:src/retarget.c ****  * $Revision: 1 $
   5:src/retarget.c ****  * $Date: 16/07/07 7:50p $
   6:src/retarget.c ****  * @brief    Debug Port and Semihost Setting Source File
   7:src/retarget.c ****  *
   8:src/retarget.c ****  * @note
   9:src/retarget.c ****  * Copyright (C) 2011 Nuvoton Technology Corp. All rights reserved.
  10:src/retarget.c ****  *
  11:src/retarget.c ****  ******************************************************************************/
  12:src/retarget.c **** 
  13:src/retarget.c **** 
  14:src/retarget.c **** #include <stdio.h>
  15:src/retarget.c **** #include "TC8234.h"
  16:src/retarget.c **** 
  17:src/retarget.c **** #if defined ( __CC_ARM   )
  18:src/retarget.c **** #if (__ARMCC_VERSION < 400000)
  19:src/retarget.c **** #else
  20:src/retarget.c **** /* Insist on keeping widthprec, to avoid X propagation by benign code in C-lib */
  21:src/retarget.c **** #pragma import _printf_widthprec
  22:src/retarget.c **** #endif
  23:src/retarget.c **** #endif
  24:src/retarget.c **** 
  25:src/retarget.c **** /*-------------------------------------------------------------------------------------------------
  26:src/retarget.c **** /* Global variables                                                                                
  27:src/retarget.c **** /*-------------------------------------------------------------------------------------------------
  28:src/retarget.c **** #if !(defined(__ICCARM__) && (__VER__ >= 6010000))
  29:src/retarget.c **** # if (__ARMCC_VERSION < 6040000)
  30:src/retarget.c **** struct __FILE
  31:src/retarget.c **** {
ARM GAS  C:\Users\CCMA\AppData\Local\Temp\cc3QzZjo.s 			page 2


  32:src/retarget.c ****     int handle; /* Add whatever you need here */
  33:src/retarget.c **** };
  34:src/retarget.c **** # endif
  35:src/retarget.c **** #endif
  36:src/retarget.c **** FILE __stdout;
  37:src/retarget.c **** FILE __stdin;
  38:src/retarget.c **** 
  39:src/retarget.c **** enum { r0, r1, r2, r3, r12, lr, pc, psr};
  40:src/retarget.c **** 
  41:src/retarget.c **** /**
  42:src/retarget.c ****  * @brief       Helper function to dump register while hard fault occurred
  43:src/retarget.c ****  * @param[in]   stack pointer points to the dumped registers in SRAM
  44:src/retarget.c ****  * @return      None
  45:src/retarget.c ****  * @details     This function is implement to print r0, r1, r2, r3, r12, lr, pc, psr
  46:src/retarget.c ****  */
  47:src/retarget.c **** static void stackDump(uint32_t stack[])
  48:src/retarget.c **** {   
  49:src/retarget.c ****     printf("r0  = 0x%x\n", stack[r0]);
  50:src/retarget.c ****     printf("r1  = 0x%x\n", stack[r1]);
  51:src/retarget.c ****     printf("r2  = 0x%x\n", stack[r2]);
  52:src/retarget.c ****     printf("r3  = 0x%x\n", stack[r3]);
  53:src/retarget.c ****     printf("r12 = 0x%x\n", stack[r12]);
  54:src/retarget.c ****     printf("lr  = 0x%x\n", stack[lr]);
  55:src/retarget.c ****     printf("pc  = 0x%x\n", stack[pc]);
  56:src/retarget.c ****     printf("psr = 0x%x\n", stack[psr]);
  57:src/retarget.c **** }
  58:src/retarget.c **** 
  59:src/retarget.c **** /**
  60:src/retarget.c ****  * @brief       Hard fault handler
  61:src/retarget.c ****  * @param[in]   stack pointer points to the dumped registers in SRAM
  62:src/retarget.c ****  * @return      None
  63:src/retarget.c ****  * @details     Replace while(1) at the end of this function with chip reset if WDT is not enabled 
  64:src/retarget.c ****  */
  65:src/retarget.c **** void Hard_Fault_Handler(uint32_t stack[])
  66:src/retarget.c **** {
  27              		.loc 1 66 0
  28              		.cfi_startproc
  29              		@ Volatile: function does not return.
  30              		@ args = 0, pretend = 0, frame = 0
  31              		@ frame_needed = 0, uses_anonymous_args = 0
  32              	.LVL0:
  33 0000 10B5     		push	{r4, lr}
  34              	.LCFI0:
  35              		.cfi_def_cfa_offset 8
  36              		.cfi_offset 4, -8
  37              		.cfi_offset 14, -4
  38 0002 0400     		movs	r4, r0
  67:src/retarget.c ****     printf("In Hard Fault Handler\n");
  39              		.loc 1 67 0
  40 0004 1148     		ldr	r0, .L3
  41              	.LVL1:
  42 0006 FFF7FEFF 		bl	puts
  43              	.LVL2:
  44              	.LBB4:
  45              	.LBB5:
  49:src/retarget.c ****     printf("r1  = 0x%x\n", stack[r1]);
  46              		.loc 1 49 0
ARM GAS  C:\Users\CCMA\AppData\Local\Temp\cc3QzZjo.s 			page 3


  47 000a 2168     		ldr	r1, [r4]
  48 000c 1048     		ldr	r0, .L3+4
  49 000e FFF7FEFF 		bl	printf
  50              	.LVL3:
  50:src/retarget.c ****     printf("r2  = 0x%x\n", stack[r2]);
  51              		.loc 1 50 0
  52 0012 6168     		ldr	r1, [r4, #4]
  53 0014 0F48     		ldr	r0, .L3+8
  54 0016 FFF7FEFF 		bl	printf
  55              	.LVL4:
  51:src/retarget.c ****     printf("r3  = 0x%x\n", stack[r3]);
  56              		.loc 1 51 0
  57 001a A168     		ldr	r1, [r4, #8]
  58 001c 0E48     		ldr	r0, .L3+12
  59 001e FFF7FEFF 		bl	printf
  60              	.LVL5:
  52:src/retarget.c ****     printf("r12 = 0x%x\n", stack[r12]);
  61              		.loc 1 52 0
  62 0022 E168     		ldr	r1, [r4, #12]
  63 0024 0D48     		ldr	r0, .L3+16
  64 0026 FFF7FEFF 		bl	printf
  65              	.LVL6:
  53:src/retarget.c ****     printf("lr  = 0x%x\n", stack[lr]);
  66              		.loc 1 53 0
  67 002a 2169     		ldr	r1, [r4, #16]
  68 002c 0C48     		ldr	r0, .L3+20
  69 002e FFF7FEFF 		bl	printf
  70              	.LVL7:
  54:src/retarget.c ****     printf("pc  = 0x%x\n", stack[pc]);
  71              		.loc 1 54 0
  72 0032 6169     		ldr	r1, [r4, #20]
  73 0034 0B48     		ldr	r0, .L3+24
  74 0036 FFF7FEFF 		bl	printf
  75              	.LVL8:
  55:src/retarget.c ****     printf("psr = 0x%x\n", stack[psr]);
  76              		.loc 1 55 0
  77 003a A169     		ldr	r1, [r4, #24]
  78 003c 0A48     		ldr	r0, .L3+28
  79 003e FFF7FEFF 		bl	printf
  80              	.LVL9:
  56:src/retarget.c **** }
  81              		.loc 1 56 0
  82 0042 E169     		ldr	r1, [r4, #28]
  83 0044 0948     		ldr	r0, .L3+32
  84 0046 FFF7FEFF 		bl	printf
  85              	.LVL10:
  86              	.L2:
  87 004a FEE7     		b	.L2
  88              	.L4:
  89              		.align	2
  90              	.L3:
  91 004c 00000000 		.word	.LC0
  92 0050 18000000 		.word	.LC2
  93 0054 24000000 		.word	.LC4
  94 0058 30000000 		.word	.LC6
  95 005c 3C000000 		.word	.LC8
  96 0060 48000000 		.word	.LC10
ARM GAS  C:\Users\CCMA\AppData\Local\Temp\cc3QzZjo.s 			page 4


  97 0064 54000000 		.word	.LC12
  98 0068 60000000 		.word	.LC14
  99 006c 6C000000 		.word	.LC16
 100              	.LBE5:
 101              	.LBE4:
 102              		.cfi_endproc
 103              	.LFE62:
 104              		.size	Hard_Fault_Handler, .-Hard_Fault_Handler
 105              		.align	2
 106              		.global	SendChar_ToUART
 107              		.code	16
 108              		.thumb_func
 109              		.type	SendChar_ToUART, %function
 110              	SendChar_ToUART:
 111              	.LFB63:
  68:src/retarget.c **** 
  69:src/retarget.c ****     stackDump(stack);
  70:src/retarget.c **** 
  71:src/retarget.c ****     // Replace while(1) with chip reset if WDT is not enabled for end product
  72:src/retarget.c ****     while(1);
  73:src/retarget.c ****     //SYS->IPRSTC1 = SYS_IPRSTC1_CHIP_RST_Msk;
  74:src/retarget.c **** }
  75:src/retarget.c **** 
  76:src/retarget.c **** /*-------------------------------------------------------------------------------------------------
  77:src/retarget.c **** /* Routine to write a char                                                                         
  78:src/retarget.c **** /*-------------------------------------------------------------------------------------------------
  79:src/retarget.c **** 
  80:src/retarget.c **** #if defined(DEBUG_ENABLE_SEMIHOST)
  81:src/retarget.c **** /* The static buffer is used to speed up the semihost */
  82:src/retarget.c **** static char g_buf[16];
  83:src/retarget.c **** static char g_buf_len = 0;
  84:src/retarget.c **** 
  85:src/retarget.c **** # if defined(__ICCARM__)
  86:src/retarget.c **** 
  87:src/retarget.c **** 
  88:src/retarget.c **** void SH_End(void)
  89:src/retarget.c **** {
  90:src/retarget.c ****     asm("MOVS   R0,#1 \n"        //; Set return value to 1
  91:src/retarget.c ****         "BX     lr    \n"            //; Return
  92:src/retarget.c ****        );
  93:src/retarget.c **** }
  94:src/retarget.c **** 
  95:src/retarget.c **** void SH_ICE(void)
  96:src/retarget.c **** {
  97:src/retarget.c ****   asm("CMP   R2,#0   \n"
  98:src/retarget.c ****       "BEQ   SH_End  \n"
  99:src/retarget.c ****       "STR   R0,[R2] \n"       //; Save the return value to *pn32Out_R0
 100:src/retarget.c ****      );
 101:src/retarget.c **** }
 102:src/retarget.c **** 
 103:src/retarget.c **** /**
 104:src/retarget.c ****  *
 105:src/retarget.c ****  * @brief      The function to process semihosted command
 106:src/retarget.c ****  * @param[in]  n32In_R0  : semihost register 0
 107:src/retarget.c ****  * @param[in]  n32In_R1  : semihost register 1
 108:src/retarget.c ****  * @param[out] pn32Out_R0: semihost register 0
 109:src/retarget.c ****  * @retval     0: No ICE debug
ARM GAS  C:\Users\CCMA\AppData\Local\Temp\cc3QzZjo.s 			page 5


 110:src/retarget.c ****  * @retval     1: ICE debug
 111:src/retarget.c ****  *
 112:src/retarget.c ****  */
 113:src/retarget.c **** int32_t SH_DoCommand(int32_t n32In_R0, int32_t n32In_R1, int32_t *pn32Out_R0)
 114:src/retarget.c **** {
 115:src/retarget.c ****     asm("BKPT   0xAB   \n"       //; This instruction will cause ICE trap or system HardFault
 116:src/retarget.c ****         "B      SH_ICE \n"
 117:src/retarget.c ****         "SH_HardFault: \n"       //; Captured by HardFault
 118:src/retarget.c ****         "MOVS   R0,#0  \n"       //; Set return value to 0
 119:src/retarget.c ****         "BX     lr     \n"       //; Return
 120:src/retarget.c ****         );
 121:src/retarget.c **** 
 122:src/retarget.c ****     return 1;                    //; Return 1 when it is trap by ICE
 123:src/retarget.c **** }
 124:src/retarget.c **** 
 125:src/retarget.c **** /**
 126:src/retarget.c ****  * @brief       Get LR value and branch to Hard_Fault_Handler function
 127:src/retarget.c ****  * @param       None
 128:src/retarget.c ****  * @return      None
 129:src/retarget.c ****  * @details     This function is use to get LR value and branch to Hard_Fault_Handler function.
 130:src/retarget.c ****  */
 131:src/retarget.c **** void Get_LR_and_Branch(void)
 132:src/retarget.c **** {
 133:src/retarget.c ****     asm("MOV     R1, LR               \n" //; LR current value
 134:src/retarget.c ****         "B       Hard_Fault_Handler   \n"
 135:src/retarget.c ****        );
 136:src/retarget.c **** }
 137:src/retarget.c **** 
 138:src/retarget.c **** /**
 139:src/retarget.c ****  * @brief       Get MSP value and branch to Get_LR_and_Branch function
 140:src/retarget.c ****  * @param       None
 141:src/retarget.c ****  * @return      None
 142:src/retarget.c ****  * @details     This function is use to get stack pointer value and branch to Get_LR_and_Branch fun
 143:src/retarget.c ****  */
 144:src/retarget.c **** void Stack_Use_MSP(void)
 145:src/retarget.c **** {
 146:src/retarget.c ****     asm("MRS     R0, MSP           \n" //; read MSP
 147:src/retarget.c ****         "B       Get_LR_and_Branch \n"
 148:src/retarget.c ****        );
 149:src/retarget.c **** }
 150:src/retarget.c **** 
 151:src/retarget.c **** /**
 152:src/retarget.c ****  * @brief       Get stack pointer value and branch to Get_LR_and_Branch function
 153:src/retarget.c ****  * @param       None
 154:src/retarget.c ****  * @return      None
 155:src/retarget.c ****  * @details     This function is use to get stack pointer value and branch to Get_LR_and_Branch fun
 156:src/retarget.c ****  */
 157:src/retarget.c **** void HardFault_Handler_Ret(void)
 158:src/retarget.c **** {
 159:src/retarget.c ****     asm("MOVS    r0, #4                        \n"
 160:src/retarget.c ****         "MOV     r1, LR                        \n"
 161:src/retarget.c ****         "TST     r0, r1                        \n" //; check LR bit 2
 162:src/retarget.c ****         "BEQ     Stack_Use_MSP                 \n" //; stack use MSP
 163:src/retarget.c ****         "MRS     R0, PSP                       \n" //; stack use PSP, read PSP
 164:src/retarget.c ****         "B       Get_LR_and_Branch             \n"
 165:src/retarget.c ****        );
 166:src/retarget.c **** }
ARM GAS  C:\Users\CCMA\AppData\Local\Temp\cc3QzZjo.s 			page 6


 167:src/retarget.c **** 
 168:src/retarget.c **** /**
 169:src/retarget.c ****  * @brief    This function is implemented to support semihost
 170:src/retarget.c ****  * @param    None
 171:src/retarget.c ****  * @returns  None
 172:src/retarget.c ****  * @details  This function is implement to support semihost message print.
 173:src/retarget.c ****  *
 174:src/retarget.c ****  */
 175:src/retarget.c **** void SP_Read_Ready(void)
 176:src/retarget.c **** {
 177:src/retarget.c ****     asm("LDR     R1, [R0, #24] \n"        //; Get previous PC
 178:src/retarget.c ****         "LDRH    R3, [R1]      \n"        //; Get instruction
 179:src/retarget.c ****         "LDR     R2, [pc, #8]  \n"        //; The special BKPT instruction
 180:src/retarget.c ****         "CMP     R3, R2        \n"        //; Test if the instruction at previous PC is BKPT
 181:src/retarget.c ****         "BNE     HardFault_Handler_Ret \n" //; Not BKPT
 182:src/retarget.c ****         "ADDS    R1, #4        \n"        //; Skip BKPT and next line
 183:src/retarget.c ****         "STR     R1, [R0, #24] \n"        //; Save previous PC
 184:src/retarget.c ****         "BX      lr            \n"        //; Return
 185:src/retarget.c ****         "DCD     0xBEAB        \n"        //; BKPT instruction code
 186:src/retarget.c ****         "B       HardFault_Handler_Ret \n"
 187:src/retarget.c ****        );
 188:src/retarget.c **** }
 189:src/retarget.c **** 
 190:src/retarget.c **** /**
 191:src/retarget.c ****  * @brief       Get stack pointer value and branch to Get_LR_and_Branch function
 192:src/retarget.c ****  * @param       None
 193:src/retarget.c ****  * @return      None
 194:src/retarget.c ****  * @details     This function is use to get stack pointer value and branch to Get_LR_and_Branch fun
 195:src/retarget.c ****  */
 196:src/retarget.c **** void SP_is_PSP(void)
 197:src/retarget.c **** {
 198:src/retarget.c ****     asm(
 199:src/retarget.c ****         "MRS     R0, PSP       \n"      //; stack use PSP, read PSP
 200:src/retarget.c ****         "B       Get_LR_and_Branch    \n"
 201:src/retarget.c ****     
 202:src/retarget.c ****        );
 203:src/retarget.c **** }
 204:src/retarget.c **** 
 205:src/retarget.c **** /**
 206:src/retarget.c ****  * @brief    This HardFault handler is implemented to support semihost
 207:src/retarget.c ****  *
 208:src/retarget.c ****  * @param    None
 209:src/retarget.c ****  *
 210:src/retarget.c ****  * @returns  None
 211:src/retarget.c ****  *
 212:src/retarget.c ****  * @details  This function is implement to support semihost message print.
 213:src/retarget.c ****  *
 214:src/retarget.c ****  */
 215:src/retarget.c **** void HardFault_Handler (void)
 216:src/retarget.c **** {
 217:src/retarget.c ****     asm("MOV     R0, lr        \n"
 218:src/retarget.c ****         "LSLS    R0, #29       \n"        //; Check bit 2
 219:src/retarget.c ****         "BMI     SP_is_PSP     \n"        //; previous stack is PSP
 220:src/retarget.c ****         "MRS     R0, MSP       \n"        //; previous stack is MSP, read MSP
 221:src/retarget.c ****         "B       SP_Read_Ready \n"
 222:src/retarget.c ****        );
 223:src/retarget.c **** 
ARM GAS  C:\Users\CCMA\AppData\Local\Temp\cc3QzZjo.s 			page 7


 224:src/retarget.c ****     while(1);
 225:src/retarget.c **** }
 226:src/retarget.c **** 
 227:src/retarget.c **** 
 228:src/retarget.c **** # else // defined(__ICCARM__)
 229:src/retarget.c **** 
 230:src/retarget.c **** #if 0 //def __GNUC__
 231:src/retarget.c **** /**
 232:src/retarget.c ****  *
 233:src/retarget.c ****  * @brief      The function to process semihosted command
 234:src/retarget.c ****  * @param[in]  n32In_R0  : semihost register 0
 235:src/retarget.c ****  * @param[in]  n32In_R1  : semihost register 1
 236:src/retarget.c ****  * @param[out] pn32Out_R0: semihost register 0
 237:src/retarget.c ****  * @retval     0: No ICE debug
 238:src/retarget.c ****  * @retval     1: ICE debug
 239:src/retarget.c ****  *
 240:src/retarget.c ****  */
 241:src/retarget.c **** int32_t SH_DoCommand(int32_t n32In_R0, int32_t n32In_R1, int32_t *pn32Out_R0)
 242:src/retarget.c **** {
 243:src/retarget.c ****     __ASM volatile ("BKPT   0xAB");          //("MRS %0, control" : "=r" (result) );
 244:src/retarget.c ****     //; ICE will step over BKPT directly
 245:src/retarget.c ****     //; HardFault will step BKPT and the next line
 246:src/retarget.c ****     asm("B      SH_ICE");
 247:src/retarget.c **** 
 248:src/retarget.c **** 	SH_HardFault:             //; Captured by HardFault
 249:src/retarget.c ****     asm("MOVS   R0, #0");        //; Set return value to 0
 250:src/retarget.c ****     asm("BX     lr );           //; Return
 251:src/retarget.c **** 
 252:src/retarget.c **** 		SH_ICE:                   //; Captured by ICE
 253:src/retarget.c ****     //; Save return value
 254:src/retarget.c ****     asm("CMP    R2, #0);
 255:src/retarget.c ****     asm("BEQ    SH_End);
 256:src/retarget.c ****     asm("STR    R0, [R2] );     //; Save the return value to *pn32Out_R0
 257:src/retarget.c **** 
 258:src/retarget.c **** 		SH_End:
 259:src/retarget.c ****     asm("MOVS   R0, #1  );      //; Set return value to 1
 260:src/retarget.c ****     asm("BX     lr);            //; Return
 261:src/retarget.c **** }
 262:src/retarget.c **** # endif 
 263:src/retarget.c **** 
 264:src/retarget.c **** # endif 
 265:src/retarget.c ****  
 266:src/retarget.c **** #else // defined(DEBUG_ENABLE_SEMIHOST)
 267:src/retarget.c **** 
 268:src/retarget.c **** # if defined(__ICCARM__)
 269:src/retarget.c **** 
 270:src/retarget.c **** void Get_LR_and_Branch(void)
 271:src/retarget.c **** {
 272:src/retarget.c ****     asm("MOV     R1, LR                  \n" //; LR current value
 273:src/retarget.c ****         "B       Hard_Fault_Handler      \n"
 274:src/retarget.c ****        );
 275:src/retarget.c **** }
 276:src/retarget.c **** 
 277:src/retarget.c **** void Stack_Use_MSP(void)
 278:src/retarget.c **** {
 279:src/retarget.c ****     asm("MRS     R0, MSP           \n" //; read MSP
 280:src/retarget.c ****         "B       Get_LR_and_Branch \n"
ARM GAS  C:\Users\CCMA\AppData\Local\Temp\cc3QzZjo.s 			page 8


 281:src/retarget.c ****        );
 282:src/retarget.c **** }
 283:src/retarget.c **** 
 284:src/retarget.c **** /**
 285:src/retarget.c ****  * @brief    This HardFault handler is implemented to show r0, r1, r2, r3, r12, lr, pc, psr
 286:src/retarget.c ****  *
 287:src/retarget.c ****  * @param    None
 288:src/retarget.c ****  *
 289:src/retarget.c ****  * @returns  None
 290:src/retarget.c ****  *
 291:src/retarget.c ****  * @details  This function is implement to print r0, r1, r2, r3, r12, lr, pc, psr.
 292:src/retarget.c ****  *
 293:src/retarget.c ****  */
 294:src/retarget.c **** void HardFault_Handler(void)
 295:src/retarget.c **** {
 296:src/retarget.c ****     asm("MOVS    r0, #4                        \n"
 297:src/retarget.c ****         "MOV     r1, LR                        \n"
 298:src/retarget.c ****         "TST     r0, r1                        \n" //; check LR bit 2
 299:src/retarget.c ****         "BEQ     Stack_Use_MSP                 \n" //; stack use MSP
 300:src/retarget.c ****         "MRS     R0, PSP                       \n" //; stack use PSP, read PSP
 301:src/retarget.c ****         "B       Get_LR_and_Branch             \n"
 302:src/retarget.c ****        );
 303:src/retarget.c **** 
 304:src/retarget.c ****     while(1);
 305:src/retarget.c **** }
 306:src/retarget.c **** 
 307:src/retarget.c **** # else // defined(__ICCARM__)
 308:src/retarget.c **** 
 309:src/retarget.c **** # if 0 //(__ARMCC_VERSION < 6040000)
 310:src/retarget.c **** 
 311:src/retarget.c **** /**
 312:src/retarget.c ****  * @brief    This HardFault handler is implemented to show r0, r1, r2, r3, r12, lr, pc, psr
 313:src/retarget.c ****  *
 314:src/retarget.c ****  * @param    None
 315:src/retarget.c ****  *
 316:src/retarget.c ****  * @return   None
 317:src/retarget.c ****  *
 318:src/retarget.c ****  * @details  The function extracts the location of stack frame and passes it to Hard_Fault_Handler 
 319:src/retarget.c ****  *
 320:src/retarget.c ****  */
 321:src/retarget.c **** __asm int32_t HardFault_Handler(void)
 322:src/retarget.c **** {
 323:src/retarget.c ****     MOVS    r0, #4  
 324:src/retarget.c ****     MOV     r1, LR
 325:src/retarget.c ****     TST     r0, r1          //; check LR bit 2                 
 326:src/retarget.c ****     BEQ     Stack_Use_MSP   //; stack use MSP
 327:src/retarget.c ****     MRS     R0, PSP         //; stack use PSP, read PSP
 328:src/retarget.c ****     B       Get_LR_and_Branch
 329:src/retarget.c **** Stack_Use_MSP
 330:src/retarget.c ****     MRS     R0, MSP         //; read MSP
 331:src/retarget.c **** Get_LR_and_Branch
 332:src/retarget.c ****     MOV     R1, LR          //; LR current value
 333:src/retarget.c ****     LDR     R2,=__cpp(Hard_Fault_Handler) //; branch to Hard_Fault_Handler 
 334:src/retarget.c ****     BX      R2
 335:src/retarget.c **** }
 336:src/retarget.c **** # endif 
 337:src/retarget.c **** # endif // defined(__ICCARM__)
ARM GAS  C:\Users\CCMA\AppData\Local\Temp\cc3QzZjo.s 			page 9


 338:src/retarget.c **** 
 339:src/retarget.c **** #endif // defined(DEBUG_ENABLE_SEMIHOST)
 340:src/retarget.c **** 
 341:src/retarget.c **** 
 342:src/retarget.c **** /**
 343:src/retarget.c ****  * @brief    Routine to send a char
 344:src/retarget.c ****  *
 345:src/retarget.c ****  * @param[in] ch  A character data writes to debug port
 346:src/retarget.c ****  *
 347:src/retarget.c ****  * @returns  Send value from UART debug port
 348:src/retarget.c ****  *
 349:src/retarget.c ****  * @details  Send a target char to UART debug port .
 350:src/retarget.c ****  */
 351:src/retarget.c **** #ifndef NONBLOCK_PRINTF
 352:src/retarget.c **** void SendChar_ToUART(int ch)
 353:src/retarget.c **** {
 112              		.loc 1 353 0
 113              		.cfi_startproc
 114              		@ args = 0, pretend = 0, frame = 0
 115              		@ frame_needed = 0, uses_anonymous_args = 0
 116              		@ link register save eliminated.
 117              	.LVL11:
 354:src/retarget.c **** 
 355:src/retarget.c ****     while(DEBUG_PORT->FIFOSTS & UART_FIFOSTS_TXFULL_Msk);
 118              		.loc 1 355 0
 119 0070 0949     		ldr	r1, .L12
 120 0072 8022     		movs	r2, #128
 121 0074 1204     		lsls	r2, r2, #16
 122              	.L6:
 123              		.loc 1 355 0 is_stmt 0 discriminator 1
 124 0076 8B69     		ldr	r3, [r1, #24]
 125 0078 1342     		tst	r3, r2
 126 007a FCD1     		bne	.L6
 356:src/retarget.c ****     DEBUG_PORT->DAT = ch;
 127              		.loc 1 356 0 is_stmt 1
 128 007c 064B     		ldr	r3, .L12
 129 007e 1860     		str	r0, [r3]
 357:src/retarget.c ****     if(ch == '\n')
 130              		.loc 1 357 0
 131 0080 0A28     		cmp	r0, #10
 132 0082 08D1     		bne	.L5
 358:src/retarget.c ****     {
 359:src/retarget.c ****         while(DEBUG_PORT->FIFOSTS & UART_FIFOSTS_TXFULL_Msk);
 133              		.loc 1 359 0 discriminator 1
 134 0084 1900     		movs	r1, r3
 135 0086 8022     		movs	r2, #128
 136 0088 1204     		lsls	r2, r2, #16
 137              	.L9:
 138 008a 8B69     		ldr	r3, [r1, #24]
 139 008c 1342     		tst	r3, r2
 140 008e FCD1     		bne	.L9
 360:src/retarget.c ****         DEBUG_PORT->DAT = '\r';
 141              		.loc 1 360 0
 142 0090 0D22     		movs	r2, #13
 143 0092 014B     		ldr	r3, .L12
 144 0094 1A60     		str	r2, [r3]
 145              	.L5:
ARM GAS  C:\Users\CCMA\AppData\Local\Temp\cc3QzZjo.s 			page 10


 361:src/retarget.c ****     }
 362:src/retarget.c **** }
 146              		.loc 1 362 0
 147              		@ sp needed
 148 0096 7047     		bx	lr
 149              	.L13:
 150              		.align	2
 151              	.L12:
 152 0098 00000750 		.word	1342636032
 153              		.cfi_endproc
 154              	.LFE63:
 155              		.size	SendChar_ToUART, .-SendChar_ToUART
 156              		.align	2
 157              		.global	_write
 158              		.code	16
 159              		.thumb_func
 160              		.type	_write, %function
 161              	_write:
 162              	.LFB64:
 363:src/retarget.c **** 
 364:src/retarget.c **** #else
 365:src/retarget.c **** /* Non-block implement of send char */
 366:src/retarget.c **** # define BUF_SIZE    512
 367:src/retarget.c **** void SendChar_ToUART(int ch)
 368:src/retarget.c **** {
 369:src/retarget.c ****     static uint8_t u8Buf[BUF_SIZE] = {0};
 370:src/retarget.c ****     static int32_t i32Head = 0;
 371:src/retarget.c ****     static int32_t i32Tail = 0;
 372:src/retarget.c ****     int32_t i32Tmp;
 373:src/retarget.c ****     
 374:src/retarget.c ****     /* Only flush the data in buffer to UART when ch == 0 */
 375:src/retarget.c ****     if(ch)
 376:src/retarget.c ****     {
 377:src/retarget.c ****         // Push char
 378:src/retarget.c ****         i32Tmp = i32Head+1;
 379:src/retarget.c ****         if(i32Tmp > BUF_SIZE) i32Tmp = 0;
 380:src/retarget.c ****         if(i32Tmp != i32Tail)
 381:src/retarget.c ****         {
 382:src/retarget.c ****             u8Buf[i32Head] = ch;
 383:src/retarget.c ****             i32Head = i32Tmp;
 384:src/retarget.c ****         }
 385:src/retarget.c ****         
 386:src/retarget.c ****         if(ch == '\n')
 387:src/retarget.c ****         {
 388:src/retarget.c ****             i32Tmp = i32Head+1;
 389:src/retarget.c ****             if(i32Tmp > BUF_SIZE) i32Tmp = 0;
 390:src/retarget.c ****             if(i32Tmp != i32Tail)
 391:src/retarget.c ****             {
 392:src/retarget.c ****                 u8Buf[i32Head] = '\r';
 393:src/retarget.c ****                 i32Head = i32Tmp;
 394:src/retarget.c ****             }
 395:src/retarget.c ****         }
 396:src/retarget.c ****     }
 397:src/retarget.c ****     else
 398:src/retarget.c ****     {
 399:src/retarget.c ****         if(i32Tail == i32Head)
 400:src/retarget.c ****             return;
ARM GAS  C:\Users\CCMA\AppData\Local\Temp\cc3QzZjo.s 			page 11


 401:src/retarget.c ****     }
 402:src/retarget.c ****     
 403:src/retarget.c ****     // pop char
 404:src/retarget.c ****     do
 405:src/retarget.c ****     {
 406:src/retarget.c ****         i32Tmp = i32Tail + 1;
 407:src/retarget.c ****         if(i32Tmp > BUF_SIZE) i32Tmp = 0;
 408:src/retarget.c ****         
 409:src/retarget.c ****         if((DEBUG_PORT->FSR & UART_FSR_TX_FULL_Msk) == 0)
 410:src/retarget.c ****         {
 411:src/retarget.c ****             DEBUG_PORT->DATA = u8Buf[i32Tail];
 412:src/retarget.c ****             i32Tail = i32Tmp;
 413:src/retarget.c ****         }
 414:src/retarget.c ****         else
 415:src/retarget.c ****             break; // FIFO full
 416:src/retarget.c ****     }while(i32Tail != i32Head);
 417:src/retarget.c **** }
 418:src/retarget.c **** #endif
 419:src/retarget.c **** 
 420:src/retarget.c **** #if 1   //terry
 421:src/retarget.c **** int _write(int file, char *ptr, int len)
 422:src/retarget.c **** {
 163              		.loc 1 422 0
 164              		.cfi_startproc
 165              		@ args = 0, pretend = 0, frame = 0
 166              		@ frame_needed = 0, uses_anonymous_args = 0
 167              	.LVL12:
 168 009c 70B5     		push	{r4, r5, r6, lr}
 169              	.LCFI1:
 170              		.cfi_def_cfa_offset 16
 171              		.cfi_offset 4, -16
 172              		.cfi_offset 5, -12
 173              		.cfi_offset 6, -8
 174              		.cfi_offset 14, -4
 175 009e 161E     		subs	r6, r2, #0
 176              	.LVL13:
 423:src/retarget.c **** 	#if 1
 424:src/retarget.c ****     int i;
 425:src/retarget.c ****     file = file;
 426:src/retarget.c ****     for (i = 0; i < len; i++)
 177              		.loc 1 426 0
 178 00a0 07DD     		ble	.L15
 179 00a2 0C00     		movs	r4, r1
 180 00a4 8D18     		adds	r5, r1, r2
 181              	.LVL14:
 182              	.L16:
 427:src/retarget.c ****     {
 428:src/retarget.c ****         SendChar_ToUART(*ptr++);
 183              		.loc 1 428 0 discriminator 3
 184 00a6 2078     		ldrb	r0, [r4]
 185 00a8 FFF7FEFF 		bl	SendChar_ToUART
 186              	.LVL15:
 187 00ac 0134     		adds	r4, r4, #1
 188              	.LVL16:
 426:src/retarget.c ****     {
 189              		.loc 1 426 0 discriminator 3
 190 00ae AC42     		cmp	r4, r5
ARM GAS  C:\Users\CCMA\AppData\Local\Temp\cc3QzZjo.s 			page 12


 191 00b0 F9D1     		bne	.L16
 192              	.LVL17:
 193              	.L15:
 429:src/retarget.c ****         //SH_DoCommand(0x04, *ptr++, NULL);
 430:src/retarget.c ****     }
 431:src/retarget.c ****     return len;
 432:src/retarget.c **** 	#else
 433:src/retarget.c **** 		_swiwrite(file, ptr, len);
 434:src/retarget.c **** 	#endif
 435:src/retarget.c **** 		
 436:src/retarget.c **** }
 194              		.loc 1 436 0
 195 00b2 3000     		movs	r0, r6
 196              		@ sp needed
 197              	.LVL18:
 198 00b4 70BD     		pop	{r4, r5, r6, pc}
 199              		.cfi_endproc
 200              	.LFE64:
 201              		.size	_write, .-_write
 202 00b6 C046     		.align	2
 203              		.global	_read
 204              		.code	16
 205              		.thumb_func
 206              		.type	_read, %function
 207              	_read:
 208              	.LFB65:
 437:src/retarget.c **** 
 438:src/retarget.c **** int _read(int file, char *ptr, int len) 
 439:src/retarget.c **** {
 209              		.loc 1 439 0
 210              		.cfi_startproc
 211              		@ args = 0, pretend = 0, frame = 0
 212              		@ frame_needed = 0, uses_anonymous_args = 0
 213              	.LVL19:
 214 00b8 30B5     		push	{r4, r5, lr}
 215              	.LCFI2:
 216              		.cfi_def_cfa_offset 12
 217              		.cfi_offset 4, -12
 218              		.cfi_offset 5, -8
 219              		.cfi_offset 14, -4
 440:src/retarget.c **** 	#if 1 
 441:src/retarget.c ****     int i;
 442:src/retarget.c **** 
 443:src/retarget.c ****     if(len == 0)
 444:src/retarget.c ****         return 0;
 220              		.loc 1 444 0
 221 00ba 0020     		movs	r0, #0
 222              	.LVL20:
 443:src/retarget.c ****         return 0;
 223              		.loc 1 443 0
 224 00bc 02B3     		cbz	r2, .L19
 445:src/retarget.c **** 
 446:src/retarget.c ****     while((DEBUG_PORT->FIFOSTS & UART_FIFOSTS_RXEMPTY_Msk) != 0);
 225              		.loc 1 446 0 discriminator 1
 226 00be 114C     		ldr	r4, .L29
 227 00c0 44F20000 		movw	r0, #16384
 228              	.L27:
ARM GAS  C:\Users\CCMA\AppData\Local\Temp\cc3QzZjo.s 			page 13


 229 00c4 A369     		ldr	r3, [r4, #24]
 230 00c6 1842     		tst	r0, r3
 231 00c8 FCD1     		bne	.L27
 232              	.LVL21:
 447:src/retarget.c ****     *ptr++ = (DEBUG_PORT->DAT);
 233              		.loc 1 447 0
 234 00ca 0E4B     		ldr	r3, .L29
 235 00cc 1B68     		ldr	r3, [r3]
 236 00ce 0B70     		strb	r3, [r1]
 237              	.LVL22:
 448:src/retarget.c **** 
 449:src/retarget.c ****     for(i = 1; i < len; i++) 
 238              		.loc 1 449 0
 239 00d0 012A     		cmp	r2, #1
 240 00d2 12DD     		ble	.L24
 450:src/retarget.c ****     {
 451:src/retarget.c ****         if((DEBUG_PORT->FIFOSTS & UART_FIFOSTS_RXEMPTY_Msk) != 0) {
 241              		.loc 1 451 0
 242 00d4 0B4B     		ldr	r3, .L29
 243 00d6 9B69     		ldr	r3, [r3, #24]
 244 00d8 5B04     		lsls	r3, r3, #17
 245 00da 10D4     		bmi	.L25
 246 00dc 0120     		movs	r0, #1
 452:src/retarget.c ****             break;
 453:src/retarget.c ****         }
 454:src/retarget.c ****         *ptr++ = (DEBUG_PORT->DAT);
 247              		.loc 1 454 0
 248 00de 094B     		ldr	r3, .L29
 451:src/retarget.c ****             break;
 249              		.loc 1 451 0
 250 00e0 44F20005 		movw	r5, #16384
 251 00e4 02E0     		b	.L21
 252              	.LVL23:
 253              	.L22:
 254 00e6 9C69     		ldr	r4, [r3, #24]
 255 00e8 2542     		tst	r5, r4
 256 00ea 09D1     		bne	.L19
 257              	.LVL24:
 258              	.L21:
 259              		.loc 1 454 0 discriminator 2
 260 00ec 1C68     		ldr	r4, [r3]
 261 00ee 0C54     		strb	r4, [r1, r0]
 449:src/retarget.c ****     {
 262              		.loc 1 449 0 discriminator 2
 263 00f0 0130     		adds	r0, r0, #1
 264              	.LVL25:
 265 00f2 8242     		cmp	r2, r0
 266 00f4 F7D1     		bne	.L22
 449:src/retarget.c ****     {
 267              		.loc 1 449 0 is_stmt 0
 268 00f6 1000     		movs	r0, r2
 269              	.LVL26:
 270 00f8 02E0     		b	.L19
 271              	.LVL27:
 272              	.L24:
 273 00fa 0120     		movs	r0, #1
 274 00fc 00E0     		b	.L19
ARM GAS  C:\Users\CCMA\AppData\Local\Temp\cc3QzZjo.s 			page 14


 275              	.L25:
 276 00fe 0120     		movs	r0, #1
 277              	.LVL28:
 278              	.L19:
 455:src/retarget.c ****     }
 456:src/retarget.c ****     return i;
 457:src/retarget.c **** 
 458:src/retarget.c **** 	#else
 459:src/retarget.c **** 		return _swiread(file, ptr, len);
 460:src/retarget.c **** 	#endif
 461:src/retarget.c ****  /*    while(1)
 462:src/retarget.c ****     {
 463:src/retarget.c ****         if((DEBUG_PORT->FIFOSTS & UART_FIFOSTS_RXEMPTY_Msk) == 0)
 464:src/retarget.c ****         {
 465:src/retarget.c ****             return (DEBUG_PORT->DAT);
 466:src/retarget.c ****         }
 467:src/retarget.c ****     }     */
 468:src/retarget.c **** }
 279              		.loc 1 468 0 is_stmt 1
 280              		@ sp needed
 281 0100 30BD     		pop	{r4, r5, pc}
 282              	.L30:
 283 0102 C046     		.align	2
 284              	.L29:
 285 0104 00000750 		.word	1342636032
 286              		.cfi_endproc
 287              	.LFE65:
 288              		.size	_read, .-_read
 289              		.align	2
 290              		.global	SendChar
 291              		.code	16
 292              		.thumb_func
 293              		.type	SendChar, %function
 294              	SendChar:
 295              	.LFB66:
 469:src/retarget.c **** #endif
 470:src/retarget.c **** 
 471:src/retarget.c **** /**
 472:src/retarget.c ****  * @brief    Routine to send a char
 473:src/retarget.c ****  *
 474:src/retarget.c ****  * @param[in] ch A character data writes to debug port
 475:src/retarget.c ****  *
 476:src/retarget.c ****  * @returns  Send value from UART debug port or semihost
 477:src/retarget.c ****  *
 478:src/retarget.c ****  * @details  Send a target char to UART debug port or semihost.
 479:src/retarget.c ****  */
 480:src/retarget.c **** void SendChar(int ch)
 481:src/retarget.c **** {
 296              		.loc 1 481 0
 297              		.cfi_startproc
 298              		@ args = 0, pretend = 0, frame = 0
 299              		@ frame_needed = 0, uses_anonymous_args = 0
 300              	.LVL29:
 301 0108 10B5     		push	{r4, lr}
 302              	.LCFI3:
 303              		.cfi_def_cfa_offset 8
 304              		.cfi_offset 4, -8
ARM GAS  C:\Users\CCMA\AppData\Local\Temp\cc3QzZjo.s 			page 15


 305              		.cfi_offset 14, -4
 482:src/retarget.c **** #if defined(DEBUG_ENABLE_SEMIHOST)
 483:src/retarget.c ****     g_buf[g_buf_len++] = ch;
 484:src/retarget.c ****     g_buf[g_buf_len] = '\0';
 485:src/retarget.c ****     if(g_buf_len + 1 >= sizeof(g_buf) || ch == '\n' || ch == '\0')
 486:src/retarget.c ****     {
 487:src/retarget.c ****         /* Send the char */
 488:src/retarget.c ****         if(SH_DoCommand(0x04, (int)g_buf, NULL) != 0)
 489:src/retarget.c ****         {
 490:src/retarget.c ****             g_buf_len = 0;
 491:src/retarget.c ****             return;
 492:src/retarget.c ****         }
 493:src/retarget.c ****         else
 494:src/retarget.c ****         {
 495:src/retarget.c ****             int i;
 496:src/retarget.c **** 
 497:src/retarget.c ****             for(i = 0; i < g_buf_len; i++)
 498:src/retarget.c ****                 SendChar_ToUART(g_buf[i]);
 499:src/retarget.c ****             g_buf_len = 0;
 500:src/retarget.c ****         }
 501:src/retarget.c ****     }
 502:src/retarget.c **** #else
 503:src/retarget.c ****     SendChar_ToUART(ch);
 306              		.loc 1 503 0
 307 010a FFF7FEFF 		bl	SendChar_ToUART
 308              	.LVL30:
 504:src/retarget.c **** #endif
 505:src/retarget.c **** }
 309              		.loc 1 505 0
 310              		@ sp needed
 311 010e 10BD     		pop	{r4, pc}
 312              		.cfi_endproc
 313              	.LFE66:
 314              		.size	SendChar, .-SendChar
 315              		.align	2
 316              		.global	GetChar
 317              		.code	16
 318              		.thumb_func
 319              		.type	GetChar, %function
 320              	GetChar:
 321              	.LFB67:
 506:src/retarget.c **** 
 507:src/retarget.c **** /**
 508:src/retarget.c ****  * @brief    Routine to get a char
 509:src/retarget.c ****  *
 510:src/retarget.c ****  * @param    None
 511:src/retarget.c ****  *
 512:src/retarget.c ****  * @returns  Get value from UART debug port or semihost
 513:src/retarget.c ****  *
 514:src/retarget.c ****  * @details  Wait UART debug port or semihost to input a char.
 515:src/retarget.c ****  */
 516:src/retarget.c **** char GetChar(void)
 517:src/retarget.c **** {
 322              		.loc 1 517 0
 323              		.cfi_startproc
 324              		@ args = 0, pretend = 0, frame = 0
 325              		@ frame_needed = 0, uses_anonymous_args = 0
ARM GAS  C:\Users\CCMA\AppData\Local\Temp\cc3QzZjo.s 			page 16


 326              		@ link register save eliminated.
 518:src/retarget.c **** #ifdef DEBUG_ENABLE_SEMIHOST
 519:src/retarget.c **** # if defined (__CC_ARM)
 520:src/retarget.c ****     int nRet;
 521:src/retarget.c ****     while(SH_DoCommand(0x101, 0, &nRet) != 0)
 522:src/retarget.c ****     {
 523:src/retarget.c ****         if(nRet != 0)
 524:src/retarget.c ****         {
 525:src/retarget.c ****             SH_DoCommand(0x07, 0, &nRet);
 526:src/retarget.c ****             return (char)nRet;
 527:src/retarget.c ****         }
 528:src/retarget.c ****     }
 529:src/retarget.c **** # else
 530:src/retarget.c ****     int nRet;
 531:src/retarget.c ****     while(SH_DoCommand(0x7, 0, &nRet) != 0)
 532:src/retarget.c ****     {
 533:src/retarget.c ****         if(nRet != 0)
 534:src/retarget.c ****             return (char)nRet;
 535:src/retarget.c ****     }
 536:src/retarget.c **** # endif
 537:src/retarget.c ****     return (0);
 538:src/retarget.c **** #else
 539:src/retarget.c **** 
 540:src/retarget.c ****     while(1)
 541:src/retarget.c ****     {
 542:src/retarget.c ****         if((DEBUG_PORT->FIFOSTS & UART_FIFOSTS_RXEMPTY_Msk) == 0)
 327              		.loc 1 542 0
 328 0110 0449     		ldr	r1, .L35
 329 0112 44F20002 		movw	r2, #16384
 330              	.L33:
 331 0116 8B69     		ldr	r3, [r1, #24]
 332 0118 1A42     		tst	r2, r3
 333 011a FCD1     		bne	.L33
 543:src/retarget.c ****         {
 544:src/retarget.c ****             return (DEBUG_PORT->DAT);
 334              		.loc 1 544 0
 335 011c 014B     		ldr	r3, .L35
 336 011e 1868     		ldr	r0, [r3]
 337 0120 C0B2     		uxtb	r0, r0
 545:src/retarget.c ****         }
 546:src/retarget.c ****     }
 547:src/retarget.c **** 
 548:src/retarget.c **** #endif
 549:src/retarget.c **** }
 338              		.loc 1 549 0
 339              		@ sp needed
 340 0122 7047     		bx	lr
 341              	.L36:
 342              		.align	2
 343              	.L35:
 344 0124 00000750 		.word	1342636032
 345              		.cfi_endproc
 346              	.LFE67:
 347              		.size	GetChar, .-GetChar
 348              		.align	2
 349              		.global	kbhit
 350              		.code	16
ARM GAS  C:\Users\CCMA\AppData\Local\Temp\cc3QzZjo.s 			page 17


 351              		.thumb_func
 352              		.type	kbhit, %function
 353              	kbhit:
 354              	.LFB68:
 550:src/retarget.c **** 
 551:src/retarget.c **** /**
 552:src/retarget.c ****  * @brief    Check any char input from UART
 553:src/retarget.c ****  *
 554:src/retarget.c ****  * @param    None
 555:src/retarget.c ****  *
 556:src/retarget.c ****  * @retval   1: No any char input
 557:src/retarget.c ****  * @retval   0: Have some char input
 558:src/retarget.c ****  *
 559:src/retarget.c ****  * @details  Check UART RSR RX EMPTY or not to determine if any char input from UART
 560:src/retarget.c ****  */
 561:src/retarget.c **** 
 562:src/retarget.c **** int kbhit(void)
 563:src/retarget.c **** {
 355              		.loc 1 563 0
 356              		.cfi_startproc
 357              		@ args = 0, pretend = 0, frame = 0
 358              		@ frame_needed = 0, uses_anonymous_args = 0
 359              		@ link register save eliminated.
 564:src/retarget.c ****     return !((DEBUG_PORT->FIFOSTS & UART_FIFOSTS_RXEMPTY_Msk) == 0);
 360              		.loc 1 564 0
 361 0128 024B     		ldr	r3, .L38
 362 012a 9869     		ldr	r0, [r3, #24]
 363 012c 4004     		lsls	r0, r0, #17
 364 012e C00F     		lsrs	r0, r0, #31
 565:src/retarget.c **** }
 365              		.loc 1 565 0
 366              		@ sp needed
 367 0130 7047     		bx	lr
 368              	.L39:
 369 0132 C046     		.align	2
 370              	.L38:
 371 0134 00000750 		.word	1342636032
 372              		.cfi_endproc
 373              	.LFE68:
 374              		.size	kbhit, .-kbhit
 375              		.align	2
 376              		.global	IsDebugFifoEmpty
 377              		.code	16
 378              		.thumb_func
 379              		.type	IsDebugFifoEmpty, %function
 380              	IsDebugFifoEmpty:
 381              	.LFB69:
 566:src/retarget.c **** /**
 567:src/retarget.c ****  * @brief    Check if debug message finished
 568:src/retarget.c ****  *
 569:src/retarget.c ****  * @param    None
 570:src/retarget.c ****  *
 571:src/retarget.c ****  * @retval   1: Message is finished
 572:src/retarget.c ****  * @retval   0: Message is transmitting.
 573:src/retarget.c ****  *
 574:src/retarget.c ****  * @details  Check if message finished (FIFO empty of debug port)
 575:src/retarget.c ****  */
ARM GAS  C:\Users\CCMA\AppData\Local\Temp\cc3QzZjo.s 			page 18


 576:src/retarget.c **** 
 577:src/retarget.c **** int IsDebugFifoEmpty(void)
 578:src/retarget.c **** {
 382              		.loc 1 578 0
 383              		.cfi_startproc
 384              		@ args = 0, pretend = 0, frame = 0
 385              		@ frame_needed = 0, uses_anonymous_args = 0
 386              		@ link register save eliminated.
 579:src/retarget.c ****     return ((DEBUG_PORT->FIFOSTS & UART_FIFOSTS_TXEMPTYF_Msk) != 0);
 387              		.loc 1 579 0
 388 0138 024B     		ldr	r3, .L41
 389 013a 9869     		ldr	r0, [r3, #24]
 390 013c C000     		lsls	r0, r0, #3
 391 013e C00F     		lsrs	r0, r0, #31
 580:src/retarget.c **** }
 392              		.loc 1 580 0
 393              		@ sp needed
 394 0140 7047     		bx	lr
 395              	.L42:
 396 0142 C046     		.align	2
 397              	.L41:
 398 0144 00000750 		.word	1342636032
 399              		.cfi_endproc
 400              	.LFE69:
 401              		.size	IsDebugFifoEmpty, .-IsDebugFifoEmpty
 402              		.align	2
 403              		.global	_ttywrch
 404              		.code	16
 405              		.thumb_func
 406              		.type	_ttywrch, %function
 407              	_ttywrch:
 408              	.LFB70:
 581:src/retarget.c **** 
 582:src/retarget.c **** /**
 583:src/retarget.c ****  * @brief    C library retargetting
 584:src/retarget.c ****  *
 585:src/retarget.c ****  * @param[in]  ch  Write a character data
 586:src/retarget.c ****  *
 587:src/retarget.c ****  * @returns  None
 588:src/retarget.c ****  *
 589:src/retarget.c ****  * @details  Check if message finished (FIFO empty of debug port)
 590:src/retarget.c ****  */
 591:src/retarget.c **** 
 592:src/retarget.c **** void _ttywrch(int ch)
 593:src/retarget.c **** {
 409              		.loc 1 593 0
 410              		.cfi_startproc
 411              		@ args = 0, pretend = 0, frame = 0
 412              		@ frame_needed = 0, uses_anonymous_args = 0
 413              	.LVL31:
 414 0148 10B5     		push	{r4, lr}
 415              	.LCFI4:
 416              		.cfi_def_cfa_offset 8
 417              		.cfi_offset 4, -8
 418              		.cfi_offset 14, -4
 419              	.LVL32:
 420              	.LBB8:
ARM GAS  C:\Users\CCMA\AppData\Local\Temp\cc3QzZjo.s 			page 19


 421              	.LBB9:
 503:src/retarget.c **** #endif
 422              		.loc 1 503 0
 423 014a FFF7FEFF 		bl	SendChar_ToUART
 424              	.LVL33:
 425              	.LBE9:
 426              	.LBE8:
 594:src/retarget.c ****     SendChar(ch);
 595:src/retarget.c ****     return;
 596:src/retarget.c **** }
 427              		.loc 1 596 0
 428              		@ sp needed
 429 014e 10BD     		pop	{r4, pc}
 430              		.cfi_endproc
 431              	.LFE70:
 432              		.size	_ttywrch, .-_ttywrch
 433              		.align	2
 434              		.global	fputc
 435              		.code	16
 436              		.thumb_func
 437              		.type	fputc, %function
 438              	fputc:
 439              	.LFB71:
 597:src/retarget.c **** 
 598:src/retarget.c **** 
 599:src/retarget.c **** /**
 600:src/retarget.c ****  * @brief      Write character to stream
 601:src/retarget.c ****  *
 602:src/retarget.c ****  * @param[in]  ch       Character to be written. The character is passed as its int promotion.
 603:src/retarget.c ****  * @param[in]  stream   Pointer to a FILE object that identifies the stream where the character is 
 604:src/retarget.c ****  *
 605:src/retarget.c ****  * @returns    If there are no errors, the same character that has been written is returned.
 606:src/retarget.c ****  *             If an error occurs, EOF is returned and the error indicator is set (see ferror).
 607:src/retarget.c ****  *
 608:src/retarget.c ****  * @details    Writes a character to the stream and advances the position indicator.\n
 609:src/retarget.c ****  *             The character is written at the current position of the stream as indicated \n
 610:src/retarget.c ****  *             by the internal position indicator, which is then advanced one character.
 611:src/retarget.c ****  *
 612:src/retarget.c ****  * @note       The above descriptions are copied from http://www.cplusplus.com/reference/clibrary/c
 613:src/retarget.c ****  *
 614:src/retarget.c ****  *
 615:src/retarget.c ****  */
 616:src/retarget.c **** 
 617:src/retarget.c **** int fputc(int ch, FILE *stream)
 618:src/retarget.c **** {
 440              		.loc 1 618 0
 441              		.cfi_startproc
 442              		@ args = 0, pretend = 0, frame = 0
 443              		@ frame_needed = 0, uses_anonymous_args = 0
 444              	.LVL34:
 445 0150 10B5     		push	{r4, lr}
 446              	.LCFI5:
 447              		.cfi_def_cfa_offset 8
 448              		.cfi_offset 4, -8
 449              		.cfi_offset 14, -4
 450 0152 0400     		movs	r4, r0
 451              	.LVL35:
ARM GAS  C:\Users\CCMA\AppData\Local\Temp\cc3QzZjo.s 			page 20


 452              	.LBB12:
 453              	.LBB13:
 503:src/retarget.c **** #endif
 454              		.loc 1 503 0
 455 0154 FFF7FEFF 		bl	SendChar_ToUART
 456              	.LVL36:
 457              	.LBE13:
 458              	.LBE12:
 619:src/retarget.c ****     SendChar(ch);
 620:src/retarget.c ****     return ch;
 621:src/retarget.c **** }
 459              		.loc 1 621 0
 460 0158 2000     		movs	r0, r4
 461              		@ sp needed
 462              	.LVL37:
 463 015a 10BD     		pop	{r4, pc}
 464              		.cfi_endproc
 465              	.LFE71:
 466              		.size	fputc, .-fputc
 467              		.align	2
 468              		.global	fgetc
 469              		.code	16
 470              		.thumb_func
 471              		.type	fgetc, %function
 472              	fgetc:
 473              	.LFB72:
 622:src/retarget.c **** 
 623:src/retarget.c **** 
 624:src/retarget.c **** /**
 625:src/retarget.c ****  * @brief      Get character from UART debug port or semihosting input
 626:src/retarget.c ****  *
 627:src/retarget.c ****  * @param[in]  stream   Pointer to a FILE object that identifies the stream on which the operation 
 628:src/retarget.c ****  *
 629:src/retarget.c ****  * @returns    The character read from UART debug port or semihosting
 630:src/retarget.c ****  *
 631:src/retarget.c ****  * @details    For get message from debug port or semihosting.
 632:src/retarget.c ****  *
 633:src/retarget.c ****  */
 634:src/retarget.c **** 
 635:src/retarget.c **** int fgetc(FILE *stream)
 636:src/retarget.c **** {
 474              		.loc 1 636 0
 475              		.cfi_startproc
 476              		@ args = 0, pretend = 0, frame = 0
 477              		@ frame_needed = 0, uses_anonymous_args = 0
 478              	.LVL38:
 479 015c 10B5     		push	{r4, lr}
 480              	.LCFI6:
 481              		.cfi_def_cfa_offset 8
 482              		.cfi_offset 4, -8
 483              		.cfi_offset 14, -4
 637:src/retarget.c ****     return (GetChar());
 484              		.loc 1 637 0
 485 015e FFF7FEFF 		bl	GetChar
 486              	.LVL39:
 638:src/retarget.c **** }
 487              		.loc 1 638 0
ARM GAS  C:\Users\CCMA\AppData\Local\Temp\cc3QzZjo.s 			page 21


 488              		@ sp needed
 489 0162 10BD     		pop	{r4, pc}
 490              		.cfi_endproc
 491              	.LFE72:
 492              		.size	fgetc, .-fgetc
 493              		.comm	__stdin,104,4
 494              		.comm	__stdout,104,4
 495              		.section	.rodata.str1.4,"aMS",%progbits,1
 496              		.align	2
 497              	.LC0:
 498 0000 496E2048 		.ascii	"In Hard Fault Handler\000"
 498      61726420 
 498      4661756C 
 498      74204861 
 498      6E646C65 
 499 0016 0000     		.space	2
 500              	.LC2:
 501 0018 72302020 		.ascii	"r0  = 0x%x\012\000"
 501      3D203078 
 501      25780A00 
 502              	.LC4:
 503 0024 72312020 		.ascii	"r1  = 0x%x\012\000"
 503      3D203078 
 503      25780A00 
 504              	.LC6:
 505 0030 72322020 		.ascii	"r2  = 0x%x\012\000"
 505      3D203078 
 505      25780A00 
 506              	.LC8:
 507 003c 72332020 		.ascii	"r3  = 0x%x\012\000"
 507      3D203078 
 507      25780A00 
 508              	.LC10:
 509 0048 72313220 		.ascii	"r12 = 0x%x\012\000"
 509      3D203078 
 509      25780A00 
 510              	.LC12:
 511 0054 6C722020 		.ascii	"lr  = 0x%x\012\000"
 511      3D203078 
 511      25780A00 
 512              	.LC14:
 513 0060 70632020 		.ascii	"pc  = 0x%x\012\000"
 513      3D203078 
 513      25780A00 
 514              	.LC16:
 515 006c 70737220 		.ascii	"psr = 0x%x\012\000"
 515      3D203078 
 515      25780A00 
 516              		.text
 517              	.Letext0:
 518              		.file 2 "c:\\program files\\gnu tools arm embedded\\5.4 2016q3\\arm-none-eabi\\include\\machine\\_
 519              		.file 3 "c:\\program files\\gnu tools arm embedded\\5.4 2016q3\\arm-none-eabi\\include\\sys\\lock.
 520              		.file 4 "c:\\program files\\gnu tools arm embedded\\5.4 2016q3\\arm-none-eabi\\include\\sys\\_type
 521              		.file 5 "c:\\program files\\gnu tools arm embedded\\5.4 2016q3\\lib\\gcc\\arm-none-eabi\\5.4.1\\in
 522              		.file 6 "c:\\program files\\gnu tools arm embedded\\5.4 2016q3\\arm-none-eabi\\include\\sys\\reent
 523              		.file 7 "c:\\program files\\gnu tools arm embedded\\5.4 2016q3\\arm-none-eabi\\include\\sys\\_stdi
 524              		.file 8 "c:\\program files\\gnu tools arm embedded\\5.4 2016q3\\arm-none-eabi\\include\\stdio.h"
ARM GAS  C:\Users\CCMA\AppData\Local\Temp\cc3QzZjo.s 			page 22


 525              		.file 9 "src/TC8234.h"
 526              		.file 10 "src/system_TC8234.h"
 527              		.file 11 "<built-in>"