ARM GAS  C:\Users\CCMA\AppData\Local\Temp\ccFSzZjo.s 			page 1


   1              		.syntax unified
   2              		.arch armv8-m.base
   3              		.fpu softvfp
   4              		.eabi_attribute 20, 1
   5              		.eabi_attribute 21, 1
   6              		.eabi_attribute 23, 3
   7              		.eabi_attribute 24, 1
   8              		.eabi_attribute 25, 1
   9              		.eabi_attribute 26, 1
  10              		.eabi_attribute 30, 1
  11              		.eabi_attribute 34, 0
  12              		.eabi_attribute 18, 4
  13              		.thumb
  14              		.syntax unified
  15              		.file	"SecureAttrib.c"
  16              		.text
  17              	.Ltext0:
  18              		.cfi_sections	.debug_frame
  19              		.align	2
  20              		.global	SecureAttrib
  21              		.code	16
  22              		.thumb_func
  23              		.type	SecureAttrib, %function
  24              	SecureAttrib:
  25              	.LFB70:
  26              		.file 1 "src/SecureAttrib.c"
   1:src/SecureAttrib.c **** /*-------------------------------------------------------------------------------------------------
   2:src/SecureAttrib.c **** /*                                                                                                 
   3:src/SecureAttrib.c **** /* Copyright (c) Nuvoton Technology Corp. All rights reserved.                                     
   4:src/SecureAttrib.c **** /*                                                                                                 
   5:src/SecureAttrib.c **** /*-------------------------------------------------------------------------------------------------
   6:src/SecureAttrib.c **** #include <stdio.h>
   7:src/SecureAttrib.c **** #include <arm_cmse.h>
   8:src/SecureAttrib.c **** #include "TC8234.h"
   9:src/SecureAttrib.c **** 
  10:src/SecureAttrib.c **** //#define FOR_SIMULATION
  11:src/SecureAttrib.c **** #ifdef FOR_SIMULATION
  12:src/SecureAttrib.c **** #define DbgPrintf(...)
  13:src/SecureAttrib.c **** #else
  14:src/SecureAttrib.c **** #define DbgPrintf printf
  15:src/SecureAttrib.c **** #endif
  16:src/SecureAttrib.c **** 
  17:src/SecureAttrib.c **** #if 0 // Bit definition of TT return data
  18:src/SecureAttrib.c **** typedef union
  19:src/SecureAttrib.c **** {
  20:src/SecureAttrib.c ****     struct cmse_address_info
  21:src/SecureAttrib.c ****     {
  22:src/SecureAttrib.c ****         unsigned mpu_region: 8;            /*bit 31-24*/
  23:src/SecureAttrib.c ****         unsigned sau_region: 8;            /*bit 23-16*/
  24:src/SecureAttrib.c ****         unsigned mpu_region_valid: 1;      /*bit 15-15*/
  25:src/SecureAttrib.c ****         unsigned sau_region_valid: 1;      /*bit 14-14*/
  26:src/SecureAttrib.c ****         unsigned read_ok: 1;               /*bit 13-13*/
  27:src/SecureAttrib.c ****         unsigned readwrite_ok: 1;          /*bit 12-12*/
  28:src/SecureAttrib.c ****         unsigned nonsecure_read_ok: 1;     /*bit 11-11*/
  29:src/SecureAttrib.c ****         unsigned nonsecure_readwrite_ok: 1; /*bit 10-10*/
  30:src/SecureAttrib.c ****         unsigned secure: 1;                /*bit 09-09*/
  31:src/SecureAttrib.c ****         unsigned idau_region_valid: 1;     /*bit 08-08*/
ARM GAS  C:\Users\CCMA\AppData\Local\Temp\ccFSzZjo.s 			page 2


  32:src/SecureAttrib.c ****         unsigned idau_region: 8;           /*bit 07-00*/
  33:src/SecureAttrib.c ****     } flags;
  34:src/SecureAttrib.c ****     unsigned value;
  35:src/SecureAttrib.c **** } cmse_address_info_t;
  36:src/SecureAttrib.c **** #endif
  37:src/SecureAttrib.c **** 
  38:src/SecureAttrib.c **** /* Golden pattern for IDAU based on DTS IDAU memory map */
  39:src/SecureAttrib.c **** cmse_address_info_t idau_ref[190] =
  40:src/SecureAttrib.c **** {
  41:src/SecureAttrib.c **** #if 0
  42:src/SecureAttrib.c ****     /* NA, NA, NA, NA, sr, sw, nsr, nsw, ns, NA, region */
  43:src/SecureAttrib.c ****     {0, 0, 0, 0, 1, 1, 1, 1, 1, 0, 0},
  44:src/SecureAttrib.c ****     {0, 0, 0, 0, 1, 1, 1, 1, 1, 0, 16},
  45:src/SecureAttrib.c ****     {0, 0, 0, 0, 1, 1, 0, 0, 0, 0, 1},
  46:src/SecureAttrib.c ****     {0, 0, 0, 0, 1, 1, 1, 1, 1, 0, 2},
  47:src/SecureAttrib.c ****     {0, 0, 0, 0, 1, 1, 1, 1, 1, 0, 17},
  48:src/SecureAttrib.c ****     {0, 0, 0, 0, 1, 1, 0, 0, 0, 0, 3},
  49:src/SecureAttrib.c ****     {0, 0, 0, 0, 1, 1, 1, 1, 1, 0, 4},
  50:src/SecureAttrib.c ****     {0, 0, 0, 0, 1, 1, 0, 0, 0, 0, 5},
  51:src/SecureAttrib.c ****     {0, 0, 0, 0, 1, 1, 1, 1, 1, 0, 6},
  52:src/SecureAttrib.c ****     {0, 0, 0, 0, 1, 1, 0, 0, 0, 0, 7},
  53:src/SecureAttrib.c ****     {0, 0, 0, 0, 1, 1, 1, 1, 1, 0, 8},
  54:src/SecureAttrib.c ****     {0, 0, 0, 0, 1, 1, 0, 0, 0, 0, 9},
  55:src/SecureAttrib.c ****     {0, 0, 0, 0, 1, 1, 1, 1, 1, 0, 10},
  56:src/SecureAttrib.c ****     {0, 0, 0, 0, 1, 1, 0, 0, 0, 0, 11},
  57:src/SecureAttrib.c ****     {0, 0, 0, 0, 1, 1, 1, 1, 1, 0, 12},
  58:src/SecureAttrib.c ****     {0, 0, 0, 0, 1, 1, 0, 0, 0, 0, 13},
  59:src/SecureAttrib.c ****     {0, 0, 0, 0, 1, 1, 1, 1, 1, 0, 99},
  60:src/SecureAttrib.c **** #endif
  61:src/SecureAttrib.c **** };
  62:src/SecureAttrib.c **** 
  63:src/SecureAttrib.c **** void SecureAttrib(void)
  64:src/SecureAttrib.c **** {
  27              		.loc 1 64 0
  28              		.cfi_startproc
  29              		@ args = 0, pretend = 0, frame = 16
  30              		@ frame_needed = 0, uses_anonymous_args = 0
  31 0000 F0B5     		push	{r4, r5, r6, r7, lr}
  32              	.LCFI0:
  33              		.cfi_def_cfa_offset 20
  34              		.cfi_offset 4, -20
  35              		.cfi_offset 5, -16
  36              		.cfi_offset 6, -12
  37              		.cfi_offset 7, -8
  38              		.cfi_offset 14, -4
  39 0002 5F46     		mov	r7, fp
  40 0004 5646     		mov	r6, r10
  41 0006 4D46     		mov	r5, r9
  42 0008 4446     		mov	r4, r8
  43 000a F0B4     		push	{r4, r5, r6, r7}
  44              	.LCFI1:
  45              		.cfi_def_cfa_offset 36
  46              		.cfi_offset 8, -36
  47              		.cfi_offset 9, -32
  48              		.cfi_offset 10, -28
  49              		.cfi_offset 11, -24
  50 000c 89B0     		sub	sp, sp, #36
ARM GAS  C:\Users\CCMA\AppData\Local\Temp\ccFSzZjo.s 			page 3


  51              	.LCFI2:
  52              		.cfi_def_cfa_offset 72
  53              	.LVL0:
  65:src/SecureAttrib.c **** #if 1
  66:src/SecureAttrib.c ****     uint32_t u32Addr, u32PageSize;
  67:src/SecureAttrib.c ****     cmse_address_info_t info;
  68:src/SecureAttrib.c ****     int32_t idau, sau;
  69:src/SecureAttrib.c ****     int32_t i, i32Err;
  70:src/SecureAttrib.c **** 
  71:src/SecureAttrib.c ****     i32Err = 0;
  72:src/SecureAttrib.c ****     i = 0;
  73:src/SecureAttrib.c ****     idau = -1;
  74:src/SecureAttrib.c ****     sau = -1;
  54              		.loc 1 74 0
  55 000e 0123     		movs	r3, #1
  56 0010 5B42     		rsbs	r3, r3, #0
  57 0012 0793     		str	r3, [sp, #28]
  75:src/SecureAttrib.c ****     u32PageSize = 0x400;
  76:src/SecureAttrib.c ****     for(u32Addr = 0; u32Addr < 0xFFFFEFFFul; u32Addr += u32PageSize)
  58              		.loc 1 76 0
  59 0014 40F20009 		movw	r9, #0
  60 0018 0124     		movs	r4, #1
  77:src/SecureAttrib.c ****     {
  78:src/SecureAttrib.c ****         info = cmse_TT((void *)u32Addr);
  79:src/SecureAttrib.c **** 
  80:src/SecureAttrib.c ****         if(info.flags.sau_region_valid && 1)
  81:src/SecureAttrib.c ****         {
  82:src/SecureAttrib.c ****             if(sau != info.flags.sau_region)
  83:src/SecureAttrib.c ****             {
  84:src/SecureAttrib.c ****                 //printf("[0x%08x] sau %d\n", u32Addr, info.flags.sau_region);
  85:src/SecureAttrib.c ****                 printf("[0x%08x] sau %02d Secure=%d Secure(R:%d W:%d) Non-secure(R:%d W:%d)\n", u32
  61              		.loc 1 85 0
  62 001a 4B46     		mov	r3, r9
  63 001c 0493     		str	r3, [sp, #16]
  64              	.LVL1:
  65              	.L3:
  66              	.LBB6:
  67              	.LBB7:
  68              		.file 2 "c:\\program files\\gnu tools arm embedded\\5.4 2016q3\\lib\\gcc\\arm-none-eabi\\5.4.1\\in
   1:c:\program files\gnu tools arm embedded\5.4 2016q3\lib\gcc\arm-none-eabi\5.4.1\include\arm_cmse.h **** /* ARMV8-M Secure Extensions intrinsics include file.
   2:c:\program files\gnu tools arm embedded\5.4 2016q3\lib\gcc\arm-none-eabi\5.4.1\include\arm_cmse.h **** 
   3:c:\program files\gnu tools arm embedded\5.4 2016q3\lib\gcc\arm-none-eabi\5.4.1\include\arm_cmse.h ****    Copyright (C) 2015-2016 Free Software Foundation, Inc.
   4:c:\program files\gnu tools arm embedded\5.4 2016q3\lib\gcc\arm-none-eabi\5.4.1\include\arm_cmse.h ****    Contributed by ARM Ltd.
   5:c:\program files\gnu tools arm embedded\5.4 2016q3\lib\gcc\arm-none-eabi\5.4.1\include\arm_cmse.h **** 
   6:c:\program files\gnu tools arm embedded\5.4 2016q3\lib\gcc\arm-none-eabi\5.4.1\include\arm_cmse.h ****    This file is part of GCC.
   7:c:\program files\gnu tools arm embedded\5.4 2016q3\lib\gcc\arm-none-eabi\5.4.1\include\arm_cmse.h **** 
   8:c:\program files\gnu tools arm embedded\5.4 2016q3\lib\gcc\arm-none-eabi\5.4.1\include\arm_cmse.h ****    GCC is free software; you can redistribute it and/or modify it
   9:c:\program files\gnu tools arm embedded\5.4 2016q3\lib\gcc\arm-none-eabi\5.4.1\include\arm_cmse.h ****    under the terms of the GNU General Public License as published
  10:c:\program files\gnu tools arm embedded\5.4 2016q3\lib\gcc\arm-none-eabi\5.4.1\include\arm_cmse.h ****    by the Free Software Foundation; either version 3, or (at your
  11:c:\program files\gnu tools arm embedded\5.4 2016q3\lib\gcc\arm-none-eabi\5.4.1\include\arm_cmse.h ****    option) any later version.
  12:c:\program files\gnu tools arm embedded\5.4 2016q3\lib\gcc\arm-none-eabi\5.4.1\include\arm_cmse.h **** 
  13:c:\program files\gnu tools arm embedded\5.4 2016q3\lib\gcc\arm-none-eabi\5.4.1\include\arm_cmse.h ****    GCC is distributed in the hope that it will be useful, but WITHOUT
  14:c:\program files\gnu tools arm embedded\5.4 2016q3\lib\gcc\arm-none-eabi\5.4.1\include\arm_cmse.h ****    ANY WARRANTY; without even the implied warranty of MERCHANTABILITY
  15:c:\program files\gnu tools arm embedded\5.4 2016q3\lib\gcc\arm-none-eabi\5.4.1\include\arm_cmse.h ****    or FITNESS FOR A PARTICULAR PURPOSE.  See the GNU General Public
  16:c:\program files\gnu tools arm embedded\5.4 2016q3\lib\gcc\arm-none-eabi\5.4.1\include\arm_cmse.h ****    License for more details.
  17:c:\program files\gnu tools arm embedded\5.4 2016q3\lib\gcc\arm-none-eabi\5.4.1\include\arm_cmse.h **** 
  18:c:\program files\gnu tools arm embedded\5.4 2016q3\lib\gcc\arm-none-eabi\5.4.1\include\arm_cmse.h ****    Under Section 7 of GPL version 3, you are granted additional
ARM GAS  C:\Users\CCMA\AppData\Local\Temp\ccFSzZjo.s 			page 4


  19:c:\program files\gnu tools arm embedded\5.4 2016q3\lib\gcc\arm-none-eabi\5.4.1\include\arm_cmse.h ****    permissions described in the GCC Runtime Library Exception, version
  20:c:\program files\gnu tools arm embedded\5.4 2016q3\lib\gcc\arm-none-eabi\5.4.1\include\arm_cmse.h ****    3.1, as published by the Free Software Foundation.
  21:c:\program files\gnu tools arm embedded\5.4 2016q3\lib\gcc\arm-none-eabi\5.4.1\include\arm_cmse.h **** 
  22:c:\program files\gnu tools arm embedded\5.4 2016q3\lib\gcc\arm-none-eabi\5.4.1\include\arm_cmse.h ****    You should have received a copy of the GNU General Public License and
  23:c:\program files\gnu tools arm embedded\5.4 2016q3\lib\gcc\arm-none-eabi\5.4.1\include\arm_cmse.h ****    a copy of the GCC Runtime Library Exception along with this program;
  24:c:\program files\gnu tools arm embedded\5.4 2016q3\lib\gcc\arm-none-eabi\5.4.1\include\arm_cmse.h ****    see the files COPYING3 and COPYING.RUNTIME respectively.  If not, see
  25:c:\program files\gnu tools arm embedded\5.4 2016q3\lib\gcc\arm-none-eabi\5.4.1\include\arm_cmse.h ****    <http://www.gnu.org/licenses/>.  */
  26:c:\program files\gnu tools arm embedded\5.4 2016q3\lib\gcc\arm-none-eabi\5.4.1\include\arm_cmse.h **** 
  27:c:\program files\gnu tools arm embedded\5.4 2016q3\lib\gcc\arm-none-eabi\5.4.1\include\arm_cmse.h ****    
  28:c:\program files\gnu tools arm embedded\5.4 2016q3\lib\gcc\arm-none-eabi\5.4.1\include\arm_cmse.h **** #ifndef _GCC_ARM_CMSE_H
  29:c:\program files\gnu tools arm embedded\5.4 2016q3\lib\gcc\arm-none-eabi\5.4.1\include\arm_cmse.h **** #define _GCC_ARM_CMSE_H
  30:c:\program files\gnu tools arm embedded\5.4 2016q3\lib\gcc\arm-none-eabi\5.4.1\include\arm_cmse.h **** 
  31:c:\program files\gnu tools arm embedded\5.4 2016q3\lib\gcc\arm-none-eabi\5.4.1\include\arm_cmse.h **** #ifdef __cplusplus
  32:c:\program files\gnu tools arm embedded\5.4 2016q3\lib\gcc\arm-none-eabi\5.4.1\include\arm_cmse.h **** extern "C" {
  33:c:\program files\gnu tools arm embedded\5.4 2016q3\lib\gcc\arm-none-eabi\5.4.1\include\arm_cmse.h **** #endif
  34:c:\program files\gnu tools arm embedded\5.4 2016q3\lib\gcc\arm-none-eabi\5.4.1\include\arm_cmse.h **** 
  35:c:\program files\gnu tools arm embedded\5.4 2016q3\lib\gcc\arm-none-eabi\5.4.1\include\arm_cmse.h **** #if __ARM_FEATURE_CMSE & 1
  36:c:\program files\gnu tools arm embedded\5.4 2016q3\lib\gcc\arm-none-eabi\5.4.1\include\arm_cmse.h **** 
  37:c:\program files\gnu tools arm embedded\5.4 2016q3\lib\gcc\arm-none-eabi\5.4.1\include\arm_cmse.h **** #include <stddef.h>
  38:c:\program files\gnu tools arm embedded\5.4 2016q3\lib\gcc\arm-none-eabi\5.4.1\include\arm_cmse.h **** #include <stdint.h>
  39:c:\program files\gnu tools arm embedded\5.4 2016q3\lib\gcc\arm-none-eabi\5.4.1\include\arm_cmse.h **** 
  40:c:\program files\gnu tools arm embedded\5.4 2016q3\lib\gcc\arm-none-eabi\5.4.1\include\arm_cmse.h **** #ifdef __ARM_BIG_ENDIAN
  41:c:\program files\gnu tools arm embedded\5.4 2016q3\lib\gcc\arm-none-eabi\5.4.1\include\arm_cmse.h **** 
  42:c:\program files\gnu tools arm embedded\5.4 2016q3\lib\gcc\arm-none-eabi\5.4.1\include\arm_cmse.h **** typedef union {
  43:c:\program files\gnu tools arm embedded\5.4 2016q3\lib\gcc\arm-none-eabi\5.4.1\include\arm_cmse.h ****   struct cmse_address_info {
  44:c:\program files\gnu tools arm embedded\5.4 2016q3\lib\gcc\arm-none-eabi\5.4.1\include\arm_cmse.h **** #if __ARM_FEATURE_CMSE & 2
  45:c:\program files\gnu tools arm embedded\5.4 2016q3\lib\gcc\arm-none-eabi\5.4.1\include\arm_cmse.h ****     unsigned idau_region:8;
  46:c:\program files\gnu tools arm embedded\5.4 2016q3\lib\gcc\arm-none-eabi\5.4.1\include\arm_cmse.h ****     unsigned idau_region_valid:1;
  47:c:\program files\gnu tools arm embedded\5.4 2016q3\lib\gcc\arm-none-eabi\5.4.1\include\arm_cmse.h ****     unsigned secure:1;
  48:c:\program files\gnu tools arm embedded\5.4 2016q3\lib\gcc\arm-none-eabi\5.4.1\include\arm_cmse.h ****     unsigned nonsecure_readwrite_ok:1;
  49:c:\program files\gnu tools arm embedded\5.4 2016q3\lib\gcc\arm-none-eabi\5.4.1\include\arm_cmse.h ****     unsigned nonsecure_read_ok:1;
  50:c:\program files\gnu tools arm embedded\5.4 2016q3\lib\gcc\arm-none-eabi\5.4.1\include\arm_cmse.h **** #else
  51:c:\program files\gnu tools arm embedded\5.4 2016q3\lib\gcc\arm-none-eabi\5.4.1\include\arm_cmse.h ****     unsigned :12;
  52:c:\program files\gnu tools arm embedded\5.4 2016q3\lib\gcc\arm-none-eabi\5.4.1\include\arm_cmse.h **** #endif
  53:c:\program files\gnu tools arm embedded\5.4 2016q3\lib\gcc\arm-none-eabi\5.4.1\include\arm_cmse.h ****     unsigned readwrite_ok:1;
  54:c:\program files\gnu tools arm embedded\5.4 2016q3\lib\gcc\arm-none-eabi\5.4.1\include\arm_cmse.h ****     unsigned read_ok:1;
  55:c:\program files\gnu tools arm embedded\5.4 2016q3\lib\gcc\arm-none-eabi\5.4.1\include\arm_cmse.h **** #if __ARM_FEATURE_CMSE & 2
  56:c:\program files\gnu tools arm embedded\5.4 2016q3\lib\gcc\arm-none-eabi\5.4.1\include\arm_cmse.h ****     unsigned sau_region_valid:1;
  57:c:\program files\gnu tools arm embedded\5.4 2016q3\lib\gcc\arm-none-eabi\5.4.1\include\arm_cmse.h **** #else
  58:c:\program files\gnu tools arm embedded\5.4 2016q3\lib\gcc\arm-none-eabi\5.4.1\include\arm_cmse.h ****     unsigned :1;
  59:c:\program files\gnu tools arm embedded\5.4 2016q3\lib\gcc\arm-none-eabi\5.4.1\include\arm_cmse.h **** #endif
  60:c:\program files\gnu tools arm embedded\5.4 2016q3\lib\gcc\arm-none-eabi\5.4.1\include\arm_cmse.h ****     unsigned mpu_region_valid:1;
  61:c:\program files\gnu tools arm embedded\5.4 2016q3\lib\gcc\arm-none-eabi\5.4.1\include\arm_cmse.h **** #if __ARM_FEATURE_CMSE & 2
  62:c:\program files\gnu tools arm embedded\5.4 2016q3\lib\gcc\arm-none-eabi\5.4.1\include\arm_cmse.h ****     unsigned sau_region:8;
  63:c:\program files\gnu tools arm embedded\5.4 2016q3\lib\gcc\arm-none-eabi\5.4.1\include\arm_cmse.h **** #else
  64:c:\program files\gnu tools arm embedded\5.4 2016q3\lib\gcc\arm-none-eabi\5.4.1\include\arm_cmse.h ****     unsigned :8;
  65:c:\program files\gnu tools arm embedded\5.4 2016q3\lib\gcc\arm-none-eabi\5.4.1\include\arm_cmse.h **** #endif
  66:c:\program files\gnu tools arm embedded\5.4 2016q3\lib\gcc\arm-none-eabi\5.4.1\include\arm_cmse.h ****     unsigned mpu_region:8;
  67:c:\program files\gnu tools arm embedded\5.4 2016q3\lib\gcc\arm-none-eabi\5.4.1\include\arm_cmse.h ****   } flags;
  68:c:\program files\gnu tools arm embedded\5.4 2016q3\lib\gcc\arm-none-eabi\5.4.1\include\arm_cmse.h ****   unsigned value;
  69:c:\program files\gnu tools arm embedded\5.4 2016q3\lib\gcc\arm-none-eabi\5.4.1\include\arm_cmse.h **** } cmse_address_info_t;
  70:c:\program files\gnu tools arm embedded\5.4 2016q3\lib\gcc\arm-none-eabi\5.4.1\include\arm_cmse.h **** 
  71:c:\program files\gnu tools arm embedded\5.4 2016q3\lib\gcc\arm-none-eabi\5.4.1\include\arm_cmse.h **** #else
  72:c:\program files\gnu tools arm embedded\5.4 2016q3\lib\gcc\arm-none-eabi\5.4.1\include\arm_cmse.h **** 
  73:c:\program files\gnu tools arm embedded\5.4 2016q3\lib\gcc\arm-none-eabi\5.4.1\include\arm_cmse.h **** typedef union {
  74:c:\program files\gnu tools arm embedded\5.4 2016q3\lib\gcc\arm-none-eabi\5.4.1\include\arm_cmse.h ****   struct cmse_address_info {
  75:c:\program files\gnu tools arm embedded\5.4 2016q3\lib\gcc\arm-none-eabi\5.4.1\include\arm_cmse.h ****     unsigned mpu_region:8;
ARM GAS  C:\Users\CCMA\AppData\Local\Temp\ccFSzZjo.s 			page 5


  76:c:\program files\gnu tools arm embedded\5.4 2016q3\lib\gcc\arm-none-eabi\5.4.1\include\arm_cmse.h **** #if __ARM_FEATURE_CMSE & 2
  77:c:\program files\gnu tools arm embedded\5.4 2016q3\lib\gcc\arm-none-eabi\5.4.1\include\arm_cmse.h ****     unsigned sau_region:8;
  78:c:\program files\gnu tools arm embedded\5.4 2016q3\lib\gcc\arm-none-eabi\5.4.1\include\arm_cmse.h **** #else
  79:c:\program files\gnu tools arm embedded\5.4 2016q3\lib\gcc\arm-none-eabi\5.4.1\include\arm_cmse.h ****     unsigned :8;
  80:c:\program files\gnu tools arm embedded\5.4 2016q3\lib\gcc\arm-none-eabi\5.4.1\include\arm_cmse.h **** #endif
  81:c:\program files\gnu tools arm embedded\5.4 2016q3\lib\gcc\arm-none-eabi\5.4.1\include\arm_cmse.h ****     unsigned mpu_region_valid:1;
  82:c:\program files\gnu tools arm embedded\5.4 2016q3\lib\gcc\arm-none-eabi\5.4.1\include\arm_cmse.h **** #if __ARM_FEATURE_CMSE & 2
  83:c:\program files\gnu tools arm embedded\5.4 2016q3\lib\gcc\arm-none-eabi\5.4.1\include\arm_cmse.h ****     unsigned sau_region_valid:1;
  84:c:\program files\gnu tools arm embedded\5.4 2016q3\lib\gcc\arm-none-eabi\5.4.1\include\arm_cmse.h **** #else
  85:c:\program files\gnu tools arm embedded\5.4 2016q3\lib\gcc\arm-none-eabi\5.4.1\include\arm_cmse.h ****     unsigned :1;
  86:c:\program files\gnu tools arm embedded\5.4 2016q3\lib\gcc\arm-none-eabi\5.4.1\include\arm_cmse.h **** #endif
  87:c:\program files\gnu tools arm embedded\5.4 2016q3\lib\gcc\arm-none-eabi\5.4.1\include\arm_cmse.h ****     unsigned read_ok:1;
  88:c:\program files\gnu tools arm embedded\5.4 2016q3\lib\gcc\arm-none-eabi\5.4.1\include\arm_cmse.h ****     unsigned readwrite_ok:1;
  89:c:\program files\gnu tools arm embedded\5.4 2016q3\lib\gcc\arm-none-eabi\5.4.1\include\arm_cmse.h **** #if __ARM_FEATURE_CMSE & 2
  90:c:\program files\gnu tools arm embedded\5.4 2016q3\lib\gcc\arm-none-eabi\5.4.1\include\arm_cmse.h ****     unsigned nonsecure_read_ok:1;
  91:c:\program files\gnu tools arm embedded\5.4 2016q3\lib\gcc\arm-none-eabi\5.4.1\include\arm_cmse.h ****     unsigned nonsecure_readwrite_ok:1;
  92:c:\program files\gnu tools arm embedded\5.4 2016q3\lib\gcc\arm-none-eabi\5.4.1\include\arm_cmse.h ****     unsigned secure:1;
  93:c:\program files\gnu tools arm embedded\5.4 2016q3\lib\gcc\arm-none-eabi\5.4.1\include\arm_cmse.h ****     unsigned idau_region_valid:1;
  94:c:\program files\gnu tools arm embedded\5.4 2016q3\lib\gcc\arm-none-eabi\5.4.1\include\arm_cmse.h ****     unsigned idau_region:8;
  95:c:\program files\gnu tools arm embedded\5.4 2016q3\lib\gcc\arm-none-eabi\5.4.1\include\arm_cmse.h **** #else
  96:c:\program files\gnu tools arm embedded\5.4 2016q3\lib\gcc\arm-none-eabi\5.4.1\include\arm_cmse.h ****     unsigned :12;
  97:c:\program files\gnu tools arm embedded\5.4 2016q3\lib\gcc\arm-none-eabi\5.4.1\include\arm_cmse.h **** #endif
  98:c:\program files\gnu tools arm embedded\5.4 2016q3\lib\gcc\arm-none-eabi\5.4.1\include\arm_cmse.h ****   } flags;
  99:c:\program files\gnu tools arm embedded\5.4 2016q3\lib\gcc\arm-none-eabi\5.4.1\include\arm_cmse.h ****   unsigned value;
 100:c:\program files\gnu tools arm embedded\5.4 2016q3\lib\gcc\arm-none-eabi\5.4.1\include\arm_cmse.h **** } cmse_address_info_t;
 101:c:\program files\gnu tools arm embedded\5.4 2016q3\lib\gcc\arm-none-eabi\5.4.1\include\arm_cmse.h **** 
 102:c:\program files\gnu tools arm embedded\5.4 2016q3\lib\gcc\arm-none-eabi\5.4.1\include\arm_cmse.h **** #endif
 103:c:\program files\gnu tools arm embedded\5.4 2016q3\lib\gcc\arm-none-eabi\5.4.1\include\arm_cmse.h **** 
 104:c:\program files\gnu tools arm embedded\5.4 2016q3\lib\gcc\arm-none-eabi\5.4.1\include\arm_cmse.h **** #define cmse_TT_fptr(p) (cmse_TT_fptr_generic ((__cmse_fptr)p))
 105:c:\program files\gnu tools arm embedded\5.4 2016q3\lib\gcc\arm-none-eabi\5.4.1\include\arm_cmse.h **** 
 106:c:\program files\gnu tools arm embedded\5.4 2016q3\lib\gcc\arm-none-eabi\5.4.1\include\arm_cmse.h **** typedef void (*__cmse_fptr)(void);
 107:c:\program files\gnu tools arm embedded\5.4 2016q3\lib\gcc\arm-none-eabi\5.4.1\include\arm_cmse.h **** 
 108:c:\program files\gnu tools arm embedded\5.4 2016q3\lib\gcc\arm-none-eabi\5.4.1\include\arm_cmse.h **** #define CMSE_TT_ASM(flags) \
 109:c:\program files\gnu tools arm embedded\5.4 2016q3\lib\gcc\arm-none-eabi\5.4.1\include\arm_cmse.h **** { \
 110:c:\program files\gnu tools arm embedded\5.4 2016q3\lib\gcc\arm-none-eabi\5.4.1\include\arm_cmse.h ****   cmse_address_info_t __result; \
 111:c:\program files\gnu tools arm embedded\5.4 2016q3\lib\gcc\arm-none-eabi\5.4.1\include\arm_cmse.h ****    __asm__ ("tt" # flags " %0,%1" \
 112:c:\program files\gnu tools arm embedded\5.4 2016q3\lib\gcc\arm-none-eabi\5.4.1\include\arm_cmse.h **** 	   : "=r"(__result) \
 113:c:\program files\gnu tools arm embedded\5.4 2016q3\lib\gcc\arm-none-eabi\5.4.1\include\arm_cmse.h **** 	   : "r"(__p) \
 114:c:\program files\gnu tools arm embedded\5.4 2016q3\lib\gcc\arm-none-eabi\5.4.1\include\arm_cmse.h **** 	   : "memory"); \
 115:c:\program files\gnu tools arm embedded\5.4 2016q3\lib\gcc\arm-none-eabi\5.4.1\include\arm_cmse.h ****   return __result; \
 116:c:\program files\gnu tools arm embedded\5.4 2016q3\lib\gcc\arm-none-eabi\5.4.1\include\arm_cmse.h **** }
 117:c:\program files\gnu tools arm embedded\5.4 2016q3\lib\gcc\arm-none-eabi\5.4.1\include\arm_cmse.h **** 
 118:c:\program files\gnu tools arm embedded\5.4 2016q3\lib\gcc\arm-none-eabi\5.4.1\include\arm_cmse.h **** __extension__ static __inline __attribute__ ((__always_inline__))
 119:c:\program files\gnu tools arm embedded\5.4 2016q3\lib\gcc\arm-none-eabi\5.4.1\include\arm_cmse.h **** cmse_address_info_t
 120:c:\program files\gnu tools arm embedded\5.4 2016q3\lib\gcc\arm-none-eabi\5.4.1\include\arm_cmse.h **** cmse_TT_fptr_generic (__cmse_fptr __p)
 121:c:\program files\gnu tools arm embedded\5.4 2016q3\lib\gcc\arm-none-eabi\5.4.1\include\arm_cmse.h **** CMSE_TT_ASM ()
 122:c:\program files\gnu tools arm embedded\5.4 2016q3\lib\gcc\arm-none-eabi\5.4.1\include\arm_cmse.h **** 
 123:c:\program files\gnu tools arm embedded\5.4 2016q3\lib\gcc\arm-none-eabi\5.4.1\include\arm_cmse.h **** __extension__ static __inline __attribute__ ((__always_inline__))
 124:c:\program files\gnu tools arm embedded\5.4 2016q3\lib\gcc\arm-none-eabi\5.4.1\include\arm_cmse.h **** cmse_address_info_t
 125:c:\program files\gnu tools arm embedded\5.4 2016q3\lib\gcc\arm-none-eabi\5.4.1\include\arm_cmse.h **** cmse_TT (void *__p)
 126:c:\program files\gnu tools arm embedded\5.4 2016q3\lib\gcc\arm-none-eabi\5.4.1\include\arm_cmse.h **** CMSE_TT_ASM ()
  69              		.loc 2 126 0
  70 001e 049B     		ldr	r3, [sp, #16]
  71              		.syntax divided
  72              	@ 126 "c:\program files\gnu tools arm embedded\5.4 2016q3\lib\gcc\arm-none-eabi\5.4.1\include\arm_c
  73 0020 43E800F2 		tt r2,r3
  74              	@ 0 "" 2
ARM GAS  C:\Users\CCMA\AppData\Local\Temp\ccFSzZjo.s 			page 6


  75              	.LVL2:
  76              		.thumb
  77              		.syntax unified
  78 0024 1604     		lsls	r6, r2, #16
  79 0026 330E     		lsrs	r3, r6, #24
  80 0028 1900     		movs	r1, r3
  81 002a 5303     		lsls	r3, r2, #13
  82 002c DB0F     		lsrs	r3, r3, #31
  83 002e 9C46     		mov	ip, r3
  84 0030 1303     		lsls	r3, r2, #12
  85 0032 DB0F     		lsrs	r3, r3, #31
  86 0034 9846     		mov	r8, r3
  87 0036 D302     		lsls	r3, r2, #11
  88 0038 DB0F     		lsrs	r3, r3, #31
  89 003a 9946     		mov	r9, r3
  90 003c 9302     		lsls	r3, r2, #10
  91 003e DB0F     		lsrs	r3, r3, #31
  92 0040 9A46     		mov	r10, r3
  93 0042 5302     		lsls	r3, r2, #9
  94 0044 DB0F     		lsrs	r3, r3, #31
  95 0046 1F00     		movs	r7, r3
  96 0048 0591     		str	r1, [sp, #20]
  97 004a 0B02     		lsls	r3, r1, #8
  98 004c 6148     		ldr	r0, .L11
  99 004e 0240     		ands	r2, r0
 100              	.LVL3:
 101 0050 1343     		orrs	r3, r2
 102 0052 6046     		mov	r0, ip
 103 0054 2040     		ands	r0, r4
 104 0056 8004     		lsls	r0, r0, #18
 105 0058 5F4A     		ldr	r2, .L11+4
 106 005a 9346     		mov	fp, r2
 107 005c 1340     		ands	r3, r2
 108 005e 0343     		orrs	r3, r0
 109 0060 4246     		mov	r2, r8
 110 0062 2240     		ands	r2, r4
 111 0064 D104     		lsls	r1, r2, #19
 112 0066 5D4A     		ldr	r2, .L11+8
 113 0068 1340     		ands	r3, r2
 114 006a 0B43     		orrs	r3, r1
 115 006c 4A46     		mov	r2, r9
 116 006e 2240     		ands	r2, r4
 117 0070 1205     		lsls	r2, r2, #20
 118 0072 5B4E     		ldr	r6, .L11+12
 119 0074 3340     		ands	r3, r6
 120 0076 1343     		orrs	r3, r2
 121 0078 5546     		mov	r5, r10
 122 007a 2540     		ands	r5, r4
 123 007c 6D05     		lsls	r5, r5, #21
 124 007e 594E     		ldr	r6, .L11+16
 125 0080 3340     		ands	r3, r6
 126 0082 2B43     		orrs	r3, r5
 127 0084 0697     		str	r7, [sp, #24]
 128 0086 3D00     		movs	r5, r7
 129 0088 2540     		ands	r5, r4
 130 008a AD05     		lsls	r5, r5, #22
 131 008c 2F00     		movs	r7, r5
ARM GAS  C:\Users\CCMA\AppData\Local\Temp\ccFSzZjo.s 			page 7


 132 008e 564D     		ldr	r5, .L11+20
 133 0090 2B40     		ands	r3, r5
 134 0092 3B43     		orrs	r3, r7
 135              	.LVL4:
 136              	.LBE7:
 137              	.LBE6:
  80:src/SecureAttrib.c ****         {
 138              		.loc 1 80 0
 139 0094 5F46     		mov	r7, fp
 140 0096 3B40     		ands	r3, r7
 141 0098 0343     		orrs	r3, r0
 142 009a 5048     		ldr	r0, .L11+8
 143 009c 0340     		ands	r3, r0
 144 009e 0B43     		orrs	r3, r1
 145 00a0 4F48     		ldr	r0, .L11+12
 146 00a2 0340     		ands	r3, r0
 147 00a4 1A43     		orrs	r2, r3
 148 00a6 3240     		ands	r2, r6
 149 00a8 2A40     		ands	r2, r5
 150 00aa 9203     		lsls	r2, r2, #14
 151 00ac 15D5     		bpl	.L2
  82:src/SecureAttrib.c ****             {
 152              		.loc 1 82 0
 153 00ae 059D     		ldr	r5, [sp, #20]
 154 00b0 0798     		ldr	r0, [sp, #28]
 155 00b2 8542     		cmp	r5, r0
 156 00b4 0FD0     		beq	.L7
 157              		.loc 1 85 0
 158 00b6 5246     		mov	r2, r10
 159 00b8 0392     		str	r2, [sp, #12]
 160 00ba 4A46     		mov	r2, r9
 161 00bc 0292     		str	r2, [sp, #8]
 162 00be 4246     		mov	r2, r8
 163 00c0 0192     		str	r2, [sp, #4]
 164 00c2 6246     		mov	r2, ip
 165 00c4 0092     		str	r2, [sp]
 166 00c6 069B     		ldr	r3, [sp, #24]
 167 00c8 2A00     		movs	r2, r5
 168 00ca 0499     		ldr	r1, [sp, #16]
 169 00cc 4748     		ldr	r0, .L11+24
 170 00ce FFF7FEFF 		bl	printf
 171              	.LVL5:
  86:src/SecureAttrib.c ****                        info.flags.sau_region, info.flags.secure, info.flags.read_ok, info.flags.rea
  87:src/SecureAttrib.c ****                        info.flags.nonsecure_read_ok, info.flags.nonsecure_readwrite_ok);
  88:src/SecureAttrib.c **** 
  89:src/SecureAttrib.c ****                 sau = info.flags.sau_region;
 172              		.loc 1 89 0
 173 00d2 0795     		str	r5, [sp, #28]
 174 00d4 01E0     		b	.L2
 175              	.LVL6:
 176              	.L7:
 177 00d6 059B     		ldr	r3, [sp, #20]
 178 00d8 0793     		str	r3, [sp, #28]
 179              	.LVL7:
 180              	.L2:
  76:src/SecureAttrib.c ****     {
 181              		.loc 1 76 0 discriminator 2
ARM GAS  C:\Users\CCMA\AppData\Local\Temp\ccFSzZjo.s 			page 8


 182 00da 40F2004C 		movw	ip, #1024
 183 00de 049A     		ldr	r2, [sp, #16]
 184 00e0 6244     		add	r2, r2, ip
 185 00e2 0492     		str	r2, [sp, #16]
 186              	.LVL8:
 187 00e4 424B     		ldr	r3, .L11+28
 188 00e6 9A42     		cmp	r2, r3
 189 00e8 99D1     		bne	.L3
 190 00ea 0123     		movs	r3, #1
 191 00ec 5B42     		rsbs	r3, r3, #0
 192 00ee 0793     		str	r3, [sp, #28]
 193              	.LVL9:
 194 00f0 0026     		movs	r6, #0
 195 00f2 0124     		movs	r4, #1
  90:src/SecureAttrib.c ****             }
  91:src/SecureAttrib.c ****         }
  92:src/SecureAttrib.c **** 
  93:src/SecureAttrib.c ****         if(info.flags.idau_region_valid && 0)
  94:src/SecureAttrib.c ****         {
  95:src/SecureAttrib.c ****             if(idau != info.flags.idau_region)
  96:src/SecureAttrib.c ****             {
  97:src/SecureAttrib.c ****                 printf("[0x%08x] idau %02d Secure=%d Secure(R:%d W:%d) Non-secure(R:%d W:%d)\n", u3
  98:src/SecureAttrib.c ****                        info.flags.idau_region, info.flags.secure, info.flags.read_ok, info.flags.re
  99:src/SecureAttrib.c ****                        info.flags.nonsecure_read_ok, info.flags.nonsecure_readwrite_ok);
 100:src/SecureAttrib.c ****                 idau = info.flags.idau_region;
 101:src/SecureAttrib.c ****             }
 102:src/SecureAttrib.c ****         }
 103:src/SecureAttrib.c ****     }
 104:src/SecureAttrib.c **** 
 105:src/SecureAttrib.c **** 
 106:src/SecureAttrib.c ****     for(u32Addr = 0; u32Addr < 0xFFFFEFFFul; u32Addr += u32PageSize)
 107:src/SecureAttrib.c ****     {
 108:src/SecureAttrib.c ****         info = cmse_TT((void *)u32Addr);
 109:src/SecureAttrib.c **** 
 110:src/SecureAttrib.c ****         if(info.flags.sau_region_valid && 0)
 111:src/SecureAttrib.c ****         {
 112:src/SecureAttrib.c ****             if(sau != info.flags.sau_region)
 113:src/SecureAttrib.c ****             {
 114:src/SecureAttrib.c ****                 //printf("[0x%08x] sau %d\n", u32Addr, info.flags.sau_region);
 115:src/SecureAttrib.c ****                 printf("[0x%08x] sau %02d Secure=%d Secure(R:%d W:%d) Non-secure(R:%d W:%d)\n", u32
 116:src/SecureAttrib.c ****                        info.flags.sau_region, info.flags.secure, info.flags.read_ok, info.flags.rea
 117:src/SecureAttrib.c ****                        info.flags.nonsecure_read_ok, info.flags.nonsecure_readwrite_ok);
 118:src/SecureAttrib.c **** 
 119:src/SecureAttrib.c ****                 sau = info.flags.sau_region;
 120:src/SecureAttrib.c ****             }
 121:src/SecureAttrib.c ****         }
 122:src/SecureAttrib.c **** 
 123:src/SecureAttrib.c ****         if(info.flags.idau_region_valid && 1)
 124:src/SecureAttrib.c ****         {
 125:src/SecureAttrib.c ****             if(idau != info.flags.idau_region)
 126:src/SecureAttrib.c ****             {
 127:src/SecureAttrib.c ****                 printf("[0x%08x] idau %02d Secure=%d Secure(R:%d W:%d) Non-secure(R:%d W:%d)\n", u3
 196              		.loc 1 127 0
 197 00f4 0496     		str	r6, [sp, #16]
 198              	.LVL10:
 199              	.L5:
 200              	.LBB8:
ARM GAS  C:\Users\CCMA\AppData\Local\Temp\ccFSzZjo.s 			page 9


 201              	.LBB9:
 202              		.loc 2 126 0
 203 00f6 049B     		ldr	r3, [sp, #16]
 204              		.syntax divided
 205              	@ 126 "c:\program files\gnu tools arm embedded\5.4 2016q3\lib\gcc\arm-none-eabi\5.4.1\include\arm_c
 206 00f8 43E800F2 		tt r2,r3
 207              	@ 0 "" 2
 208              	.LVL11:
 209              		.thumb
 210              		.syntax unified
 211 00fc 5303     		lsls	r3, r2, #13
 212 00fe DB0F     		lsrs	r3, r3, #31
 213 0100 9B46     		mov	fp, r3
 214 0102 1303     		lsls	r3, r2, #12
 215 0104 DB0F     		lsrs	r3, r3, #31
 216 0106 9846     		mov	r8, r3
 217 0108 D302     		lsls	r3, r2, #11
 218 010a DB0F     		lsrs	r3, r3, #31
 219 010c 9C46     		mov	ip, r3
 220 010e 9302     		lsls	r3, r2, #10
 221 0110 DB0F     		lsrs	r3, r3, #31
 222 0112 9946     		mov	r9, r3
 223 0114 5302     		lsls	r3, r2, #9
 224 0116 DB0F     		lsrs	r3, r3, #31
 225 0118 1F00     		movs	r7, r3
 226 011a 130E     		lsrs	r3, r2, #24
 227 011c 0593     		str	r3, [sp, #20]
 228 011e 5D46     		mov	r5, fp
 229 0120 2540     		ands	r5, r4
 230 0122 AD04     		lsls	r5, r5, #18
 231 0124 2C49     		ldr	r1, .L11+4
 232 0126 0A40     		ands	r2, r1
 233              	.LVL12:
 234 0128 2A43     		orrs	r2, r5
 235 012a 4046     		mov	r0, r8
 236 012c 2040     		ands	r0, r4
 237 012e C004     		lsls	r0, r0, #19
 238 0130 2A49     		ldr	r1, .L11+8
 239 0132 8A46     		mov	r10, r1
 240 0134 0A40     		ands	r2, r1
 241 0136 0243     		orrs	r2, r0
 242 0138 6146     		mov	r1, ip
 243 013a 2140     		ands	r1, r4
 244 013c 0905     		lsls	r1, r1, #20
 245 013e 284B     		ldr	r3, .L11+12
 246 0140 1A40     		ands	r2, r3
 247 0142 0A43     		orrs	r2, r1
 248 0144 4B46     		mov	r3, r9
 249 0146 2340     		ands	r3, r4
 250 0148 5B05     		lsls	r3, r3, #21
 251 014a 264E     		ldr	r6, .L11+16
 252 014c 3240     		ands	r2, r6
 253 014e 1A43     		orrs	r2, r3
 254 0150 0697     		str	r7, [sp, #24]
 255 0152 2740     		ands	r7, r4
 256 0154 BF05     		lsls	r7, r7, #22
 257 0156 244B     		ldr	r3, .L11+20
ARM GAS  C:\Users\CCMA\AppData\Local\Temp\ccFSzZjo.s 			page 10


 258 0158 1A40     		ands	r2, r3
 259 015a 3A43     		orrs	r2, r7
 260 015c 059F     		ldr	r7, [sp, #20]
 261 015e 3F06     		lsls	r7, r7, #24
 262 0160 1202     		lsls	r2, r2, #8
 263 0162 120A     		lsrs	r2, r2, #8
 264 0164 3A43     		orrs	r2, r7
 265              	.LVL13:
 266              	.LBE9:
 267              	.LBE8:
 123:src/SecureAttrib.c ****         {
 268              		.loc 1 123 0
 269 0166 1C4E     		ldr	r6, .L11+4
 270 0168 3240     		ands	r2, r6
 271 016a 2A43     		orrs	r2, r5
 272 016c 5546     		mov	r5, r10
 273 016e 2A40     		ands	r2, r5
 274 0170 0243     		orrs	r2, r0
 275 0172 1B48     		ldr	r0, .L11+12
 276 0174 0240     		ands	r2, r0
 277 0176 1143     		orrs	r1, r2
 278 0178 1A4A     		ldr	r2, .L11+16
 279 017a 1140     		ands	r1, r2
 280 017c 0B40     		ands	r3, r1
 281 017e 1A02     		lsls	r2, r3, #8
 282 0180 15D5     		bpl	.L4
 125:src/SecureAttrib.c ****             {
 283              		.loc 1 125 0
 284 0182 059F     		ldr	r7, [sp, #20]
 285 0184 0799     		ldr	r1, [sp, #28]
 286 0186 8F42     		cmp	r7, r1
 287 0188 0FD0     		beq	.L8
 288              		.loc 1 127 0
 289 018a 4A46     		mov	r2, r9
 290 018c 0392     		str	r2, [sp, #12]
 291 018e 6246     		mov	r2, ip
 292 0190 0292     		str	r2, [sp, #8]
 293 0192 4246     		mov	r2, r8
 294 0194 0192     		str	r2, [sp, #4]
 295 0196 5A46     		mov	r2, fp
 296 0198 0092     		str	r2, [sp]
 297 019a 069B     		ldr	r3, [sp, #24]
 298 019c 3A00     		movs	r2, r7
 299 019e 0499     		ldr	r1, [sp, #16]
 300 01a0 1448     		ldr	r0, .L11+32
 301 01a2 FFF7FEFF 		bl	printf
 302              	.LVL14:
 128:src/SecureAttrib.c ****                        info.flags.idau_region, info.flags.secure, info.flags.read_ok, info.flags.re
 129:src/SecureAttrib.c ****                        info.flags.nonsecure_read_ok, info.flags.nonsecure_readwrite_ok);
 130:src/SecureAttrib.c ****                 idau = info.flags.idau_region;
 303              		.loc 1 130 0
 304 01a6 0797     		str	r7, [sp, #28]
 305 01a8 01E0     		b	.L4
 306              	.LVL15:
 307              	.L8:
 308 01aa 059B     		ldr	r3, [sp, #20]
 309 01ac 0793     		str	r3, [sp, #28]
ARM GAS  C:\Users\CCMA\AppData\Local\Temp\ccFSzZjo.s 			page 11


 310              	.LVL16:
 311              	.L4:
 106:src/SecureAttrib.c ****     {
 312              		.loc 1 106 0 discriminator 2
 313 01ae 40F2004C 		movw	ip, #1024
 314 01b2 049A     		ldr	r2, [sp, #16]
 315 01b4 6244     		add	r2, r2, ip
 316 01b6 0492     		str	r2, [sp, #16]
 317              	.LVL17:
 318 01b8 0D4B     		ldr	r3, .L11+28
 319 01ba 9A42     		cmp	r2, r3
 320 01bc 9BD1     		bne	.L5
 321              	.L6:
 131:src/SecureAttrib.c ****             }
 132:src/SecureAttrib.c ****         }
 133:src/SecureAttrib.c ****     }
 134:src/SecureAttrib.c **** 
 135:src/SecureAttrib.c **** 
 136:src/SecureAttrib.c **** 
 137:src/SecureAttrib.c **** lexit:
 138:src/SecureAttrib.c **** 
 139:src/SecureAttrib.c ****     DbgPrintf("Secure Attribution Scan Done!\n");
 322              		.loc 1 139 0
 323 01be 0E48     		ldr	r0, .L11+36
 324 01c0 FFF7FEFF 		bl	puts
 325              	.LVL18:
 140:src/SecureAttrib.c **** 
 141:src/SecureAttrib.c ****     return ;
 142:src/SecureAttrib.c **** #endif
 143:src/SecureAttrib.c **** }
 326              		.loc 1 143 0
 327 01c4 09B0     		add	sp, sp, #36
 328              		@ sp needed
 329 01c6 3CBC     		pop	{r2, r3, r4, r5}
 330 01c8 9046     		mov	r8, r2
 331 01ca 9946     		mov	r9, r3
 332 01cc A246     		mov	r10, r4
 333 01ce AB46     		mov	fp, r5
 334 01d0 F0BD     		pop	{r4, r5, r6, r7, pc}
 335              	.L12:
 336 01d2 C046     		.align	2
 337              	.L11:
 338 01d4 FF00FFFF 		.word	-65281
 339 01d8 FFFFFBFF 		.word	-262145
 340 01dc FFFFF7FF 		.word	-524289
 341 01e0 FFFFEFFF 		.word	-1048577
 342 01e4 FFFFDFFF 		.word	-2097153
 343 01e8 FFFFBFFF 		.word	-4194305
 344 01ec 00000000 		.word	.LC0
 345 01f0 00F0FFFF 		.word	-4096
 346 01f4 48000000 		.word	.LC2
 347 01f8 90000000 		.word	.LC4
 348              		.cfi_endproc
 349              	.LFE70:
 350              		.size	SecureAttrib, .-SecureAttrib
 351              		.global	idau_ref
 352              		.section	.rodata.str1.4,"aMS",%progbits,1
ARM GAS  C:\Users\CCMA\AppData\Local\Temp\ccFSzZjo.s 			page 12


 353              		.align	2
 354              	.LC0:
 355 0000 5B307825 		.ascii	"[0x%08x] sau %02d Secure=%d Secure(R:%d W:%d) Non-s"
 355      3038785D 
 355      20736175 
 355      20253032 
 355      64205365 
 356 0033 65637572 		.ascii	"ecure(R:%d W:%d)\012\000"
 356      6528523A 
 356      25642057 
 356      3A256429 
 356      0A00
 357 0045 000000   		.space	3
 358              	.LC2:
 359 0048 5B307825 		.ascii	"[0x%08x] idau %02d Secure=%d Secure(R:%d W:%d) Non-"
 359      3038785D 
 359      20696461 
 359      75202530 
 359      32642053 
 360 007b 73656375 		.ascii	"secure(R:%d W:%d)\012\000"
 360      72652852 
 360      3A256420 
 360      573A2564 
 360      290A00
 361 008e 0000     		.space	2
 362              	.LC4:
 363 0090 53656375 		.ascii	"Secure Attribution Scan Done!\000"
 363      72652041 
 363      74747269 
 363      62757469 
 363      6F6E2053 
 364              		.bss
 365              		.align	2
 366              		.type	idau_ref, %object
 367              		.size	idau_ref, 760
 368              	idau_ref:
 369 0000 00000000 		.space	760
 369      00000000 
 369      00000000 
 369      00000000 
 369      00000000 
 370              		.text
 371              	.Letext0:
 372              		.file 3 "c:\\program files\\gnu tools arm embedded\\5.4 2016q3\\arm-none-eabi\\include\\machine\\_
 373              		.file 4 "c:\\program files\\gnu tools arm embedded\\5.4 2016q3\\arm-none-eabi\\include\\sys\\_stdi
 374              		.file 5 "src/system_TC8234.h"
 375              		.file 6 "c:\\program files\\gnu tools arm embedded\\5.4 2016q3\\arm-none-eabi\\include\\stdio.h"
 376              		.file 7 "<built-in>"